
OBJ/place.o:     file format elf64-x86-64


Disassembly of section .text:

0000000000000000 <get_bb_from_scratch>:
       0:	41 57                	push   %r15
       2:	48 8b 05 00 00 00 00 	mov    0x0(%rip),%rax        # 9 <get_bb_from_scratch+0x9>
       9:	48 63 ff             	movslq %edi,%rdi
       c:	41 56                	push   %r14
       e:	41 55                	push   %r13
      10:	41 54                	push   %r12
      12:	55                   	push   %rbp
      13:	53                   	push   %rbx
      14:	8b 0c b8             	mov    (%rax,%rdi,4),%ecx
      17:	48 89 74 24 f0       	mov    %rsi,-0x10(%rsp)
      1c:	48 89 54 24 f8       	mov    %rdx,-0x8(%rsp)
      21:	85 c9                	test   %ecx,%ecx
      23:	0f 85 a7 01 00 00    	jne    1d0 <get_bb_from_scratch+0x1d0>
      29:	48 8b 05 00 00 00 00 	mov    0x0(%rip),%rax        # 30 <get_bb_from_scratch+0x30>
      30:	48 8d 14 bf          	lea    (%rdi,%rdi,4),%rdx
      34:	48 8d 04 d0          	lea    (%rax,%rdx,8),%rax
      38:	48 8b 50 10          	mov    0x10(%rax),%rdx
      3c:	8b 40 08             	mov    0x8(%rax),%eax
      3f:	83 c0 01             	add    $0x1,%eax
      42:	48 63 0a             	movslq (%rdx),%rcx
      45:	48 8b 2d 00 00 00 00 	mov    0x0(%rip),%rbp        # 4c <get_bb_from_scratch+0x4c>
      4c:	44 8b 0d 00 00 00 00 	mov    0x0(%rip),%r9d        # 53 <get_bb_from_scratch+0x53>
      53:	44 8b 15 00 00 00 00 	mov    0x0(%rip),%r10d        # 5a <get_bb_from_scratch+0x5a>
      5a:	48 8d 0c 89          	lea    (%rcx,%rcx,4),%rcx
      5e:	48 8d 74 cd 00       	lea    0x0(%rbp,%rcx,8),%rsi
      63:	b9 01 00 00 00       	mov    $0x1,%ecx
      68:	44 8b 46 18          	mov    0x18(%rsi),%r8d
      6c:	8b 7e 1c             	mov    0x1c(%rsi),%edi
      6f:	45 39 c1             	cmp    %r8d,%r9d
      72:	45 0f 4e c1          	cmovle %r9d,%r8d
      76:	45 85 c0             	test   %r8d,%r8d
      79:	44 0f 4e c1          	cmovle %ecx,%r8d
      7d:	41 39 fa             	cmp    %edi,%r10d
      80:	41 0f 4e fa          	cmovle %r10d,%edi
      84:	85 ff                	test   %edi,%edi
      86:	0f 4e f9             	cmovle %ecx,%edi
      89:	83 f8 01             	cmp    $0x1,%eax
      8c:	0f 8e 65 01 00 00    	jle    1f7 <get_bb_from_scratch+0x1f7>
      92:	83 e8 02             	sub    $0x2,%eax
      95:	48 8d 4a 04          	lea    0x4(%rdx),%rcx
      99:	41 89 fb             	mov    %edi,%r11d
      9c:	4c 8d 74 82 08       	lea    0x8(%rdx,%rax,4),%r14
      a1:	44 89 c6             	mov    %r8d,%esi
      a4:	c7 44 24 ec 01 00 00 	movl   $0x1,-0x14(%rsp)
      ab:	00 
      ac:	41 bc 01 00 00 00    	mov    $0x1,%r12d
      b2:	41 bf 01 00 00 00    	mov    $0x1,%r15d
      b8:	41 bd 01 00 00 00    	mov    $0x1,%r13d
      be:	bb 01 00 00 00       	mov    $0x1,%ebx
      c3:	eb 3a                	jmp    ff <get_bb_from_scratch+0xff>
      c5:	0f 1f 00             	nopl   (%rax)
      c8:	44 39 c2             	cmp    %r8d,%edx
      cb:	7e 09                	jle    d6 <get_bb_from_scratch+0xd6>
      cd:	41 89 d0             	mov    %edx,%r8d
      d0:	41 bf 01 00 00 00    	mov    $0x1,%r15d
      d6:	44 39 d8             	cmp    %r11d,%eax
      d9:	74 72                	je     14d <get_bb_from_scratch+0x14d>
      db:	39 f8                	cmp    %edi,%eax
      dd:	74 76                	je     155 <get_bb_from_scratch+0x155>
      df:	44 39 d8             	cmp    %r11d,%eax
      e2:	0f 8c b8 00 00 00    	jl     1a0 <get_bb_from_scratch+0x1a0>
      e8:	39 f8                	cmp    %edi,%eax
      ea:	7e 0a                	jle    f6 <get_bb_from_scratch+0xf6>
      ec:	89 c7                	mov    %eax,%edi
      ee:	c7 44 24 ec 01 00 00 	movl   $0x1,-0x14(%rsp)
      f5:	00 
      f6:	48 83 c1 04          	add    $0x4,%rcx
      fa:	4c 39 f1             	cmp    %r14,%rcx
      fd:	74 66                	je     165 <get_bb_from_scratch+0x165>
      ff:	48 63 01             	movslq (%rcx),%rax
     102:	44 89 ca             	mov    %r9d,%edx
     105:	48 8d 04 80          	lea    (%rax,%rax,4),%rax
     109:	48 8d 44 c5 00       	lea    0x0(%rbp,%rax,8),%rax
     10e:	44 39 48 18          	cmp    %r9d,0x18(%rax)
     112:	0f 4e 50 18          	cmovle 0x18(%rax),%edx
     116:	85 d2                	test   %edx,%edx
     118:	0f 4e d3             	cmovle %ebx,%edx
     11b:	44 39 50 1c          	cmp    %r10d,0x1c(%rax)
     11f:	8b 40 1c             	mov    0x1c(%rax),%eax
     122:	41 0f 4f c2          	cmovg  %r10d,%eax
     126:	85 c0                	test   %eax,%eax
     128:	0f 4e c3             	cmovle %ebx,%eax
     12b:	39 f2                	cmp    %esi,%edx
     12d:	0f 84 7d 00 00 00    	je     1b0 <get_bb_from_scratch+0x1b0>
     133:	44 39 c2             	cmp    %r8d,%edx
     136:	0f 84 81 00 00 00    	je     1bd <get_bb_from_scratch+0x1bd>
     13c:	39 f2                	cmp    %esi,%edx
     13e:	7d 88                	jge    c8 <get_bb_from_scratch+0xc8>
     140:	44 39 d8             	cmp    %r11d,%eax
     143:	89 d6                	mov    %edx,%esi
     145:	41 bd 01 00 00 00    	mov    $0x1,%r13d
     14b:	75 8e                	jne    db <get_bb_from_scratch+0xdb>
     14d:	41 83 c4 01          	add    $0x1,%r12d
     151:	39 f8                	cmp    %edi,%eax
     153:	75 93                	jne    e8 <get_bb_from_scratch+0xe8>
     155:	48 83 c1 04          	add    $0x4,%rcx
     159:	83 44 24 ec 01       	addl   $0x1,-0x14(%rsp)
     15e:	89 c7                	mov    %eax,%edi
     160:	4c 39 f1             	cmp    %r14,%rcx
     163:	75 9a                	jne    ff <get_bb_from_scratch+0xff>
     165:	48 8b 44 24 f0       	mov    -0x10(%rsp),%rax
     16a:	48 8b 54 24 f8       	mov    -0x8(%rsp),%rdx
     16f:	89 30                	mov    %esi,(%rax)
     171:	44 89 40 04          	mov    %r8d,0x4(%rax)
     175:	44 89 58 08          	mov    %r11d,0x8(%rax)
     179:	89 78 0c             	mov    %edi,0xc(%rax)
     17c:	8b 44 24 ec          	mov    -0x14(%rsp),%eax
     180:	44 89 2a             	mov    %r13d,(%rdx)
     183:	44 89 7a 04          	mov    %r15d,0x4(%rdx)
     187:	44 89 62 08          	mov    %r12d,0x8(%rdx)
     18b:	89 42 0c             	mov    %eax,0xc(%rdx)
     18e:	5b                   	pop    %rbx
     18f:	5d                   	pop    %rbp
     190:	41 5c                	pop    %r12
     192:	41 5d                	pop    %r13
     194:	41 5e                	pop    %r14
     196:	41 5f                	pop    %r15
     198:	c3                   	retq   
     199:	0f 1f 80 00 00 00 00 	nopl   0x0(%rax)
     1a0:	41 89 c3             	mov    %eax,%r11d
     1a3:	41 bc 01 00 00 00    	mov    $0x1,%r12d
     1a9:	e9 48 ff ff ff       	jmpq   f6 <get_bb_from_scratch+0xf6>
     1ae:	66 90                	xchg   %ax,%ax
     1b0:	41 83 c5 01          	add    $0x1,%r13d
     1b4:	44 39 c6             	cmp    %r8d,%esi
     1b7:	0f 85 0b ff ff ff    	jne    c8 <get_bb_from_scratch+0xc8>
     1bd:	41 83 c7 01          	add    $0x1,%r15d
     1c1:	41 89 d0             	mov    %edx,%r8d
     1c4:	e9 0d ff ff ff       	jmpq   d6 <get_bb_from_scratch+0xd6>
     1c9:	0f 1f 80 00 00 00 00 	nopl   0x0(%rax)
     1d0:	48 8b 05 00 00 00 00 	mov    0x0(%rip),%rax        # 1d7 <get_bb_from_scratch+0x1d7>
     1d7:	48 8b 35 00 00 00 00 	mov    0x0(%rip),%rsi        # 1de <get_bb_from_scratch+0x1de>
     1de:	48 8b 14 f8          	mov    (%rax,%rdi,8),%rdx
     1e2:	48 8d 04 bf          	lea    (%rdi,%rdi,4),%rax
     1e6:	48 8d 04 c6          	lea    (%rsi,%rax,8),%rax
     1ea:	8b 40 08             	mov    0x8(%rax),%eax
     1ed:	83 c0 01             	add    $0x1,%eax
     1f0:	29 c8                	sub    %ecx,%eax
     1f2:	e9 4b fe ff ff       	jmpq   42 <get_bb_from_scratch+0x42>
     1f7:	41 89 fb             	mov    %edi,%r11d
     1fa:	44 89 c6             	mov    %r8d,%esi
     1fd:	c7 44 24 ec 01 00 00 	movl   $0x1,-0x14(%rsp)
     204:	00 
     205:	41 bc 01 00 00 00    	mov    $0x1,%r12d
     20b:	41 bf 01 00 00 00    	mov    $0x1,%r15d
     211:	41 bd 01 00 00 00    	mov    $0x1,%r13d
     217:	e9 49 ff ff ff       	jmpq   165 <get_bb_from_scratch+0x165>
     21c:	0f 1f 40 00          	nopl   0x0(%rax)

0000000000000220 <update_bb>:
     220:	41 54                	push   %r12
     222:	44 8b 1d 00 00 00 00 	mov    0x0(%rip),%r11d        # 229 <update_bb+0x9>
     229:	b8 01 00 00 00       	mov    $0x1,%eax
     22e:	44 8b 15 00 00 00 00 	mov    0x0(%rip),%r10d        # 235 <update_bb+0x15>
     235:	4c 8b 25 00 00 00 00 	mov    0x0(%rip),%r12        # 23c <update_bb+0x1c>
     23c:	55                   	push   %rbp
     23d:	45 39 d9             	cmp    %r11d,%r9d
     240:	53                   	push   %rbx
     241:	8b 6c 24 20          	mov    0x20(%rsp),%ebp
     245:	45 0f 4f cb          	cmovg  %r11d,%r9d
     249:	45 85 c9             	test   %r9d,%r9d
     24c:	44 0f 4e c8          	cmovle %eax,%r9d
     250:	44 39 d5             	cmp    %r10d,%ebp
     253:	41 0f 4f ea          	cmovg  %r10d,%ebp
     257:	85 ed                	test   %ebp,%ebp
     259:	0f 4e e8             	cmovle %eax,%ebp
     25c:	44 39 d9             	cmp    %r11d,%ecx
     25f:	44 0f 4e d9          	cmovle %ecx,%r11d
     263:	45 85 db             	test   %r11d,%r11d
     266:	44 0f 4e d8          	cmovle %eax,%r11d
     26a:	45 39 d0             	cmp    %r10d,%r8d
     26d:	45 0f 4e d0          	cmovle %r8d,%r10d
     271:	45 85 d2             	test   %r10d,%r10d
     274:	44 0f 4e d0          	cmovle %eax,%r10d
     278:	45 39 d9             	cmp    %r11d,%r9d
     27b:	48 63 c7             	movslq %edi,%rax
     27e:	0f 8d 8c 00 00 00    	jge    310 <update_bb+0xf0>
     284:	48 c1 e0 04          	shl    $0x4,%rax
     288:	49 8d 1c 04          	lea    (%r12,%rax,1),%rbx
     28c:	8b 4b 04             	mov    0x4(%rbx),%ecx
     28f:	44 39 d9             	cmp    %r11d,%ecx
     292:	0f 84 70 01 00 00    	je     408 <update_bb+0x1e8>
     298:	89 4e 04             	mov    %ecx,0x4(%rsi)
     29b:	48 8b 0d 00 00 00 00 	mov    0x0(%rip),%rcx        # 2a2 <update_bb+0x82>
     2a2:	4c 8d 04 01          	lea    (%rcx,%rax,1),%r8
     2a6:	45 8b 58 04          	mov    0x4(%r8),%r11d
     2aa:	44 89 5a 04          	mov    %r11d,0x4(%rdx)
     2ae:	44 8b 1b             	mov    (%rbx),%r11d
     2b1:	45 39 d9             	cmp    %r11d,%r9d
     2b4:	0f 8d 36 01 00 00    	jge    3f0 <update_bb+0x1d0>
     2ba:	44 89 0e             	mov    %r9d,(%rsi)
     2bd:	c7 02 01 00 00 00    	movl   $0x1,(%rdx)
     2c3:	44 39 d5             	cmp    %r10d,%ebp
     2c6:	0f 8d 94 00 00 00    	jge    360 <update_bb+0x140>
     2cc:	44 8b 43 0c          	mov    0xc(%rbx),%r8d
     2d0:	45 39 d0             	cmp    %r10d,%r8d
     2d3:	0f 84 e7 01 00 00    	je     4c0 <update_bb+0x2a0>
     2d9:	44 89 46 0c          	mov    %r8d,0xc(%rsi)
     2dd:	8b 7c 01 0c          	mov    0xc(%rcx,%rax,1),%edi
     2e1:	89 7a 0c             	mov    %edi,0xc(%rdx)
     2e4:	41 8b 7c 04 08       	mov    0x8(%r12,%rax,1),%edi
     2e9:	39 fd                	cmp    %edi,%ebp
     2eb:	0f 8c bf 01 00 00    	jl     4b0 <update_bb+0x290>
     2f1:	0f 84 19 02 00 00    	je     510 <update_bb+0x2f0>
     2f7:	89 7e 08             	mov    %edi,0x8(%rsi)
     2fa:	8b 44 01 08          	mov    0x8(%rcx,%rax,1),%eax
     2fe:	89 42 08             	mov    %eax,0x8(%rdx)
     301:	5b                   	pop    %rbx
     302:	5d                   	pop    %rbp
     303:	41 5c                	pop    %r12
     305:	c3                   	retq   
     306:	66 2e 0f 1f 84 00 00 	nopw   %cs:0x0(%rax,%rax,1)
     30d:	00 00 00 
     310:	0f 8e 8a 00 00 00    	jle    3a0 <update_bb+0x180>
     316:	48 c1 e0 04          	shl    $0x4,%rax
     31a:	49 8d 1c 04          	lea    (%r12,%rax,1),%rbx
     31e:	8b 0b                	mov    (%rbx),%ecx
     320:	44 39 d9             	cmp    %r11d,%ecx
     323:	0f 84 17 01 00 00    	je     440 <update_bb+0x220>
     329:	89 0e                	mov    %ecx,(%rsi)
     32b:	48 8b 0d 00 00 00 00 	mov    0x0(%rip),%rcx        # 332 <update_bb+0x112>
     332:	44 8b 04 01          	mov    (%rcx,%rax,1),%r8d
     336:	44 89 02             	mov    %r8d,(%rdx)
     339:	44 8b 43 04          	mov    0x4(%rbx),%r8d
     33d:	45 39 c1             	cmp    %r8d,%r9d
     340:	0f 8e 9a 01 00 00    	jle    4e0 <update_bb+0x2c0>
     346:	44 39 d5             	cmp    %r10d,%ebp
     349:	44 89 4e 04          	mov    %r9d,0x4(%rsi)
     34d:	c7 42 04 01 00 00 00 	movl   $0x1,0x4(%rdx)
     354:	0f 8c 72 ff ff ff    	jl     2cc <update_bb+0xac>
     35a:	66 0f 1f 44 00 00    	nopw   0x0(%rax,%rax,1)
     360:	7e 6e                	jle    3d0 <update_bb+0x1b0>
     362:	44 8b 43 08          	mov    0x8(%rbx),%r8d
     366:	45 39 d0             	cmp    %r10d,%r8d
     369:	0f 84 01 01 00 00    	je     470 <update_bb+0x250>
     36f:	44 89 46 08          	mov    %r8d,0x8(%rsi)
     373:	8b 7c 01 08          	mov    0x8(%rcx,%rax,1),%edi
     377:	89 7a 08             	mov    %edi,0x8(%rdx)
     37a:	41 8b 7c 04 0c       	mov    0xc(%r12,%rax,1),%edi
     37f:	39 fd                	cmp    %edi,%ebp
     381:	0f 8f 71 01 00 00    	jg     4f8 <update_bb+0x2d8>
     387:	0f 84 9b 01 00 00    	je     528 <update_bb+0x308>
     38d:	89 7e 0c             	mov    %edi,0xc(%rsi)
     390:	8b 44 01 0c          	mov    0xc(%rcx,%rax,1),%eax
     394:	5b                   	pop    %rbx
     395:	5d                   	pop    %rbp
     396:	89 42 0c             	mov    %eax,0xc(%rdx)
     399:	41 5c                	pop    %r12
     39b:	c3                   	retq   
     39c:	0f 1f 40 00          	nopl   0x0(%rax)
     3a0:	48 c1 e0 04          	shl    $0x4,%rax
     3a4:	49 8d 1c 04          	lea    (%r12,%rax,1),%rbx
     3a8:	8b 0b                	mov    (%rbx),%ecx
     3aa:	89 0e                	mov    %ecx,(%rsi)
     3ac:	8b 4b 04             	mov    0x4(%rbx),%ecx
     3af:	89 4e 04             	mov    %ecx,0x4(%rsi)
     3b2:	48 8b 0d 00 00 00 00 	mov    0x0(%rip),%rcx        # 3b9 <update_bb+0x199>
     3b9:	4c 8d 04 01          	lea    (%rcx,%rax,1),%r8
     3bd:	45 8b 08             	mov    (%r8),%r9d
     3c0:	45 8b 40 04          	mov    0x4(%r8),%r8d
     3c4:	44 89 0a             	mov    %r9d,(%rdx)
     3c7:	44 89 42 04          	mov    %r8d,0x4(%rdx)
     3cb:	e9 f3 fe ff ff       	jmpq   2c3 <update_bb+0xa3>
     3d0:	8b 7b 08             	mov    0x8(%rbx),%edi
     3d3:	48 01 c8             	add    %rcx,%rax
     3d6:	89 7e 08             	mov    %edi,0x8(%rsi)
     3d9:	8b 7b 0c             	mov    0xc(%rbx),%edi
     3dc:	8b 48 08             	mov    0x8(%rax),%ecx
     3df:	5b                   	pop    %rbx
     3e0:	89 7e 0c             	mov    %edi,0xc(%rsi)
     3e3:	8b 40 0c             	mov    0xc(%rax),%eax
     3e6:	5d                   	pop    %rbp
     3e7:	89 4a 08             	mov    %ecx,0x8(%rdx)
     3ea:	89 42 0c             	mov    %eax,0xc(%rdx)
     3ed:	41 5c                	pop    %r12
     3ef:	c3                   	retq   
     3f0:	0f 84 a2 00 00 00    	je     498 <update_bb+0x278>
     3f6:	44 89 1e             	mov    %r11d,(%rsi)
     3f9:	45 8b 00             	mov    (%r8),%r8d
     3fc:	44 89 02             	mov    %r8d,(%rdx)
     3ff:	e9 bf fe ff ff       	jmpq   2c3 <update_bb+0xa3>
     404:	0f 1f 40 00          	nopl   0x0(%rax)
     408:	48 8b 0d 00 00 00 00 	mov    0x0(%rip),%rcx        # 40f <update_bb+0x1ef>
     40f:	4c 8d 04 01          	lea    (%rcx,%rax,1),%r8
     413:	45 8b 58 04          	mov    0x4(%r8),%r11d
     417:	41 83 fb 01          	cmp    $0x1,%r11d
     41b:	0f 84 1f 01 00 00    	je     540 <update_bb+0x320>
     421:	41 83 eb 01          	sub    $0x1,%r11d
     425:	44 89 5a 04          	mov    %r11d,0x4(%rdx)
     429:	44 8b 5b 04          	mov    0x4(%rbx),%r11d
     42d:	44 89 5e 04          	mov    %r11d,0x4(%rsi)
     431:	e9 78 fe ff ff       	jmpq   2ae <update_bb+0x8e>
     436:	66 2e 0f 1f 84 00 00 	nopw   %cs:0x0(%rax,%rax,1)
     43d:	00 00 00 
     440:	48 8b 0d 00 00 00 00 	mov    0x0(%rip),%rcx        # 447 <update_bb+0x227>
     447:	44 8b 04 01          	mov    (%rcx,%rax,1),%r8d
     44b:	41 83 f8 01          	cmp    $0x1,%r8d
     44f:	0f 84 eb 00 00 00    	je     540 <update_bb+0x320>
     455:	41 83 e8 01          	sub    $0x1,%r8d
     459:	44 89 02             	mov    %r8d,(%rdx)
     45c:	44 8b 03             	mov    (%rbx),%r8d
     45f:	44 89 06             	mov    %r8d,(%rsi)
     462:	e9 d2 fe ff ff       	jmpq   339 <update_bb+0x119>
     467:	66 0f 1f 84 00 00 00 	nopw   0x0(%rax,%rax,1)
     46e:	00 00 
     470:	44 8b 44 01 08       	mov    0x8(%rcx,%rax,1),%r8d
     475:	41 83 f8 01          	cmp    $0x1,%r8d
     479:	0f 84 c1 00 00 00    	je     540 <update_bb+0x320>
     47f:	41 83 e8 01          	sub    $0x1,%r8d
     483:	44 89 42 08          	mov    %r8d,0x8(%rdx)
     487:	8b 7b 08             	mov    0x8(%rbx),%edi
     48a:	89 7e 08             	mov    %edi,0x8(%rsi)
     48d:	e9 e8 fe ff ff       	jmpq   37a <update_bb+0x15a>
     492:	66 0f 1f 44 00 00    	nopw   0x0(%rax,%rax,1)
     498:	44 89 0e             	mov    %r9d,(%rsi)
     49b:	45 8b 00             	mov    (%r8),%r8d
     49e:	41 83 c0 01          	add    $0x1,%r8d
     4a2:	44 89 02             	mov    %r8d,(%rdx)
     4a5:	e9 19 fe ff ff       	jmpq   2c3 <update_bb+0xa3>
     4aa:	66 0f 1f 44 00 00    	nopw   0x0(%rax,%rax,1)
     4b0:	5b                   	pop    %rbx
     4b1:	89 6e 08             	mov    %ebp,0x8(%rsi)
     4b4:	c7 42 08 01 00 00 00 	movl   $0x1,0x8(%rdx)
     4bb:	5d                   	pop    %rbp
     4bc:	41 5c                	pop    %r12
     4be:	c3                   	retq   
     4bf:	90                   	nop
     4c0:	44 8b 44 01 0c       	mov    0xc(%rcx,%rax,1),%r8d
     4c5:	41 83 f8 01          	cmp    $0x1,%r8d
     4c9:	74 75                	je     540 <update_bb+0x320>
     4cb:	41 83 e8 01          	sub    $0x1,%r8d
     4cf:	44 89 42 0c          	mov    %r8d,0xc(%rdx)
     4d3:	8b 7b 0c             	mov    0xc(%rbx),%edi
     4d6:	89 7e 0c             	mov    %edi,0xc(%rsi)
     4d9:	e9 06 fe ff ff       	jmpq   2e4 <update_bb+0xc4>
     4de:	66 90                	xchg   %ax,%ax
     4e0:	74 6e                	je     550 <update_bb+0x330>
     4e2:	44 89 46 04          	mov    %r8d,0x4(%rsi)
     4e6:	44 8b 44 01 04       	mov    0x4(%rcx,%rax,1),%r8d
     4eb:	44 89 42 04          	mov    %r8d,0x4(%rdx)
     4ef:	e9 cf fd ff ff       	jmpq   2c3 <update_bb+0xa3>
     4f4:	0f 1f 40 00          	nopl   0x0(%rax)
     4f8:	89 6e 0c             	mov    %ebp,0xc(%rsi)
     4fb:	c7 42 0c 01 00 00 00 	movl   $0x1,0xc(%rdx)
     502:	e9 fa fd ff ff       	jmpq   301 <update_bb+0xe1>
     507:	66 0f 1f 84 00 00 00 	nopw   0x0(%rax,%rax,1)
     50e:	00 00 
     510:	89 6e 08             	mov    %ebp,0x8(%rsi)
     513:	8b 44 01 08          	mov    0x8(%rcx,%rax,1),%eax
     517:	83 c0 01             	add    $0x1,%eax
     51a:	89 42 08             	mov    %eax,0x8(%rdx)
     51d:	e9 df fd ff ff       	jmpq   301 <update_bb+0xe1>
     522:	66 0f 1f 44 00 00    	nopw   0x0(%rax,%rax,1)
     528:	89 6e 0c             	mov    %ebp,0xc(%rsi)
     52b:	8b 44 01 0c          	mov    0xc(%rcx,%rax,1),%eax
     52f:	83 c0 01             	add    $0x1,%eax
     532:	89 42 0c             	mov    %eax,0xc(%rdx)
     535:	e9 c7 fd ff ff       	jmpq   301 <update_bb+0xe1>
     53a:	66 0f 1f 44 00 00    	nopw   0x0(%rax,%rax,1)
     540:	5b                   	pop    %rbx
     541:	5d                   	pop    %rbp
     542:	41 5c                	pop    %r12
     544:	e9 b7 fa ff ff       	jmpq   0 <get_bb_from_scratch>
     549:	0f 1f 80 00 00 00 00 	nopl   0x0(%rax)
     550:	44 89 4e 04          	mov    %r9d,0x4(%rsi)
     554:	44 8b 44 01 04       	mov    0x4(%rcx,%rax,1),%r8d
     559:	41 83 c0 01          	add    $0x1,%r8d
     55d:	44 89 42 04          	mov    %r8d,0x4(%rdx)
     561:	e9 5d fd ff ff       	jmpq   2c3 <update_bb+0xa3>
     566:	66 2e 0f 1f 84 00 00 	nopw   %cs:0x0(%rax,%rax,1)
     56d:	00 00 00 

0000000000000570 <comp_td_point_to_point_delay>:
     570:	48 63 ff             	movslq %edi,%rdi
     573:	48 83 ec 08          	sub    $0x8,%rsp
     577:	48 63 f6             	movslq %esi,%rsi
     57a:	48 8d 04 bf          	lea    (%rdi,%rdi,4),%rax
     57e:	48 8b 3d 00 00 00 00 	mov    0x0(%rip),%rdi        # 585 <comp_td_point_to_point_delay+0x15>
     585:	48 8d 04 c7          	lea    (%rdi,%rax,8),%rax
     589:	48 8b 48 10          	mov    0x10(%rax),%rcx
     58d:	48 8b 05 00 00 00 00 	mov    0x0(%rip),%rax        # 594 <comp_td_point_to_point_delay+0x24>
     594:	48 63 11             	movslq (%rcx),%rdx
     597:	48 63 0c b1          	movslq (%rcx,%rsi,4),%rcx
     59b:	48 8d 14 92          	lea    (%rdx,%rdx,4),%rdx
     59f:	48 8d 0c 89          	lea    (%rcx,%rcx,4),%rcx
     5a3:	48 8d 14 d0          	lea    (%rax,%rdx,8),%rdx
     5a7:	48 8d 0c c8          	lea    (%rax,%rcx,8),%rcx
     5ab:	48 8b 7a 08          	mov    0x8(%rdx),%rdi
     5af:	4c 8b 41 08          	mov    0x8(%rcx),%r8
     5b3:	48 85 ff             	test   %rdi,%rdi
     5b6:	0f 84 c2 00 00 00    	je     67e <comp_td_point_to_point_delay+0x10e>
     5bc:	4d 85 c0             	test   %r8,%r8
     5bf:	0f 84 d2 00 00 00    	je     697 <comp_td_point_to_point_delay+0x127>
     5c5:	8b 41 18             	mov    0x18(%rcx),%eax
     5c8:	2b 42 18             	sub    0x18(%rdx),%eax
     5cb:	41 89 c1             	mov    %eax,%r9d
     5ce:	41 c1 f9 1f          	sar    $0x1f,%r9d
     5d2:	44 89 ce             	mov    %r9d,%esi
     5d5:	31 c6                	xor    %eax,%esi
     5d7:	8b 41 1c             	mov    0x1c(%rcx),%eax
     5da:	2b 42 1c             	sub    0x1c(%rdx),%eax
     5dd:	44 29 ce             	sub    %r9d,%esi
     5e0:	48 63 f6             	movslq %esi,%rsi
     5e3:	89 c1                	mov    %eax,%ecx
     5e5:	c1 f9 1f             	sar    $0x1f,%ecx
     5e8:	89 ca                	mov    %ecx,%edx
     5ea:	31 c2                	xor    %eax,%edx
     5ec:	48 8b 05 00 00 00 00 	mov    0x0(%rip),%rax        # 5f3 <comp_td_point_to_point_delay+0x83>
     5f3:	29 ca                	sub    %ecx,%edx
     5f5:	48 63 d2             	movslq %edx,%rdx
     5f8:	48 39 c7             	cmp    %rax,%rdi
     5fb:	74 2b                	je     628 <comp_td_point_to_point_delay+0xb8>
     5fd:	49 39 c0             	cmp    %rax,%r8
     600:	74 3e                	je     640 <comp_td_point_to_point_delay+0xd0>
     602:	48 8b 0d 00 00 00 00 	mov    0x0(%rip),%rcx        # 609 <comp_td_point_to_point_delay+0x99>
     609:	48 8b 0c f1          	mov    (%rcx,%rsi,8),%rcx
     60d:	f3 0f 10 04 91       	movss  (%rcx,%rdx,4),%xmm0
     612:	0f 57 c9             	xorps  %xmm1,%xmm1
     615:	0f 2e c8             	ucomiss %xmm0,%xmm1
     618:	77 50                	ja     66a <comp_td_point_to_point_delay+0xfa>
     61a:	0f 87 90 00 00 00    	ja     6b0 <comp_td_point_to_point_delay+0x140>
     620:	48 83 c4 08          	add    $0x8,%rsp
     624:	c3                   	retq   
     625:	0f 1f 00             	nopl   (%rax)
     628:	4c 39 c7             	cmp    %r8,%rdi
     62b:	74 2b                	je     658 <comp_td_point_to_point_delay+0xe8>
     62d:	48 8b 0d 00 00 00 00 	mov    0x0(%rip),%rcx        # 634 <comp_td_point_to_point_delay+0xc4>
     634:	48 8b 0c f1          	mov    (%rcx,%rsi,8),%rcx
     638:	f3 0f 10 04 91       	movss  (%rcx,%rdx,4),%xmm0
     63d:	eb d3                	jmp    612 <comp_td_point_to_point_delay+0xa2>
     63f:	90                   	nop
     640:	48 8b 0d 00 00 00 00 	mov    0x0(%rip),%rcx        # 647 <comp_td_point_to_point_delay+0xd7>
     647:	48 8b 0c f1          	mov    (%rcx,%rsi,8),%rcx
     64b:	f3 0f 10 04 91       	movss  (%rcx,%rdx,4),%xmm0
     650:	eb c0                	jmp    612 <comp_td_point_to_point_delay+0xa2>
     652:	66 0f 1f 44 00 00    	nopw   0x0(%rax,%rax,1)
     658:	48 8b 0d 00 00 00 00 	mov    0x0(%rip),%rcx        # 65f <comp_td_point_to_point_delay+0xef>
     65f:	48 8b 0c f1          	mov    (%rcx,%rsi,8),%rcx
     663:	f3 0f 10 04 91       	movss  (%rcx,%rdx,4),%xmm0
     668:	eb a8                	jmp    612 <comp_td_point_to_point_delay+0xa2>
     66a:	bf 00 00 00 00       	mov    $0x0,%edi
     66f:	e8 00 00 00 00       	callq  674 <comp_td_point_to_point_delay+0x104>
     674:	bf 01 00 00 00       	mov    $0x1,%edi
     679:	e8 00 00 00 00       	callq  67e <comp_td_point_to_point_delay+0x10e>
     67e:	b9 00 00 00 00       	mov    $0x0,%ecx
     683:	ba c0 07 00 00       	mov    $0x7c0,%edx
     688:	be 00 00 00 00       	mov    $0x0,%esi
     68d:	bf 00 00 00 00       	mov    $0x0,%edi
     692:	e8 00 00 00 00       	callq  697 <comp_td_point_to_point_delay+0x127>
     697:	b9 00 00 00 00       	mov    $0x0,%ecx
     69c:	ba c1 07 00 00       	mov    $0x7c1,%edx
     6a1:	be 00 00 00 00       	mov    $0x0,%esi
     6a6:	bf 00 00 00 00       	mov    $0x0,%edi
     6ab:	e8 00 00 00 00       	callq  6b0 <comp_td_point_to_point_delay+0x140>
     6b0:	bf 00 00 00 00       	mov    $0x0,%edi
     6b5:	e8 00 00 00 00       	callq  6ba <comp_td_point_to_point_delay+0x14a>
     6ba:	bf 01 00 00 00       	mov    $0x1,%edi
     6bf:	e8 00 00 00 00       	callq  6c4 <comp_td_point_to_point_delay+0x154>
     6c4:	66 66 66 2e 0f 1f 84 	data32 data32 nopw %cs:0x0(%rax,%rax,1)
     6cb:	00 00 00 00 00 

00000000000006d0 <comp_td_costs>:
     6d0:	41 57                	push   %r15
     6d2:	41 56                	push   %r14
     6d4:	41 55                	push   %r13
     6d6:	41 54                	push   %r12
     6d8:	55                   	push   %rbp
     6d9:	53                   	push   %rbx
     6da:	48 83 ec 38          	sub    $0x38,%rsp
     6de:	8b 15 00 00 00 00    	mov    0x0(%rip),%edx        # 6e4 <comp_td_costs+0x14>
     6e4:	48 89 7c 24 20       	mov    %rdi,0x20(%rsp)
     6e9:	48 89 74 24 28       	mov    %rsi,0x28(%rsp)
     6ee:	85 d2                	test   %edx,%edx
     6f0:	0f 8e 29 01 00 00    	jle    81f <comp_td_costs+0x14f>
     6f6:	0f 57 d2             	xorps  %xmm2,%xmm2
     6f9:	48 8b 0d 00 00 00 00 	mov    0x0(%rip),%rcx        # 700 <comp_td_costs+0x30>
     700:	45 31 e4             	xor    %r12d,%r12d
     703:	f3 0f 11 54 24 1c    	movss  %xmm2,0x1c(%rsp)
     709:	0f 1f 80 00 00 00 00 	nopl   0x0(%rax)
     710:	4b 8d 2c a4          	lea    (%r12,%r12,4),%rbp
     714:	45 89 e5             	mov    %r12d,%r13d
     717:	48 c1 e5 03          	shl    $0x3,%rbp
     71b:	48 8d 04 29          	lea    (%rcx,%rbp,1),%rax
     71f:	44 8b 48 20          	mov    0x20(%rax),%r9d
     723:	45 85 c9             	test   %r9d,%r9d
     726:	0f 85 bb 00 00 00    	jne    7e7 <comp_td_costs+0x117>
     72c:	44 8b 40 08          	mov    0x8(%rax),%r8d
     730:	45 85 c0             	test   %r8d,%r8d
     733:	0f 8e ae 00 00 00    	jle    7e7 <comp_td_costs+0x117>
     739:	4e 8d 34 e5 00 00 00 	lea    0x0(,%r12,8),%r14
     740:	00 
     741:	31 db                	xor    %ebx,%ebx
     743:	0f 1f 44 00 00       	nopl   0x0(%rax,%rax,1)
     748:	8d 73 01             	lea    0x1(%rbx),%esi
     74b:	44 89 ef             	mov    %r13d,%edi
     74e:	f3 0f 11 14 24       	movss  %xmm2,(%rsp)
     753:	41 89 df             	mov    %ebx,%r15d
     756:	48 83 c3 01          	add    $0x1,%rbx
     75a:	e8 11 fe ff ff       	callq  570 <comp_td_point_to_point_delay>
     75f:	48 8b 0d 00 00 00 00 	mov    0x0(%rip),%rcx        # 766 <comp_td_costs+0x96>
     766:	f3 0f 10 14 24       	movss  (%rsp),%xmm2
     76b:	41 8d 57 02          	lea    0x2(%r15),%edx
     76f:	f3 0f 58 d0          	addss  %xmm0,%xmm2
     773:	4a 8b 0c 31          	mov    (%rcx,%r14,1),%rcx
     777:	f3 0f 10 0c 99       	movss  (%rcx,%rbx,4),%xmm1
     77c:	48 8b 0d 00 00 00 00 	mov    0x0(%rip),%rcx        # 783 <comp_td_costs+0xb3>
     783:	f3 0f 59 c8          	mulss  %xmm0,%xmm1
     787:	4a 8b 0c 31          	mov    (%rcx,%r14,1),%rcx
     78b:	f3 0f 11 04 99       	movss  %xmm0,(%rcx,%rbx,4)
     790:	48 8b 0d 00 00 00 00 	mov    0x0(%rip),%rcx        # 797 <comp_td_costs+0xc7>
     797:	4a 8b 0c 31          	mov    (%rcx,%r14,1),%rcx
     79b:	c7 04 99 00 00 80 bf 	movl   $0xbf800000,(%rcx,%rbx,4)
     7a2:	48 8b 0d 00 00 00 00 	mov    0x0(%rip),%rcx        # 7a9 <comp_td_costs+0xd9>
     7a9:	4a 8b 0c 31          	mov    (%rcx,%r14,1),%rcx
     7ad:	f3 0f 11 0c 99       	movss  %xmm1,(%rcx,%rbx,4)
     7b2:	48 8b 0d 00 00 00 00 	mov    0x0(%rip),%rcx        # 7b9 <comp_td_costs+0xe9>
     7b9:	f3 0f 58 4c 24 1c    	addss  0x1c(%rsp),%xmm1
     7bf:	4a 8b 0c 31          	mov    (%rcx,%r14,1),%rcx
     7c3:	c7 04 99 00 00 80 bf 	movl   $0xbf800000,(%rcx,%rbx,4)
     7ca:	48 8b 0d 00 00 00 00 	mov    0x0(%rip),%rcx        # 7d1 <comp_td_costs+0x101>
     7d1:	f3 0f 11 4c 24 1c    	movss  %xmm1,0x1c(%rsp)
     7d7:	39 54 29 08          	cmp    %edx,0x8(%rcx,%rbp,1)
     7db:	0f 8d 67 ff ff ff    	jge    748 <comp_td_costs+0x78>
     7e1:	8b 15 00 00 00 00    	mov    0x0(%rip),%edx        # 7e7 <comp_td_costs+0x117>
     7e7:	41 8d 44 24 01       	lea    0x1(%r12),%eax
     7ec:	49 83 c4 01          	add    $0x1,%r12
     7f0:	39 c2                	cmp    %eax,%edx
     7f2:	0f 8f 18 ff ff ff    	jg     710 <comp_td_costs+0x40>
     7f8:	f3 0f 10 44 24 1c    	movss  0x1c(%rsp),%xmm0
     7fe:	48 8b 44 24 20       	mov    0x20(%rsp),%rax
     803:	f3 0f 11 00          	movss  %xmm0,(%rax)
     807:	48 8b 44 24 28       	mov    0x28(%rsp),%rax
     80c:	f3 0f 11 10          	movss  %xmm2,(%rax)
     810:	48 83 c4 38          	add    $0x38,%rsp
     814:	5b                   	pop    %rbx
     815:	5d                   	pop    %rbp
     816:	41 5c                	pop    %r12
     818:	41 5d                	pop    %r13
     81a:	41 5e                	pop    %r14
     81c:	41 5f                	pop    %r15
     81e:	c3                   	retq   
     81f:	0f 57 d2             	xorps  %xmm2,%xmm2
     822:	f3 0f 11 54 24 1c    	movss  %xmm2,0x1c(%rsp)
     828:	0f 28 c2             	movaps %xmm2,%xmm0
     82b:	eb d1                	jmp    7fe <comp_td_costs+0x12e>
     82d:	0f 1f 00             	nopl   (%rax)

0000000000000830 <update_region_occ.constprop.5>:
     830:	41 57                	push   %r15
     832:	48 63 c7             	movslq %edi,%rax
     835:	48 8d 04 80          	lea    (%rax,%rax,4),%rax
     839:	41 56                	push   %r14
     83b:	41 55                	push   %r13
     83d:	41 54                	push   %r12
     83f:	55                   	push   %rbp
     840:	53                   	push   %rbx
     841:	48 81 ec 98 00 00 00 	sub    $0x98,%rsp
     848:	4c 8b 15 00 00 00 00 	mov    0x0(%rip),%r10        # 84f <update_region_occ.constprop.5+0x1f>
     84f:	89 7c 24 70          	mov    %edi,0x70(%rsp)
     853:	49 8d 04 c2          	lea    (%r10,%rax,8),%rax
     857:	48 63 40 08          	movslq 0x8(%rax),%rax
     85b:	83 f8 31             	cmp    $0x31,%eax
     85e:	0f 8e ac 03 00 00    	jle    c10 <update_region_occ.constprop.5+0x3e0>
     864:	83 e8 31             	sub    $0x31,%eax
     867:	f2 0f 2a e8          	cvtsi2sd %eax,%xmm5
     86b:	f2 0f 59 2d 00 00 00 	mulsd  0x0(%rip),%xmm5        # 873 <update_region_occ.constprop.5+0x43>
     872:	00 
     873:	f2 0f 58 2d 00 00 00 	addsd  0x0(%rip),%xmm5        # 87b <update_region_occ.constprop.5+0x4b>
     87a:	00 
     87b:	66 0f 14 ed          	unpcklpd %xmm5,%xmm5
     87f:	66 0f 5a ed          	cvtpd2ps %xmm5,%xmm5
     883:	f2 0f 10 05 00 00 00 	movsd  0x0(%rip),%xmm0        # 88b <update_region_occ.constprop.5+0x5b>
     88a:	00 
     88b:	f2 0f 2a 0e          	cvtsi2sdl (%rsi),%xmm1
     88f:	f3 0f 2a 15 00 00 00 	cvtsi2ssl 0x0(%rip),%xmm2        # 897 <update_region_occ.constprop.5+0x67>
     896:	00 
     897:	f2 0f 5c c8          	subsd  %xmm0,%xmm1
     89b:	66 0f 14 c9          	unpcklpd %xmm1,%xmm1
     89f:	66 0f 5a c9          	cvtpd2ps %xmm1,%xmm1
     8a3:	f3 0f 11 4c 24 50    	movss  %xmm1,0x50(%rsp)
     8a9:	f2 0f 2a 4e 04       	cvtsi2sdl 0x4(%rsi),%xmm1
     8ae:	f2 0f 58 c8          	addsd  %xmm0,%xmm1
     8b2:	66 0f 14 c9          	unpcklpd %xmm1,%xmm1
     8b6:	66 0f 5a c9          	cvtpd2ps %xmm1,%xmm1
     8ba:	f3 0f 11 4c 24 54    	movss  %xmm1,0x54(%rsp)
     8c0:	f2 0f 2a 4e 08       	cvtsi2sdl 0x8(%rsi),%xmm1
     8c5:	f2 0f 5c c8          	subsd  %xmm0,%xmm1
     8c9:	66 0f 14 c9          	unpcklpd %xmm1,%xmm1
     8cd:	66 0f 5a c9          	cvtpd2ps %xmm1,%xmm1
     8d1:	f3 0f 11 4c 24 58    	movss  %xmm1,0x58(%rsp)
     8d7:	f2 0f 2a 4e 0c       	cvtsi2sdl 0xc(%rsi),%xmm1
     8dc:	f2 0f 58 c8          	addsd  %xmm0,%xmm1
     8e0:	66 0f 14 c9          	unpcklpd %xmm1,%xmm1
     8e4:	66 0f 5a c9          	cvtpd2ps %xmm1,%xmm1
     8e8:	f3 0f 11 4c 24 5c    	movss  %xmm1,0x5c(%rsp)
     8ee:	f3 0f 2a ca          	cvtsi2ss %edx,%xmm1
     8f2:	0f 28 d9             	movaps %xmm1,%xmm3
     8f5:	f3 0f 5e da          	divss  %xmm2,%xmm3
     8f9:	f3 0f 2a 15 00 00 00 	cvtsi2ssl 0x0(%rip),%xmm2        # 901 <update_region_occ.constprop.5+0xd1>
     900:	00 
     901:	f3 0f 5e ca          	divss  %xmm2,%xmm1
     905:	f3 0f 11 5c 24 60    	movss  %xmm3,0x60(%rsp)
     90b:	f3 0f 11 4c 24 64    	movss  %xmm1,0x64(%rsp)
     911:	f3 0f 10 4c 24 50    	movss  0x50(%rsp),%xmm1
     917:	0f 5a c9             	cvtps2pd %xmm1,%xmm1
     91a:	f2 0f 5c c8          	subsd  %xmm0,%xmm1
     91e:	f2 0f 2c c1          	cvttsd2si %xmm1,%eax
     922:	f3 0f 2a c8          	cvtsi2ss %eax,%xmm1
     926:	f3 0f 59 cb          	mulss  %xmm3,%xmm1
     92a:	f3 0f 2c c9          	cvttss2si %xmm1,%ecx
     92e:	f3 0f 10 4c 24 54    	movss  0x54(%rsp),%xmm1
     934:	0f 5a c9             	cvtps2pd %xmm1,%xmm1
     937:	f2 0f 5c c8          	subsd  %xmm0,%xmm1
     93b:	f2 0f 2c c1          	cvttsd2si %xmm1,%eax
     93f:	89 4c 24 74          	mov    %ecx,0x74(%rsp)
     943:	f3 0f 2a c8          	cvtsi2ss %eax,%xmm1
     947:	8d 42 ff             	lea    -0x1(%rdx),%eax
     94a:	f3 0f 59 cb          	mulss  %xmm3,%xmm1
     94e:	f3 0f 2c c9          	cvttss2si %xmm1,%ecx
     952:	f3 0f 10 4c 24 58    	movss  0x58(%rsp),%xmm1
     958:	0f 5a c9             	cvtps2pd %xmm1,%xmm1
     95b:	f2 0f 5c c8          	subsd  %xmm0,%xmm1
     95f:	39 ca                	cmp    %ecx,%edx
     961:	0f 4e c8             	cmovle %eax,%ecx
     964:	89 4c 24 7c          	mov    %ecx,0x7c(%rsp)
     968:	f2 0f 2c c9          	cvttsd2si %xmm1,%ecx
     96c:	f3 0f 2a c9          	cvtsi2ss %ecx,%xmm1
     970:	f3 0f 59 4c 24 64    	mulss  0x64(%rsp),%xmm1
     976:	f3 0f 2c c9          	cvttss2si %xmm1,%ecx
     97a:	f3 0f 10 4c 24 5c    	movss  0x5c(%rsp),%xmm1
     980:	0f 5a c9             	cvtps2pd %xmm1,%xmm1
     983:	f2 0f 5c c8          	subsd  %xmm0,%xmm1
     987:	89 4c 24 78          	mov    %ecx,0x78(%rsp)
     98b:	f2 0f 2c c9          	cvttsd2si %xmm1,%ecx
     98f:	f3 0f 10 4c 24 54    	movss  0x54(%rsp),%xmm1
     995:	f3 0f 5c 4c 24 50    	subss  0x50(%rsp),%xmm1
     99b:	f3 0f 2a c1          	cvtsi2ss %ecx,%xmm0
     99f:	f3 0f 59 44 24 64    	mulss  0x64(%rsp),%xmm0
     9a5:	f3 0f 2c c8          	cvttss2si %xmm0,%ecx
     9a9:	f3 0f 10 05 00 00 00 	movss  0x0(%rip),%xmm0        # 9b1 <update_region_occ.constprop.5+0x181>
     9b0:	00 
     9b1:	0f 28 d0             	movaps %xmm0,%xmm2
     9b4:	f3 0f 5e d1          	divss  %xmm1,%xmm2
     9b8:	f3 0f 10 4c 24 5c    	movss  0x5c(%rsp),%xmm1
     9be:	f3 0f 5c 4c 24 58    	subss  0x58(%rsp),%xmm1
     9c4:	39 ca                	cmp    %ecx,%edx
     9c6:	8b 54 24 7c          	mov    0x7c(%rsp),%edx
     9ca:	0f 4f c1             	cmovg  %ecx,%eax
     9cd:	39 54 24 74          	cmp    %edx,0x74(%rsp)
     9d1:	89 44 24 4c          	mov    %eax,0x4c(%rsp)
     9d5:	f3 0f 5e c1          	divss  %xmm1,%xmm0
     9d9:	f3 0f 11 54 24 68    	movss  %xmm2,0x68(%rsp)
     9df:	f3 0f 11 44 24 6c    	movss  %xmm0,0x6c(%rsp)
     9e5:	0f 8f 13 02 00 00    	jg     bfe <update_region_occ.constprop.5+0x3ce>
     9eb:	48 63 44 24 74       	movslq 0x74(%rsp),%rax
     9f0:	f2 0f 10 25 00 00 00 	movsd  0x0(%rip),%xmm4        # 9f8 <update_region_occ.constprop.5+0x1c8>
     9f7:	00 
     9f8:	4c 8d 34 c5 00 00 00 	lea    0x0(,%rax,8),%r14
     9ff:	00 
     a00:	4c 8d 3c 85 04 00 00 	lea    0x4(,%rax,4),%r15
     a07:	00 
     a08:	48 63 44 24 78       	movslq 0x78(%rsp),%rax
     a0d:	48 89 c1             	mov    %rax,%rcx
     a10:	48 8d 04 85 04 00 00 	lea    0x4(,%rax,4),%rax
     a17:	00 
     a18:	48 c1 e1 04          	shl    $0x4,%rcx
     a1c:	48 89 84 24 88 00 00 	mov    %rax,0x88(%rsp)
     a23:	00 
     a24:	4c 89 f8             	mov    %r15,%rax
     a27:	48 89 8c 24 80 00 00 	mov    %rcx,0x80(%rsp)
     a2e:	00 
     a2f:	4d 89 f7             	mov    %r14,%r15
     a32:	49 89 c6             	mov    %rax,%r14
     a35:	0f 1f 00             	nopl   (%rax)
     a38:	8b 4c 24 4c          	mov    0x4c(%rsp),%ecx
     a3c:	39 4c 24 78          	cmp    %ecx,0x78(%rsp)
     a40:	0f 8f 9d 01 00 00    	jg     be3 <update_region_occ.constprop.5+0x3b3>
     a46:	49 8d 6e fc          	lea    -0x4(%r14),%rbp
     a4a:	48 8b 9c 24 88 00 00 	mov    0x88(%rsp),%rbx
     a51:	00 
     a52:	4c 8b a4 24 80 00 00 	mov    0x80(%rsp),%r12
     a59:	00 
     a5a:	44 8b 6c 24 78       	mov    0x78(%rsp),%r13d
     a5f:	48 89 e8             	mov    %rbp,%rax
     a62:	4c 89 f5             	mov    %r14,%rbp
     a65:	49 89 c6             	mov    %rax,%r14
     a68:	e9 88 00 00 00       	jmpq   af5 <update_region_occ.constprop.5+0x2c5>
     a6d:	0f 1f 00             	nopl   (%rax)
     a70:	0f 14 d2             	unpcklps %xmm2,%xmm2
     a73:	0f 5a c2             	cvtps2pd %xmm2,%xmm0
     a76:	66 0f 2e e0          	ucomisd %xmm0,%xmm4
     a7a:	0f 87 1a 01 00 00    	ja     b9a <update_region_occ.constprop.5+0x36a>
     a80:	0f 28 ca             	movaps %xmm2,%xmm1
     a83:	48 8b 05 00 00 00 00 	mov    0x0(%rip),%rax        # a8a <update_region_occ.constprop.5+0x25a>
     a8a:	0f 28 c3             	movaps %xmm3,%xmm0
     a8d:	41 83 c5 01          	add    $0x1,%r13d
     a91:	f3 0f 59 cd          	mulss  %xmm5,%xmm1
     a95:	48 83 c3 04          	add    $0x4,%rbx
     a99:	f3 0f 59 c5          	mulss  %xmm5,%xmm0
     a9d:	4a 8b 04 38          	mov    (%rax,%r15,1),%rax
     aa1:	f3 0f 59 cb          	mulss  %xmm3,%xmm1
     aa5:	4c 01 e0             	add    %r12,%rax
     aa8:	f3 0f 59 c2          	mulss  %xmm2,%xmm0
     aac:	f3 0f 59 4c 24 6c    	mulss  0x6c(%rsp),%xmm1
     ab2:	f3 0f 59 44 24 68    	mulss  0x68(%rsp),%xmm0
     ab8:	f3 0f 59 4c 24 60    	mulss  0x60(%rsp),%xmm1
     abe:	f3 0f 59 44 24 64    	mulss  0x64(%rsp),%xmm0
     ac4:	f3 0f 58 48 08       	addss  0x8(%rax),%xmm1
     ac9:	f3 0f 11 48 08       	movss  %xmm1,0x8(%rax)
     ace:	48 8b 05 00 00 00 00 	mov    0x0(%rip),%rax        # ad5 <update_region_occ.constprop.5+0x2a5>
     ad5:	4a 8b 04 38          	mov    (%rax,%r15,1),%rax
     ad9:	4c 01 e0             	add    %r12,%rax
     adc:	49 83 c4 10          	add    $0x10,%r12
     ae0:	44 3b 6c 24 4c       	cmp    0x4c(%rsp),%r13d
     ae5:	f3 0f 58 40 08       	addss  0x8(%rax),%xmm0
     aea:	f3 0f 11 40 08       	movss  %xmm0,0x8(%rax)
     aef:	0f 8f eb 00 00 00    	jg     be0 <update_region_occ.constprop.5+0x3b0>
     af5:	48 8b 05 00 00 00 00 	mov    0x0(%rip),%rax        # afc <update_region_occ.constprop.5+0x2cc>
     afc:	f3 0f 10 5c 24 54    	movss  0x54(%rsp),%xmm3
     b02:	f3 0f 10 54 24 5c    	movss  0x5c(%rsp),%xmm2
     b08:	f3 42 0f 10 0c 30    	movss  (%rax,%r14,1),%xmm1
     b0e:	f3 0f 5d 1c 28       	minss  (%rax,%rbp,1),%xmm3
     b13:	f3 0f 5f 4c 24 50    	maxss  0x50(%rsp),%xmm1
     b19:	48 8b 05 00 00 00 00 	mov    0x0(%rip),%rax        # b20 <update_region_occ.constprop.5+0x2f0>
     b20:	f3 0f 10 44 18 fc    	movss  -0x4(%rax,%rbx,1),%xmm0
     b26:	f3 0f 5d 14 18       	minss  (%rax,%rbx,1),%xmm2
     b2b:	f3 0f 5f 44 24 58    	maxss  0x58(%rsp),%xmm0
     b31:	f3 0f 5c d9          	subss  %xmm1,%xmm3
     b35:	0f 14 db             	unpcklps %xmm3,%xmm3
     b38:	f3 0f 5c d0          	subss  %xmm0,%xmm2
     b3c:	0f 5a c3             	cvtps2pd %xmm3,%xmm0
     b3f:	66 0f 2e e0          	ucomisd %xmm0,%xmm4
     b43:	0f 86 27 ff ff ff    	jbe    a70 <update_region_occ.constprop.5+0x240>
     b49:	8b 74 24 70          	mov    0x70(%rsp),%esi
     b4d:	bf 00 00 00 00       	mov    $0x0,%edi
     b52:	b8 01 00 00 00       	mov    $0x1,%eax
     b57:	f3 0f 11 54 24 10    	movss  %xmm2,0x10(%rsp)
     b5d:	f3 0f 11 5c 24 20    	movss  %xmm3,0x20(%rsp)
     b63:	f2 0f 11 24 24       	movsd  %xmm4,(%rsp)
     b68:	f3 0f 11 6c 24 30    	movss  %xmm5,0x30(%rsp)
     b6e:	e8 00 00 00 00       	callq  b73 <update_region_occ.constprop.5+0x343>
     b73:	f3 0f 10 54 24 10    	movss  0x10(%rsp),%xmm2
     b79:	0f 14 d2             	unpcklps %xmm2,%xmm2
     b7c:	f3 0f 10 6c 24 30    	movss  0x30(%rsp),%xmm5
     b82:	f2 0f 10 24 24       	movsd  (%rsp),%xmm4
     b87:	f3 0f 10 5c 24 20    	movss  0x20(%rsp),%xmm3
     b8d:	0f 5a c2             	cvtps2pd %xmm2,%xmm0
     b90:	66 0f 2e e0          	ucomisd %xmm0,%xmm4
     b94:	0f 86 e6 fe ff ff    	jbe    a80 <update_region_occ.constprop.5+0x250>
     b9a:	8b 74 24 70          	mov    0x70(%rsp),%esi
     b9e:	bf 00 00 00 00       	mov    $0x0,%edi
     ba3:	b8 01 00 00 00       	mov    $0x1,%eax
     ba8:	f3 0f 11 54 24 10    	movss  %xmm2,0x10(%rsp)
     bae:	f3 0f 11 5c 24 20    	movss  %xmm3,0x20(%rsp)
     bb4:	f2 0f 11 24 24       	movsd  %xmm4,(%rsp)
     bb9:	f3 0f 11 6c 24 30    	movss  %xmm5,0x30(%rsp)
     bbf:	e8 00 00 00 00       	callq  bc4 <update_region_occ.constprop.5+0x394>
     bc4:	f3 0f 10 6c 24 30    	movss  0x30(%rsp),%xmm5
     bca:	f2 0f 10 24 24       	movsd  (%rsp),%xmm4
     bcf:	f3 0f 10 5c 24 20    	movss  0x20(%rsp),%xmm3
     bd5:	f3 0f 10 54 24 10    	movss  0x10(%rsp),%xmm2
     bdb:	e9 a0 fe ff ff       	jmpq   a80 <update_region_occ.constprop.5+0x250>
     be0:	49 89 ee             	mov    %rbp,%r14
     be3:	83 44 24 74 01       	addl   $0x1,0x74(%rsp)
     be8:	49 83 c7 08          	add    $0x8,%r15
     bec:	49 83 c6 04          	add    $0x4,%r14
     bf0:	8b 54 24 7c          	mov    0x7c(%rsp),%edx
     bf4:	39 54 24 74          	cmp    %edx,0x74(%rsp)
     bf8:	0f 8e 3a fe ff ff    	jle    a38 <update_region_occ.constprop.5+0x208>
     bfe:	48 81 c4 98 00 00 00 	add    $0x98,%rsp
     c05:	5b                   	pop    %rbx
     c06:	5d                   	pop    %rbp
     c07:	41 5c                	pop    %r12
     c09:	41 5d                	pop    %r13
     c0b:	41 5e                	pop    %r14
     c0d:	41 5f                	pop    %r15
     c0f:	c3                   	retq   
     c10:	f3 0f 10 2c 85 00 00 	movss  0x0(,%rax,4),%xmm5
     c17:	00 00 
     c19:	e9 65 fc ff ff       	jmpq   883 <update_region_occ.constprop.5+0x53>
     c1e:	66 90                	xchg   %ax,%ax

0000000000000c20 <try_swap>:
     c20:	41 57                	push   %r15
     c22:	41 56                	push   %r14
     c24:	41 55                	push   %r13
     c26:	41 54                	push   %r12
     c28:	55                   	push   %rbp
     c29:	53                   	push   %rbx
     c2a:	48 81 ec 98 01 00 00 	sub    $0x198,%rsp
     c31:	48 89 94 24 68 01 00 	mov    %rdx,0x168(%rsp)
     c38:	00 
     c39:	8b 15 00 00 00 00    	mov    0x0(%rip),%edx        # c3f <try_swap+0x1f>
     c3f:	f3 0f 11 84 24 44 01 	movss  %xmm0,0x144(%rsp)
     c46:	00 00 
     c48:	48 89 bc 24 60 01 00 	mov    %rdi,0x160(%rsp)
     c4f:	00 
     c50:	48 89 b4 24 48 01 00 	mov    %rsi,0x148(%rsp)
     c57:	00 
     c58:	f3 0f 11 4c 24 68    	movss  %xmm1,0x68(%rsp)
     c5e:	89 8c 24 e4 00 00 00 	mov    %ecx,0xe4(%rsp)
     c65:	f3 0f 11 94 24 84 01 	movss  %xmm2,0x184(%rsp)
     c6c:	00 00 
     c6e:	85 d2                	test   %edx,%edx
     c70:	4c 89 84 24 70 01 00 	mov    %r8,0x170(%rsp)
     c77:	00 
     c78:	f3 0f 11 9c 24 88 01 	movss  %xmm3,0x188(%rsp)
     c7f:	00 00 
     c81:	4c 89 8c 24 78 01 00 	mov    %r9,0x178(%rsp)
     c88:	00 
     c89:	f3 0f 11 a4 24 8c 01 	movss  %xmm4,0x18c(%rsp)
     c90:	00 00 
     c92:	0f 8e 0f 15 00 00    	jle    21a7 <try_swap+0x1587>
     c98:	83 ea 01             	sub    $0x1,%edx
     c9b:	48 8b 0d 00 00 00 00 	mov    0x0(%rip),%rcx        # ca2 <try_swap+0x82>
     ca2:	48 8d 34 d2          	lea    (%rdx,%rdx,8),%rsi
     ca6:	48 8d 81 98 00 00 00 	lea    0x98(%rcx),%rax
     cad:	48 8d 14 72          	lea    (%rdx,%rsi,2),%rdx
     cb1:	48 8d 34 d0          	lea    (%rax,%rdx,8),%rsi
     cb5:	31 d2                	xor    %edx,%edx
     cb7:	eb 0d                	jmp    cc6 <try_swap+0xa6>
     cb9:	0f 1f 80 00 00 00 00 	nopl   0x0(%rax)
     cc0:	48 05 98 00 00 00    	add    $0x98,%rax
     cc6:	8b 49 08             	mov    0x8(%rcx),%ecx
     cc9:	39 ca                	cmp    %ecx,%edx
     ccb:	0f 4c d1             	cmovl  %ecx,%edx
     cce:	48 39 f0             	cmp    %rsi,%rax
     cd1:	48 89 c1             	mov    %rax,%rcx
     cd4:	75 ea                	jne    cc0 <try_swap+0xa0>
     cd6:	48 83 3d 00 00 00 00 	cmpq   $0x0,0x0(%rip)        # cde <try_swap+0xbe>
     cdd:	00 
     cde:	0f 84 93 1a 00 00    	je     2777 <try_swap+0x1b57>
     ce4:	8b 3d 00 00 00 00    	mov    0x0(%rip),%edi        # cea <try_swap+0xca>
     cea:	83 ef 01             	sub    $0x1,%edi
     ced:	e8 00 00 00 00       	callq  cf2 <try_swap+0xd2>
     cf2:	83 bc 24 d8 01 00 00 	cmpl   $0x1,0x1d8(%rsp)
     cf9:	01 
     cfa:	89 84 24 18 01 00 00 	mov    %eax,0x118(%rsp)
     d01:	0f 84 1c 10 00 00    	je     1d23 <try_swap+0x1103>
     d07:	4c 63 d8             	movslq %eax,%r11
     d0a:	48 8b 3d 00 00 00 00 	mov    0x0(%rip),%rdi        # d11 <try_swap+0xf1>
     d11:	4b 8d 04 9b          	lea    (%r11,%r11,4),%rax
     d15:	4c 89 9c 24 10 01 00 	mov    %r11,0x110(%rsp)
     d1c:	00 
     d1d:	48 c1 e0 03          	shl    $0x3,%rax
     d21:	48 89 84 24 08 01 00 	mov    %rax,0x108(%rsp)
     d28:	00 
     d29:	48 03 05 00 00 00 00 	add    0x0(%rip),%rax        # d30 <try_swap+0x110>
     d30:	4c 8b 70 08          	mov    0x8(%rax),%r14
     d34:	8b 35 00 00 00 00    	mov    0x0(%rip),%esi        # d3a <try_swap+0x11a>
     d3a:	44 8b 58 18          	mov    0x18(%rax),%r11d
     d3e:	44 8b 60 1c          	mov    0x1c(%rax),%r12d
     d42:	8b 40 20             	mov    0x20(%rax),%eax
     d45:	f3 0f 2a c6          	cvtsi2ss %esi,%xmm0
     d49:	44 89 9c 24 d4 00 00 	mov    %r11d,0xd4(%rsp)
     d50:	00 
     d51:	44 89 a4 24 d8 00 00 	mov    %r12d,0xd8(%rsp)
     d58:	00 
     d59:	89 84 24 3c 01 00 00 	mov    %eax,0x13c(%rsp)
     d60:	0f 2e 44 24 68       	ucomiss 0x68(%rsp),%xmm0
     d65:	0f 86 b7 07 00 00    	jbe    1522 <try_swap+0x902>
     d6b:	f3 0f 10 4c 24 68    	movss  0x68(%rsp),%xmm1
     d71:	f3 0f 2c d9          	cvttss2si %xmm1,%ebx
     d75:	8b 15 00 00 00 00    	mov    0x0(%rip),%edx        # d7b <try_swap+0x15b>
     d7b:	f3 0f 2a c2          	cvtsi2ss %edx,%xmm0
     d7f:	0f 2e 44 24 68       	ucomiss 0x68(%rsp),%xmm0
     d84:	0f 86 8e 07 00 00    	jbe    1518 <try_swap+0x8f8>
     d8a:	f3 0f 10 44 24 68    	movss  0x68(%rsp),%xmm0
     d90:	f3 44 0f 2c e0       	cvttss2si %xmm0,%r12d
     d95:	44 8b 9c 24 d4 00 00 	mov    0xd4(%rsp),%r11d
     d9c:	00 
     d9d:	44 8b 8c 24 d4 00 00 	mov    0xd4(%rsp),%r9d
     da4:	00 
     da5:	41 bd 01 00 00 00    	mov    $0x1,%r13d
     dab:	44 8b 84 24 d8 00 00 	mov    0xd8(%rsp),%r8d
     db2:	00 
     db3:	41 29 db             	sub    %ebx,%r11d
     db6:	45 85 db             	test   %r11d,%r11d
     db9:	44 89 d8             	mov    %r11d,%eax
     dbc:	44 89 5c 24 68       	mov    %r11d,0x68(%rsp)
     dc1:	44 8b 9c 24 d8 00 00 	mov    0xd8(%rsp),%r11d
     dc8:	00 
     dc9:	41 0f 4e c5          	cmovle %r13d,%eax
     dcd:	41 01 d9             	add    %ebx,%r9d
     dd0:	41 39 f1             	cmp    %esi,%r9d
     dd3:	44 0f 4f ce          	cmovg  %esi,%r9d
     dd7:	45 29 e3             	sub    %r12d,%r11d
     dda:	45 85 db             	test   %r11d,%r11d
     ddd:	44 89 5c 24 70       	mov    %r11d,0x70(%rsp)
     de2:	45 0f 4f eb          	cmovg  %r11d,%r13d
     de6:	45 01 e0             	add    %r12d,%r8d
     de9:	41 39 d0             	cmp    %edx,%r8d
     dec:	44 0f 4f c2          	cmovg  %edx,%r8d
     df0:	49 39 fe             	cmp    %rdi,%r14
     df3:	0f 84 13 13 00 00    	je     210c <try_swap+0x14ec>
     df9:	44 39 c8             	cmp    %r9d,%eax
     dfc:	0f 8f 4b 22 00 00    	jg     304d <try_swap+0x242d>
     e02:	48 8b 15 00 00 00 00 	mov    0x0(%rip),%rdx        # e09 <try_swap+0x1e9>
     e09:	48 63 f0             	movslq %eax,%rsi
     e0c:	41 83 c1 01          	add    $0x1,%r9d
     e10:	45 31 d2             	xor    %r10d,%r10d
     e13:	45 31 ff             	xor    %r15d,%r15d
     e16:	48 8d 14 f2          	lea    (%rdx,%rsi,8),%rdx
     e1a:	eb 10                	jmp    e2c <try_swap+0x20c>
     e1c:	0f 1f 40 00          	nopl   0x0(%rax)
     e20:	83 c0 01             	add    $0x1,%eax
     e23:	48 83 c2 08          	add    $0x8,%rdx
     e27:	44 39 c8             	cmp    %r9d,%eax
     e2a:	74 34                	je     e60 <try_swap+0x240>
     e2c:	48 8b 0a             	mov    (%rdx),%rcx
     e2f:	4c 39 71 18          	cmp    %r14,0x18(%rcx)
     e33:	75 eb                	jne    e20 <try_swap+0x200>
     e35:	48 8b b4 24 f0 01 00 	mov    0x1f0(%rsp),%rsi
     e3c:	00 
     e3d:	49 63 ca             	movslq %r10d,%rcx
     e40:	41 83 c7 01          	add    $0x1,%r15d
     e44:	41 83 c2 01          	add    $0x1,%r10d
     e48:	48 83 c2 08          	add    $0x8,%rdx
     e4c:	89 04 8e             	mov    %eax,(%rsi,%rcx,4)
     e4f:	83 c0 01             	add    $0x1,%eax
     e52:	44 39 c8             	cmp    %r9d,%eax
     e55:	75 d5                	jne    e2c <try_swap+0x20c>
     e57:	66 0f 1f 84 00 00 00 	nopw   0x0(%rax,%rax,1)
     e5e:	00 00 
     e60:	45 85 ff             	test   %r15d,%r15d
     e63:	0f 84 e4 21 00 00    	je     304d <try_swap+0x242d>
     e69:	41 83 ff 01          	cmp    $0x1,%r15d
     e6d:	0f 84 4e 0f 00 00    	je     1dc1 <try_swap+0x11a1>
     e73:	85 db                	test   %ebx,%ebx
     e75:	0f 8e ba 21 00 00    	jle    3035 <try_swap+0x2415>
     e7b:	3b 1d 00 00 00 00    	cmp    0x0(%rip),%ebx        # e81 <try_swap+0x261>
     e81:	0f 8f ae 21 00 00    	jg     3035 <try_swap+0x2415>
     e87:	47 8d 0c 24          	lea    (%r12,%r12,1),%r9d
     e8b:	44 8d 1c 1b          	lea    (%rbx,%rbx,1),%r11d
     e8f:	41 8d 4c 24 ff       	lea    -0x1(%r12),%ecx
     e94:	8d 73 ff             	lea    -0x1(%rbx),%esi
     e97:	45 29 e8             	sub    %r13d,%r8d
     e9a:	89 5c 24 78          	mov    %ebx,0x78(%rsp)
     e9e:	44 89 a4 24 a0 00 00 	mov    %r12d,0xa0(%rsp)
     ea5:	00 
     ea6:	44 89 8c 24 88 00 00 	mov    %r9d,0x88(%rsp)
     ead:	00 
     eae:	41 83 ef 01          	sub    $0x1,%r15d
     eb2:	44 89 9c 24 80 00 00 	mov    %r11d,0x80(%rsp)
     eb9:	00 
     eba:	44 89 44 24 58       	mov    %r8d,0x58(%rsp)
     ebf:	89 8c 24 98 00 00 00 	mov    %ecx,0x98(%rsp)
     ec6:	89 b4 24 90 00 00 00 	mov    %esi,0x90(%rsp)
     ecd:	8b 9c 24 d8 00 00 00 	mov    0xd8(%rsp),%ebx
     ed4:	44 8b a4 24 d4 00 00 	mov    0xd4(%rsp),%r12d
     edb:	00 
     edc:	e9 97 00 00 00       	jmpq   f78 <try_swap+0x358>
     ee1:	0f 1f 80 00 00 00 00 	nopl   0x0(%rax)
     ee8:	44 89 ff             	mov    %r15d,%edi
     eeb:	e8 00 00 00 00       	callq  ef0 <try_swap+0x2d0>
     ef0:	48 63 e8             	movslq %eax,%rbp
     ef3:	8b 44 24 58          	mov    0x58(%rsp),%eax
     ef7:	31 ff                	xor    %edi,%edi
     ef9:	89 c2                	mov    %eax,%edx
     efb:	c1 fa 1f             	sar    $0x1f,%edx
     efe:	41 f7 7e 10          	idivl  0x10(%r14)
     f02:	8d 50 ff             	lea    -0x1(%rax),%edx
     f05:	85 c0                	test   %eax,%eax
     f07:	0f 4f fa             	cmovg  %edx,%edi
     f0a:	e8 00 00 00 00       	callq  f0f <try_swap+0x2ef>
     f0f:	41 0f af 46 10       	imul   0x10(%r14),%eax
     f14:	48 8b 8c 24 f0 01 00 	mov    0x1f0(%rsp),%rcx
     f1b:	00 
     f1c:	8b 2c a9             	mov    (%rcx,%rbp,4),%ebp
     f1f:	41 8d 54 05 00       	lea    0x0(%r13,%rax,1),%edx
     f24:	48 63 f5             	movslq %ebp,%rsi
     f27:	48 63 c2             	movslq %edx,%rax
     f2a:	48 8d 0c 40          	lea    (%rax,%rax,2),%rcx
     f2e:	48 8b 05 00 00 00 00 	mov    0x0(%rip),%rax        # f35 <try_swap+0x315>
     f35:	48 c1 e1 03          	shl    $0x3,%rcx
     f39:	48 03 0c f0          	add    (%rax,%rsi,8),%rcx
     f3d:	2b 51 08             	sub    0x8(%rcx),%edx
     f40:	85 ed                	test   %ebp,%ebp
     f42:	0f 8e 9a 20 00 00    	jle    2fe2 <try_swap+0x23c2>
     f48:	3b 2d 00 00 00 00    	cmp    0x0(%rip),%ebp        # f4e <try_swap+0x32e>
     f4e:	0f 8f 8e 20 00 00    	jg     2fe2 <try_swap+0x23c2>
     f54:	85 d2                	test   %edx,%edx
     f56:	0f 8e 23 21 00 00    	jle    307f <try_swap+0x245f>
     f5c:	3b 15 00 00 00 00    	cmp    0x0(%rip),%edx        # f62 <try_swap+0x342>
     f62:	0f 8f 17 21 00 00    	jg     307f <try_swap+0x245f>
     f68:	41 39 ec             	cmp    %ebp,%r12d
     f6b:	75 73                	jne    fe0 <try_swap+0x3c0>
     f6d:	39 d3                	cmp    %edx,%ebx
     f6f:	75 6f                	jne    fe0 <try_swap+0x3c0>
     f71:	48 8b 3d 00 00 00 00 	mov    0x0(%rip),%rdi        # f78 <try_swap+0x358>
     f78:	49 39 fe             	cmp    %rdi,%r14
     f7b:	0f 85 67 ff ff ff    	jne    ee8 <try_swap+0x2c8>
     f81:	8b 05 00 00 00 00    	mov    0x0(%rip),%eax        # f87 <try_swap+0x367>
     f87:	39 44 24 78          	cmp    %eax,0x78(%rsp)
     f8b:	0f 8d 0e 0d 00 00    	jge    1c9f <try_swap+0x107f>
     f91:	45 85 e4             	test   %r12d,%r12d
     f94:	0f 84 49 0d 00 00    	je     1ce3 <try_swap+0x10c3>
     f9a:	83 c0 01             	add    $0x1,%eax
     f9d:	41 39 c4             	cmp    %eax,%r12d
     fa0:	0f 84 80 11 00 00    	je     2126 <try_swap+0x1506>
     fa6:	85 db                	test   %ebx,%ebx
     fa8:	8b bc 24 80 00 00 00 	mov    0x80(%rsp),%edi
     faf:	0f 85 9a 05 00 00    	jne    154f <try_swap+0x92f>
     fb5:	e8 00 00 00 00       	callq  fba <try_swap+0x39a>
     fba:	8b 6c 24 68          	mov    0x68(%rsp),%ebp
     fbe:	01 c5                	add    %eax,%ebp
     fc0:	8b 05 00 00 00 00    	mov    0x0(%rip),%eax        # fc6 <try_swap+0x3a6>
     fc6:	39 c5                	cmp    %eax,%ebp
     fc8:	0f 8f c2 11 00 00    	jg     2190 <try_swap+0x1570>
     fce:	85 ed                	test   %ebp,%ebp
     fd0:	0f 8e 89 1f 00 00    	jle    2f5f <try_swap+0x233f>
     fd6:	31 d2                	xor    %edx,%edx
     fd8:	eb 8e                	jmp    f68 <try_swap+0x348>
     fda:	66 0f 1f 44 00 00    	nopw   0x0(%rax,%rax,1)
     fe0:	85 ed                	test   %ebp,%ebp
     fe2:	89 94 24 dc 00 00 00 	mov    %edx,0xdc(%rsp)
     fe9:	89 ac 24 e0 00 00 00 	mov    %ebp,0xe0(%rsp)
     ff0:	0f 88 05 20 00 00    	js     2ffb <try_swap+0x23db>
     ff6:	8b 05 00 00 00 00    	mov    0x0(%rip),%eax        # ffc <try_swap+0x3dc>
     ffc:	83 c0 01             	add    $0x1,%eax
     fff:	3b 84 24 e0 00 00 00 	cmp    0xe0(%rsp),%eax
    1006:	0f 8c ef 1f 00 00    	jl     2ffb <try_swap+0x23db>
    100c:	8b bc 24 dc 00 00 00 	mov    0xdc(%rsp),%edi
    1013:	85 ff                	test   %edi,%edi
    1015:	0f 88 e0 1f 00 00    	js     2ffb <try_swap+0x23db>
    101b:	8b 05 00 00 00 00    	mov    0x0(%rip),%eax        # 1021 <try_swap+0x401>
    1021:	83 c0 01             	add    $0x1,%eax
    1024:	39 84 24 dc 00 00 00 	cmp    %eax,0xdc(%rsp)
    102b:	0f 8f ca 1f 00 00    	jg     2ffb <try_swap+0x23db>
    1031:	48 63 84 24 dc 00 00 	movslq 0xdc(%rsp),%rax
    1038:	00 
    1039:	4c 63 9c 24 e0 00 00 	movslq 0xe0(%rsp),%r11
    1040:	00 
    1041:	48 8d 04 40          	lea    (%rax,%rax,2),%rax
    1045:	4c 89 9c 24 28 01 00 	mov    %r11,0x128(%rsp)
    104c:	00 
    104d:	48 c1 e0 03          	shl    $0x3,%rax
    1051:	48 89 84 24 30 01 00 	mov    %rax,0x130(%rsp)
    1058:	00 
    1059:	48 8b 05 00 00 00 00 	mov    0x0(%rip),%rax        # 1060 <try_swap+0x440>
    1060:	4a 8b 04 d8          	mov    (%rax,%r11,8),%rax
    1064:	48 03 84 24 30 01 00 	add    0x130(%rsp),%rax
    106b:	00 
    106c:	4c 39 30             	cmp    %r14,(%rax)
    106f:	0f 85 f1 1f 00 00    	jne    3066 <try_swap+0x2446>
    1075:	41 8b 56 0c          	mov    0xc(%r14),%edx
    1079:	83 fa 01             	cmp    $0x1,%edx
    107c:	0f 8e a9 04 00 00    	jle    152b <try_swap+0x90b>
    1082:	8d 7a ff             	lea    -0x1(%rdx),%edi
    1085:	e8 00 00 00 00       	callq  108a <try_swap+0x46a>
    108a:	4c 8b a4 24 28 01 00 	mov    0x128(%rsp),%r12
    1091:	00 
    1092:	89 84 24 40 01 00 00 	mov    %eax,0x140(%rsp)
    1099:	48 8b 05 00 00 00 00 	mov    0x0(%rip),%rax        # 10a0 <try_swap+0x480>
    10a0:	48 63 94 24 40 01 00 	movslq 0x140(%rsp),%rdx
    10a7:	00 
    10a8:	4a 8b 04 e0          	mov    (%rax,%r12,8),%rax
    10ac:	48 03 84 24 30 01 00 	add    0x130(%rsp),%rax
    10b3:	00 
    10b4:	48 c1 e2 02          	shl    $0x2,%rdx
    10b8:	48 89 94 24 58 01 00 	mov    %rdx,0x158(%rsp)
    10bf:	00 
    10c0:	49 89 d6             	mov    %rdx,%r14
    10c3:	48 8b 40 10          	mov    0x10(%rax),%rax
    10c7:	4c 8b 15 00 00 00 00 	mov    0x0(%rip),%r10        # 10ce <try_swap+0x4ae>
    10ce:	42 8b 04 30          	mov    (%rax,%r14,1),%eax
    10d2:	83 f8 ff             	cmp    $0xffffffff,%eax
    10d5:	89 84 24 1c 01 00 00 	mov    %eax,0x11c(%rsp)
    10dc:	0f 84 e4 0f 00 00    	je     20c6 <try_swap+0x14a6>
    10e2:	4c 63 9c 24 1c 01 00 	movslq 0x11c(%rsp),%r11
    10e9:	00 
    10ea:	44 8b a4 24 d4 00 00 	mov    0xd4(%rsp),%r12d
    10f1:	00 
    10f2:	44 8b b4 24 d8 00 00 	mov    0xd8(%rsp),%r14d
    10f9:	00 
    10fa:	8b b4 24 e0 00 00 00 	mov    0xe0(%rsp),%esi
    1101:	8b 94 24 dc 00 00 00 	mov    0xdc(%rsp),%edx
    1108:	8b 8c 24 40 01 00 00 	mov    0x140(%rsp),%ecx
    110f:	4b 8d 04 9b          	lea    (%r11,%r11,4),%rax
    1113:	4c 89 9c 24 50 01 00 	mov    %r11,0x150(%rsp)
    111a:	00 
    111b:	44 8b 9c 24 3c 01 00 	mov    0x13c(%rsp),%r11d
    1122:	00 
    1123:	48 c1 e0 03          	shl    $0x3,%rax
    1127:	48 89 84 24 20 01 00 	mov    %rax,0x120(%rsp)
    112e:	00 
    112f:	4c 01 d0             	add    %r10,%rax
    1132:	44 89 60 18          	mov    %r12d,0x18(%rax)
    1136:	44 89 70 1c          	mov    %r14d,0x1c(%rax)
    113a:	44 89 58 20          	mov    %r11d,0x20(%rax)
    113e:	48 8b 84 24 08 01 00 	mov    0x108(%rsp),%rax
    1145:	00 
    1146:	4c 01 d0             	add    %r10,%rax
    1149:	89 70 18             	mov    %esi,0x18(%rax)
    114c:	89 50 1c             	mov    %edx,0x1c(%rax)
    114f:	89 48 20             	mov    %ecx,0x20(%rax)
    1152:	48 8b 50 08          	mov    0x8(%rax),%rdx
    1156:	48 8b 0d 00 00 00 00 	mov    0x0(%rip),%rcx        # 115d <try_swap+0x53d>
    115d:	8b 52 08             	mov    0x8(%rdx),%edx
    1160:	89 94 24 38 01 00 00 	mov    %edx,0x138(%rsp)
    1167:	8b b4 24 38 01 00 00 	mov    0x138(%rsp),%esi
    116e:	48 8b 15 00 00 00 00 	mov    0x0(%rip),%rdx        # 1175 <try_swap+0x555>
    1175:	85 f6                	test   %esi,%esi
    1177:	0f 8e 4b 16 00 00    	jle    27c8 <try_swap+0x1ba8>
    117d:	0f 57 d2             	xorps  %xmm2,%xmm2
    1180:	4c 8b 48 10          	mov    0x10(%rax),%r9
    1184:	48 8b 1d 00 00 00 00 	mov    0x0(%rip),%rbx        # 118b <try_swap+0x56b>
    118b:	4c 8b 1d 00 00 00 00 	mov    0x0(%rip),%r11        # 1192 <try_swap+0x572>
    1192:	31 c0                	xor    %eax,%eax
    1194:	c7 84 24 00 01 00 00 	movl   $0x0,0x100(%rsp)
    119b:	00 00 00 00 
    119f:	8b ac 24 38 01 00 00 	mov    0x138(%rsp),%ebp
    11a6:	45 31 e4             	xor    %r12d,%r12d
    11a9:	f3 0f 11 94 24 04 01 	movss  %xmm2,0x104(%rsp)
    11b0:	00 00 
    11b2:	0f 28 ca             	movaps %xmm2,%xmm1
    11b5:	eb 11                	jmp    11c8 <try_swap+0x5a8>
    11b7:	66 0f 1f 84 00 00 00 	nopw   0x0(%rax,%rax,1)
    11be:	00 00 
    11c0:	48 83 c0 01          	add    $0x1,%rax
    11c4:	39 c5                	cmp    %eax,%ebp
    11c6:	7e 4e                	jle    1216 <try_swap+0x5f6>
    11c8:	41 8b 34 81          	mov    (%r9,%rax,4),%esi
    11cc:	83 fe ff             	cmp    $0xffffffff,%esi
    11cf:	74 ef                	je     11c0 <try_swap+0x5a0>
    11d1:	48 63 fe             	movslq %esi,%rdi
    11d4:	4c 8d 04 bd 00 00 00 	lea    0x0(,%rdi,4),%r8
    11db:	00 
    11dc:	4c 01 c7             	add    %r8,%rdi
    11df:	44 8b 7c fb 20       	mov    0x20(%rbx,%rdi,8),%r15d
    11e4:	45 85 ff             	test   %r15d,%r15d
    11e7:	75 d7                	jne    11c0 <try_swap+0x5a0>
    11e9:	4d 01 d8             	add    %r11,%r8
    11ec:	f3 41 0f 10 00       	movss  (%r8),%xmm0
    11f1:	0f 2e c1             	ucomiss %xmm1,%xmm0
    11f4:	77 ca                	ja     11c0 <try_swap+0x5a0>
    11f6:	48 83 c0 01          	add    $0x1,%rax
    11fa:	49 63 fc             	movslq %r12d,%rdi
    11fd:	41 83 c4 01          	add    $0x1,%r12d
    1201:	39 c5                	cmp    %eax,%ebp
    1203:	89 34 ba             	mov    %esi,(%rdx,%rdi,4)
    1206:	c7 04 b9 00 00 00 00 	movl   $0x0,(%rcx,%rdi,4)
    120d:	41 c7 00 00 00 80 3f 	movl   $0x3f800000,(%r8)
    1214:	7f b2                	jg     11c8 <try_swap+0x5a8>
    1216:	83 bc 24 1c 01 00 00 	cmpl   $0xffffffff,0x11c(%rsp)
    121d:	ff 
    121e:	44 89 a4 24 00 01 00 	mov    %r12d,0x100(%rsp)
    1225:	00 
    1226:	0f 84 a4 00 00 00    	je     12d0 <try_swap+0x6b0>
    122c:	44 89 e5             	mov    %r12d,%ebp
    122f:	4c 8b a4 24 20 01 00 	mov    0x120(%rsp),%r12
    1236:	00 
    1237:	45 31 c9             	xor    %r9d,%r9d
    123a:	f3 0f 10 8c 24 04 01 	movss  0x104(%rsp),%xmm1
    1241:	00 00 
    1243:	4f 8b 54 22 10       	mov    0x10(%r10,%r12,1),%r10
    1248:	44 8b a4 24 38 01 00 	mov    0x138(%rsp),%r12d
    124f:	00 
    1250:	43 8b 3c 8a          	mov    (%r10,%r9,4),%edi
    1254:	83 ff ff             	cmp    $0xffffffff,%edi
    1257:	74 67                	je     12c0 <try_swap+0x6a0>
    1259:	48 63 c7             	movslq %edi,%rax
    125c:	48 8d 34 85 00 00 00 	lea    0x0(,%rax,4),%rsi
    1263:	00 
    1264:	48 01 f0             	add    %rsi,%rax
    1267:	44 8b 74 c3 20       	mov    0x20(%rbx,%rax,8),%r14d
    126c:	45 85 f6             	test   %r14d,%r14d
    126f:	75 4f                	jne    12c0 <try_swap+0x6a0>
    1271:	4c 01 de             	add    %r11,%rsi
    1274:	f3 0f 10 06          	movss  (%rsi),%xmm0
    1278:	0f 2e c1             	ucomiss %xmm1,%xmm0
    127b:	0f 86 5f 08 00 00    	jbe    1ae0 <try_swap+0xec0>
    1281:	85 ed                	test   %ebp,%ebp
    1283:	0f 8e 8b 0e 00 00    	jle    2114 <try_swap+0x14f4>
    1289:	3b 3a                	cmp    (%rdx),%edi
    128b:	0f 84 15 03 00 00    	je     15a6 <try_swap+0x986>
    1291:	41 b8 04 00 00 00    	mov    $0x4,%r8d
    1297:	31 f6                	xor    %esi,%esi
    1299:	eb 16                	jmp    12b1 <try_swap+0x691>
    129b:	0f 1f 44 00 00       	nopl   0x0(%rax,%rax,1)
    12a0:	49 8d 40 04          	lea    0x4(%r8),%rax
    12a4:	3b 7c 02 fc          	cmp    -0x4(%rdx,%rax,1),%edi
    12a8:	0f 84 02 03 00 00    	je     15b0 <try_swap+0x990>
    12ae:	49 89 c0             	mov    %rax,%r8
    12b1:	83 c6 01             	add    $0x1,%esi
    12b4:	39 ee                	cmp    %ebp,%esi
    12b6:	75 e8                	jne    12a0 <try_swap+0x680>
    12b8:	0f 1f 84 00 00 00 00 	nopl   0x0(%rax,%rax,1)
    12bf:	00 
    12c0:	49 83 c1 01          	add    $0x1,%r9
    12c4:	45 39 cc             	cmp    %r9d,%r12d
    12c7:	7f 87                	jg     1250 <try_swap+0x630>
    12c9:	89 ac 24 00 01 00 00 	mov    %ebp,0x100(%rsp)
    12d0:	83 bc 24 e4 00 00 00 	cmpl   $0x1,0xe4(%rsp)
    12d7:	01 
    12d8:	0f 84 e8 13 00 00    	je     26c6 <try_swap+0x1aa6>
    12de:	8b b4 24 00 01 00 00 	mov    0x100(%rsp),%esi
    12e5:	85 f6                	test   %esi,%esi
    12e7:	0f 8e 1b 08 00 00    	jle    1b08 <try_swap+0xee8>
    12ed:	8b 84 24 00 01 00 00 	mov    0x100(%rsp),%eax
    12f4:	44 8b 9c 24 d0 01 00 	mov    0x1d0(%rsp),%r11d
    12fb:	00 
    12fc:	f3 0f 10 94 24 04 01 	movss  0x104(%rsp),%xmm2
    1303:	00 00 
    1305:	48 c7 84 24 a8 00 00 	movq   $0x0,0xa8(%rsp)
    130c:	00 00 00 00 00 
    1311:	f3 0f 11 94 24 cc 00 	movss  %xmm2,0xcc(%rsp)
    1318:	00 00 
    131a:	c7 84 24 c0 00 00 00 	movl   $0x0,0xc0(%rsp)
    1321:	00 00 00 00 
    1325:	83 e8 01             	sub    $0x1,%eax
    1328:	41 83 eb 01          	sub    $0x1,%r11d
    132c:	48 8d 04 85 04 00 00 	lea    0x4(,%rax,4),%rax
    1333:	00 
    1334:	44 89 9c 24 80 01 00 	mov    %r11d,0x180(%rsp)
    133b:	00 
    133c:	f2 0f 10 25 00 00 00 	movsd  0x0(%rip),%xmm4        # 1344 <try_swap+0x724>
    1343:	00 
    1344:	48 89 84 24 e8 00 00 	mov    %rax,0xe8(%rsp)
    134b:	00 
    134c:	e9 30 01 00 00       	jmpq   1481 <try_swap+0x861>
    1351:	0f 1f 80 00 00 00 00 	nopl   0x0(%rax)
    1358:	44 8b a4 24 dc 00 00 	mov    0xdc(%rsp),%r12d
    135f:	00 
    1360:	44 8b 8c 24 e0 00 00 	mov    0xe0(%rsp),%r9d
    1367:	00 
    1368:	44 8b 84 24 d8 00 00 	mov    0xd8(%rsp),%r8d
    136f:	00 
    1370:	8b 8c 24 d4 00 00 00 	mov    0xd4(%rsp),%ecx
    1377:	44 89 24 24          	mov    %r12d,(%rsp)
    137b:	8b bc 24 a0 00 00 00 	mov    0xa0(%rsp),%edi
    1382:	48 89 ee             	mov    %rbp,%rsi
    1385:	f2 0f 11 64 24 10    	movsd  %xmm4,0x10(%rsp)
    138b:	e8 90 ee ff ff       	callq  220 <update_bb>
    1390:	83 bc 24 e4 00 00 00 	cmpl   $0x1,0xe4(%rsp)
    1397:	01 
    1398:	48 8b 05 00 00 00 00 	mov    0x0(%rip),%rax        # 139f <try_swap+0x77f>
    139f:	f2 0f 10 64 24 10    	movsd  0x10(%rsp),%xmm4
    13a5:	4e 63 54 30 08       	movslq 0x8(%rax,%r14,1),%r10
    13aa:	0f 84 3c 03 00 00    	je     16ec <try_swap+0xacc>
    13b0:	48 8b 05 00 00 00 00 	mov    0x0(%rip),%rax        # 13b7 <try_swap+0x797>
    13b7:	41 83 fa 31          	cmp    $0x31,%r10d
    13bb:	48 8d 3c 98          	lea    (%rax,%rbx,4),%rdi
    13bf:	0f 8f bb 01 00 00    	jg     1580 <try_swap+0x960>
    13c5:	f3 42 0f 10 14 95 00 	movss  0x0(,%r10,4),%xmm2
    13cc:	00 00 00 
    13cf:	48 63 55 04          	movslq 0x4(%rbp),%rdx
    13d3:	48 63 45 00          	movslq 0x0(%rbp),%rax
    13d7:	8b 4d 08             	mov    0x8(%rbp),%ecx
    13da:	8b 75 0c             	mov    0xc(%rbp),%esi
    13dd:	41 89 d0             	mov    %edx,%r8d
    13e0:	4c 63 d6             	movslq %esi,%r10
    13e3:	29 ce                	sub    %ecx,%esi
    13e5:	41 29 c0             	sub    %eax,%r8d
    13e8:	83 c6 01             	add    $0x1,%esi
    13eb:	4c 63 c9             	movslq %ecx,%r9
    13ee:	41 83 c0 01          	add    $0x1,%r8d
    13f2:	f3 0f 2a ce          	cvtsi2ss %esi,%xmm1
    13f6:	f3 41 0f 2a c0       	cvtsi2ss %r8d,%xmm0
    13fb:	48 8b 0d 00 00 00 00 	mov    0x0(%rip),%rcx        # 1402 <try_swap+0x7e2>
    1402:	4c 8b 05 00 00 00 00 	mov    0x0(%rip),%r8        # 1409 <try_swap+0x7e9>
    1409:	48 8b 14 d1          	mov    (%rcx,%rdx,8),%rdx
    140d:	4f 8b 04 d0          	mov    (%r8,%r10,8),%r8
    1411:	f3 0f 59 ca          	mulss  %xmm2,%xmm1
    1415:	f3 0f 59 c2          	mulss  %xmm2,%xmm0
    1419:	f3 0f 59 4c 82 fc    	mulss  -0x4(%rdx,%rax,4),%xmm1
    141f:	48 8b 05 00 00 00 00 	mov    0x0(%rip),%rax        # 1426 <try_swap+0x806>
    1426:	f3 43 0f 59 44 88 fc 	mulss  -0x4(%r8,%r9,4),%xmm0
    142d:	f3 0f 58 c1          	addss  %xmm1,%xmm0
    1431:	f3 0f 11 07          	movss  %xmm0,(%rdi)
    1435:	f3 0f 5c 04 98       	subss  (%rax,%rbx,4),%xmm0
    143a:	f3 0f 58 84 24 cc 00 	addss  0xcc(%rsp),%xmm0
    1441:	00 00 
    1443:	f3 0f 11 84 24 cc 00 	movss  %xmm0,0xcc(%rsp)
    144a:	00 00 
    144c:	83 84 24 c0 00 00 00 	addl   $0x1,0xc0(%rsp)
    1453:	01 
    1454:	48 83 84 24 a8 00 00 	addq   $0x4,0xa8(%rsp)
    145b:	00 04 
    145d:	4c 8b a4 24 e8 00 00 	mov    0xe8(%rsp),%r12
    1464:	00 
    1465:	4c 39 a4 24 a8 00 00 	cmp    %r12,0xa8(%rsp)
    146c:	00 
    146d:	0f 84 a7 06 00 00    	je     1b1a <try_swap+0xefa>
    1473:	48 8b 15 00 00 00 00 	mov    0x0(%rip),%rdx        # 147a <try_swap+0x85a>
    147a:	48 8b 0d 00 00 00 00 	mov    0x0(%rip),%rcx        # 1481 <try_swap+0x861>
    1481:	4c 8b a4 24 a8 00 00 	mov    0xa8(%rsp),%r12
    1488:	00 
    1489:	42 8b 04 21          	mov    (%rcx,%r12,1),%eax
    148d:	42 8b 14 22          	mov    (%rdx,%r12,1),%edx
    1491:	83 f8 02             	cmp    $0x2,%eax
    1494:	89 94 24 a0 00 00 00 	mov    %edx,0xa0(%rsp)
    149b:	74 b7                	je     1454 <try_swap+0x834>
    149d:	48 63 da             	movslq %edx,%rbx
    14a0:	48 8b 15 00 00 00 00 	mov    0x0(%rip),%rdx        # 14a7 <try_swap+0x887>
    14a7:	4c 8d 34 9b          	lea    (%rbx,%rbx,4),%r14
    14ab:	49 c1 e6 03          	shl    $0x3,%r14
    14af:	4c 01 f2             	add    %r14,%rdx
    14b2:	4c 63 52 08          	movslq 0x8(%rdx),%r10
    14b6:	41 83 fa 03          	cmp    $0x3,%r10d
    14ba:	0f 8e 30 01 00 00    	jle    15f0 <try_swap+0x9d0>
    14c0:	4c 63 9c 24 c0 00 00 	movslq 0xc0(%rsp),%r11
    14c7:	00 
    14c8:	49 c1 e3 04          	shl    $0x4,%r11
    14cc:	4c 89 dd             	mov    %r11,%rbp
    14cf:	4c 89 da             	mov    %r11,%rdx
    14d2:	48 03 2d 00 00 00 00 	add    0x0(%rip),%rbp        # 14d9 <try_swap+0x8b9>
    14d9:	48 03 15 00 00 00 00 	add    0x0(%rip),%rdx        # 14e0 <try_swap+0x8c0>
    14e0:	85 c0                	test   %eax,%eax
    14e2:	4c 89 9c 24 b0 00 00 	mov    %r11,0xb0(%rsp)
    14e9:	00 
    14ea:	0f 84 68 fe ff ff    	je     1358 <try_swap+0x738>
    14f0:	44 8b a4 24 d8 00 00 	mov    0xd8(%rsp),%r12d
    14f7:	00 
    14f8:	44 8b 8c 24 d4 00 00 	mov    0xd4(%rsp),%r9d
    14ff:	00 
    1500:	44 8b 84 24 dc 00 00 	mov    0xdc(%rsp),%r8d
    1507:	00 
    1508:	8b 8c 24 e0 00 00 00 	mov    0xe0(%rsp),%ecx
    150f:	44 89 24 24          	mov    %r12d,(%rsp)
    1513:	e9 63 fe ff ff       	jmpq   137b <try_swap+0x75b>
    1518:	f3 44 0f 2c e0       	cvttss2si %xmm0,%r12d
    151d:	e9 73 f8 ff ff       	jmpq   d95 <try_swap+0x175>
    1522:	f3 0f 2c d8          	cvttss2si %xmm0,%ebx
    1526:	e9 4a f8 ff ff       	jmpq   d75 <try_swap+0x155>
    152b:	48 c7 84 24 58 01 00 	movq   $0x0,0x158(%rsp)
    1532:	00 00 00 00 00 
    1537:	c7 84 24 40 01 00 00 	movl   $0x0,0x140(%rsp)
    153e:	00 00 00 00 
    1542:	4c 8b b4 24 58 01 00 	mov    0x158(%rsp),%r14
    1549:	00 
    154a:	e9 74 fb ff ff       	jmpq   10c3 <try_swap+0x4a3>
    154f:	e8 00 00 00 00       	callq  1554 <try_swap+0x934>
    1554:	8b 6c 24 68          	mov    0x68(%rsp),%ebp
    1558:	01 c5                	add    %eax,%ebp
    155a:	8b 05 00 00 00 00    	mov    0x0(%rip),%eax        # 1560 <try_swap+0x940>
    1560:	39 c5                	cmp    %eax,%ebp
    1562:	0f 8f 04 0c 00 00    	jg     216c <try_swap+0x154c>
    1568:	85 ed                	test   %ebp,%ebp
    156a:	0f 8e 3f 1a 00 00    	jle    2faf <try_swap+0x238f>
    1570:	89 da                	mov    %ebx,%edx
    1572:	e9 f1 f9 ff ff       	jmpq   f68 <try_swap+0x348>
    1577:	66 0f 1f 84 00 00 00 	nopw   0x0(%rax,%rax,1)
    157e:	00 00 
    1580:	41 83 ea 31          	sub    $0x31,%r10d
    1584:	f2 41 0f 2a d2       	cvtsi2sd %r10d,%xmm2
    1589:	f2 0f 59 15 00 00 00 	mulsd  0x0(%rip),%xmm2        # 1591 <try_swap+0x971>
    1590:	00 
    1591:	f2 0f 58 15 00 00 00 	addsd  0x0(%rip),%xmm2        # 1599 <try_swap+0x979>
    1598:	00 
    1599:	66 0f 14 d2          	unpcklpd %xmm2,%xmm2
    159d:	66 0f 5a d2          	cvtpd2ps %xmm2,%xmm2
    15a1:	e9 29 fe ff ff       	jmpq   13cf <try_swap+0x7af>
    15a6:	45 31 c0             	xor    %r8d,%r8d
    15a9:	31 f6                	xor    %esi,%esi
    15ab:	0f 1f 44 00 00       	nopl   0x0(%rax,%rax,1)
    15b0:	49 01 c8             	add    %rcx,%r8
    15b3:	45 8b 28             	mov    (%r8),%r13d
    15b6:	45 85 ed             	test   %r13d,%r13d
    15b9:	75 07                	jne    15c2 <try_swap+0x9a2>
    15bb:	41 c7 00 02 00 00 00 	movl   $0x2,(%r8)
    15c2:	39 ee                	cmp    %ebp,%esi
    15c4:	0f 8e f6 fc ff ff    	jle    12c0 <try_swap+0x6a0>
    15ca:	bf 00 00 00 00       	mov    $0x0,%edi
    15cf:	89 ea                	mov    %ebp,%edx
    15d1:	31 c0                	xor    %eax,%eax
    15d3:	89 ac 24 00 01 00 00 	mov    %ebp,0x100(%rsp)
    15da:	e8 00 00 00 00       	callq  15df <try_swap+0x9bf>
    15df:	bf 01 00 00 00       	mov    $0x1,%edi
    15e4:	e8 00 00 00 00       	callq  15e9 <try_swap+0x9c9>
    15e9:	0f 1f 80 00 00 00 00 	nopl   0x0(%rax)
    15f0:	48 8b 52 10          	mov    0x10(%rdx),%rdx
    15f4:	4c 63 b4 24 c0 00 00 	movslq 0xc0(%rsp),%r14
    15fb:	00 
    15fc:	4c 8b 1d 00 00 00 00 	mov    0x0(%rip),%r11        # 1603 <try_swap+0x9e3>
    1603:	48 63 02             	movslq (%rdx),%rax
    1606:	49 c1 e6 04          	shl    $0x4,%r14
    160a:	4c 89 f5             	mov    %r14,%rbp
    160d:	48 03 2d 00 00 00 00 	add    0x0(%rip),%rbp        # 1614 <try_swap+0x9f4>
    1614:	45 85 d2             	test   %r10d,%r10d
    1617:	4c 89 b4 24 b0 00 00 	mov    %r14,0xb0(%rsp)
    161e:	00 
    161f:	48 8d 04 80          	lea    (%rax,%rax,4),%rax
    1623:	49 8d 04 c3          	lea    (%r11,%rax,8),%rax
    1627:	8b 78 18             	mov    0x18(%rax),%edi
    162a:	8b 70 1c             	mov    0x1c(%rax),%esi
    162d:	0f 8e e8 0a 00 00    	jle    211b <try_swap+0x14fb>
    1633:	41 8d 4a ff          	lea    -0x1(%r10),%ecx
    1637:	48 8d 42 04          	lea    0x4(%rdx),%rax
    163b:	41 89 f1             	mov    %esi,%r9d
    163e:	41 89 f8             	mov    %edi,%r8d
    1641:	4c 8d 74 8a 08       	lea    0x8(%rdx,%rcx,4),%r14
    1646:	eb 22                	jmp    166a <try_swap+0xa4a>
    1648:	0f 1f 84 00 00 00 00 	nopl   0x0(%rax,%rax,1)
    164f:	00 
    1650:	44 39 c1             	cmp    %r8d,%ecx
    1653:	44 0f 4f c1          	cmovg  %ecx,%r8d
    1657:	44 39 ca             	cmp    %r9d,%edx
    165a:	7c 2a                	jl     1686 <try_swap+0xa66>
    165c:	39 f2                	cmp    %esi,%edx
    165e:	0f 4f f2             	cmovg  %edx,%esi
    1661:	48 83 c0 04          	add    $0x4,%rax
    1665:	4c 39 f0             	cmp    %r14,%rax
    1668:	74 28                	je     1692 <try_swap+0xa72>
    166a:	48 63 10             	movslq (%rax),%rdx
    166d:	48 8d 14 92          	lea    (%rdx,%rdx,4),%rdx
    1671:	49 8d 14 d3          	lea    (%r11,%rdx,8),%rdx
    1675:	8b 4a 18             	mov    0x18(%rdx),%ecx
    1678:	8b 52 1c             	mov    0x1c(%rdx),%edx
    167b:	39 cf                	cmp    %ecx,%edi
    167d:	7e d1                	jle    1650 <try_swap+0xa30>
    167f:	44 39 ca             	cmp    %r9d,%edx
    1682:	89 cf                	mov    %ecx,%edi
    1684:	7d d6                	jge    165c <try_swap+0xa3c>
    1686:	48 83 c0 04          	add    $0x4,%rax
    168a:	41 89 d1             	mov    %edx,%r9d
    168d:	4c 39 f0             	cmp    %r14,%rax
    1690:	75 d8                	jne    166a <try_swap+0xa4a>
    1692:	8b 15 00 00 00 00    	mov    0x0(%rip),%edx        # 1698 <try_swap+0xa78>
    1698:	8b 0d 00 00 00 00    	mov    0x0(%rip),%ecx        # 169e <try_swap+0xa7e>
    169e:	b8 01 00 00 00       	mov    $0x1,%eax
    16a3:	39 d7                	cmp    %edx,%edi
    16a5:	0f 4f fa             	cmovg  %edx,%edi
    16a8:	85 ff                	test   %edi,%edi
    16aa:	0f 4e f8             	cmovle %eax,%edi
    16ad:	41 39 c9             	cmp    %ecx,%r9d
    16b0:	44 0f 4f c9          	cmovg  %ecx,%r9d
    16b4:	89 7d 00             	mov    %edi,0x0(%rbp)
    16b7:	45 85 c9             	test   %r9d,%r9d
    16ba:	44 0f 4e c8          	cmovle %eax,%r9d
    16be:	41 39 d0             	cmp    %edx,%r8d
    16c1:	41 0f 4e d0          	cmovle %r8d,%edx
    16c5:	44 89 4d 08          	mov    %r9d,0x8(%rbp)
    16c9:	85 d2                	test   %edx,%edx
    16cb:	0f 4e d0             	cmovle %eax,%edx
    16ce:	39 ce                	cmp    %ecx,%esi
    16d0:	0f 4e ce             	cmovle %esi,%ecx
    16d3:	89 55 04             	mov    %edx,0x4(%rbp)
    16d6:	85 c9                	test   %ecx,%ecx
    16d8:	0f 4e c8             	cmovle %eax,%ecx
    16db:	83 bc 24 e4 00 00 00 	cmpl   $0x1,0xe4(%rsp)
    16e2:	01 
    16e3:	89 4d 0c             	mov    %ecx,0xc(%rbp)
    16e6:	0f 85 c4 fc ff ff    	jne    13b0 <try_swap+0x790>
    16ec:	48 c1 e3 04          	shl    $0x4,%rbx
    16f0:	48 03 1d 00 00 00 00 	add    0x0(%rip),%rbx        # 16f7 <try_swap+0xad7>
    16f7:	41 83 fa 31          	cmp    $0x31,%r10d
    16fb:	0f 8e b1 06 00 00    	jle    1db2 <try_swap+0x1192>
    1701:	41 83 ea 31          	sub    $0x31,%r10d
    1705:	f2 41 0f 2a ea       	cvtsi2sd %r10d,%xmm5
    170a:	f2 0f 59 2d 00 00 00 	mulsd  0x0(%rip),%xmm5        # 1712 <try_swap+0xaf2>
    1711:	00 
    1712:	f2 0f 58 2d 00 00 00 	addsd  0x0(%rip),%xmm5        # 171a <try_swap+0xafa>
    1719:	00 
    171a:	66 0f 14 ed          	unpcklpd %xmm5,%xmm5
    171e:	66 0f 5a ed          	cvtpd2ps %xmm5,%xmm5
    1722:	f2 0f 2a 03          	cvtsi2sdl (%rbx),%xmm0
    1726:	f2 0f 5c 05 00 00 00 	subsd  0x0(%rip),%xmm0        # 172e <try_swap+0xb0e>
    172d:	00 
    172e:	f3 0f 2a 0d 00 00 00 	cvtsi2ssl 0x0(%rip),%xmm1        # 1736 <try_swap+0xb16>
    1735:	00 
    1736:	66 0f 14 c0          	unpcklpd %xmm0,%xmm0
    173a:	66 0f 5a c0          	cvtpd2ps %xmm0,%xmm0
    173e:	f3 0f 11 44 24 60    	movss  %xmm0,0x60(%rsp)
    1744:	f2 0f 2a 43 04       	cvtsi2sdl 0x4(%rbx),%xmm0
    1749:	f2 0f 58 05 00 00 00 	addsd  0x0(%rip),%xmm0        # 1751 <try_swap+0xb31>
    1750:	00 
    1751:	66 0f 14 c0          	unpcklpd %xmm0,%xmm0
    1755:	66 0f 5a c0          	cvtpd2ps %xmm0,%xmm0
    1759:	f3 0f 11 44 24 68    	movss  %xmm0,0x68(%rsp)
    175f:	f2 0f 2a 43 08       	cvtsi2sdl 0x8(%rbx),%xmm0
    1764:	f2 0f 5c 05 00 00 00 	subsd  0x0(%rip),%xmm0        # 176c <try_swap+0xb4c>
    176b:	00 
    176c:	66 0f 14 c0          	unpcklpd %xmm0,%xmm0
    1770:	66 0f 5a c0          	cvtpd2ps %xmm0,%xmm0
    1774:	f3 0f 11 44 24 70    	movss  %xmm0,0x70(%rsp)
    177a:	f2 0f 2a 43 0c       	cvtsi2sdl 0xc(%rbx),%xmm0
    177f:	f2 0f 58 05 00 00 00 	addsd  0x0(%rip),%xmm0        # 1787 <try_swap+0xb67>
    1786:	00 
    1787:	66 0f 14 c0          	unpcklpd %xmm0,%xmm0
    178b:	66 0f 5a c0          	cvtpd2ps %xmm0,%xmm0
    178f:	f3 0f 11 44 24 78    	movss  %xmm0,0x78(%rsp)
    1795:	f3 0f 2a 84 24 d0 01 	cvtsi2ssl 0x1d0(%rsp),%xmm0
    179c:	00 00 
    179e:	0f 28 d0             	movaps %xmm0,%xmm2
    17a1:	f3 0f 5e d1          	divss  %xmm1,%xmm2
    17a5:	f3 0f 2a 0d 00 00 00 	cvtsi2ssl 0x0(%rip),%xmm1        # 17ad <try_swap+0xb8d>
    17ac:	00 
    17ad:	f3 0f 5e c1          	divss  %xmm1,%xmm0
    17b1:	f3 0f 11 94 24 80 00 	movss  %xmm2,0x80(%rsp)
    17b8:	00 00 
    17ba:	f3 0f 11 84 24 88 00 	movss  %xmm0,0x88(%rsp)
    17c1:	00 00 
    17c3:	f3 0f 10 44 24 60    	movss  0x60(%rsp),%xmm0
    17c9:	0f 5a c0             	cvtps2pd %xmm0,%xmm0
    17cc:	f2 0f 5c 05 00 00 00 	subsd  0x0(%rip),%xmm0        # 17d4 <try_swap+0xbb4>
    17d3:	00 
    17d4:	f2 0f 2c c0          	cvttsd2si %xmm0,%eax
    17d8:	f3 0f 2a c0          	cvtsi2ss %eax,%xmm0
    17dc:	f3 0f 59 c2          	mulss  %xmm2,%xmm0
    17e0:	f3 44 0f 2c c0       	cvttss2si %xmm0,%r8d
    17e5:	f3 0f 10 44 24 68    	movss  0x68(%rsp),%xmm0
    17eb:	0f 5a c0             	cvtps2pd %xmm0,%xmm0
    17ee:	f2 0f 5c 05 00 00 00 	subsd  0x0(%rip),%xmm0        # 17f6 <try_swap+0xbd6>
    17f5:	00 
    17f6:	f2 0f 2c c0          	cvttsd2si %xmm0,%eax
    17fa:	44 89 84 24 b8 00 00 	mov    %r8d,0xb8(%rsp)
    1801:	00 
    1802:	f3 0f 2a c0          	cvtsi2ss %eax,%xmm0
    1806:	f3 0f 59 c2          	mulss  %xmm2,%xmm0
    180a:	f3 44 0f 2c c8       	cvttss2si %xmm0,%r9d
    180f:	f3 0f 10 44 24 70    	movss  0x70(%rsp),%xmm0
    1815:	0f 5a c0             	cvtps2pd %xmm0,%xmm0
    1818:	f2 0f 5c 05 00 00 00 	subsd  0x0(%rip),%xmm0        # 1820 <try_swap+0xc00>
    181f:	00 
    1820:	44 39 8c 24 d0 01 00 	cmp    %r9d,0x1d0(%rsp)
    1827:	00 
    1828:	44 0f 4e 8c 24 80 01 	cmovle 0x180(%rsp),%r9d
    182f:	00 00 
    1831:	f2 0f 2c c0          	cvttsd2si %xmm0,%eax
    1835:	44 89 8c 24 d0 00 00 	mov    %r9d,0xd0(%rsp)
    183c:	00 
    183d:	f3 0f 2a c0          	cvtsi2ss %eax,%xmm0
    1841:	f3 0f 59 84 24 88 00 	mulss  0x88(%rsp),%xmm0
    1848:	00 00 
    184a:	f3 44 0f 2c d8       	cvttss2si %xmm0,%r11d
    184f:	f3 0f 10 44 24 78    	movss  0x78(%rsp),%xmm0
    1855:	0f 5a c0             	cvtps2pd %xmm0,%xmm0
    1858:	f2 0f 5c 05 00 00 00 	subsd  0x0(%rip),%xmm0        # 1860 <try_swap+0xc40>
    185f:	00 
    1860:	f2 0f 2c c0          	cvttsd2si %xmm0,%eax
    1864:	44 89 9c 24 c8 00 00 	mov    %r11d,0xc8(%rsp)
    186b:	00 
    186c:	f3 0f 2a c0          	cvtsi2ss %eax,%xmm0
    1870:	f3 0f 59 84 24 88 00 	mulss  0x88(%rsp),%xmm0
    1877:	00 00 
    1879:	f3 44 0f 2c e0       	cvttss2si %xmm0,%r12d
    187e:	44 39 a4 24 d0 01 00 	cmp    %r12d,0x1d0(%rsp)
    1885:	00 
    1886:	44 0f 4e a4 24 80 01 	cmovle 0x180(%rsp),%r12d
    188d:	00 00 
    188f:	45 39 c8             	cmp    %r9d,%r8d
    1892:	44 89 64 24 58       	mov    %r12d,0x58(%rsp)
    1897:	f3 0f 10 4c 24 68    	movss  0x68(%rsp),%xmm1
    189d:	f3 0f 5c 4c 24 60    	subss  0x60(%rsp),%xmm1
    18a3:	f3 0f 10 05 00 00 00 	movss  0x0(%rip),%xmm0        # 18ab <try_swap+0xc8b>
    18aa:	00 
    18ab:	0f 28 d0             	movaps %xmm0,%xmm2
    18ae:	f3 0f 5e d1          	divss  %xmm1,%xmm2
    18b2:	f3 0f 10 4c 24 78    	movss  0x78(%rsp),%xmm1
    18b8:	f3 0f 5c 4c 24 70    	subss  0x70(%rsp),%xmm1
    18be:	f3 0f 5e c1          	divss  %xmm1,%xmm0
    18c2:	f3 0f 11 94 24 90 00 	movss  %xmm2,0x90(%rsp)
    18c9:	00 00 
    18cb:	f3 0f 11 84 24 98 00 	movss  %xmm0,0x98(%rsp)
    18d2:	00 00 
    18d4:	0f 8f 9e 03 00 00    	jg     1c78 <try_swap+0x1058>
    18da:	49 63 c0             	movslq %r8d,%rax
    18dd:	4c 8d 3c c5 00 00 00 	lea    0x0(,%rax,8),%r15
    18e4:	00 
    18e5:	4c 8d 34 85 04 00 00 	lea    0x4(,%rax,4),%r14
    18ec:	00 
    18ed:	49 63 c3             	movslq %r11d,%rax
    18f0:	49 89 c0             	mov    %rax,%r8
    18f3:	48 8d 04 85 04 00 00 	lea    0x4(,%rax,4),%rax
    18fa:	00 
    18fb:	49 c1 e0 04          	shl    $0x4,%r8
    18ff:	4c 89 84 24 f8 00 00 	mov    %r8,0xf8(%rsp)
    1906:	00 
    1907:	48 89 84 24 f0 00 00 	mov    %rax,0xf0(%rsp)
    190e:	00 
    190f:	90                   	nop
    1910:	44 8b 5c 24 58       	mov    0x58(%rsp),%r11d
    1915:	44 39 9c 24 c8 00 00 	cmp    %r11d,0xc8(%rsp)
    191c:	00 
    191d:	0f 8f 20 03 00 00    	jg     1c43 <try_swap+0x1023>
    1923:	49 8d 6e fc          	lea    -0x4(%r14),%rbp
    1927:	48 8b 9c 24 f0 00 00 	mov    0xf0(%rsp),%rbx
    192e:	00 
    192f:	4c 8b a4 24 f8 00 00 	mov    0xf8(%rsp),%r12
    1936:	00 
    1937:	44 8b ac 24 c8 00 00 	mov    0xc8(%rsp),%r13d
    193e:	00 
    193f:	48 89 e8             	mov    %rbp,%rax
    1942:	4c 89 f5             	mov    %r14,%rbp
    1945:	49 89 c6             	mov    %rax,%r14
    1948:	e9 9c 00 00 00       	jmpq   19e9 <try_swap+0xdc9>
    194d:	0f 1f 00             	nopl   (%rax)
    1950:	0f 14 d2             	unpcklps %xmm2,%xmm2
    1953:	0f 5a c2             	cvtps2pd %xmm2,%xmm0
    1956:	66 0f 2e e0          	ucomisd %xmm0,%xmm4
    195a:	0f 87 33 01 00 00    	ja     1a93 <try_swap+0xe73>
    1960:	0f 28 ca             	movaps %xmm2,%xmm1
    1963:	48 8b 05 00 00 00 00 	mov    0x0(%rip),%rax        # 196a <try_swap+0xd4a>
    196a:	41 83 c5 01          	add    $0x1,%r13d
    196e:	48 83 c3 04          	add    $0x4,%rbx
    1972:	f3 0f 59 cd          	mulss  %xmm5,%xmm1
    1976:	4a 8b 04 38          	mov    (%rax,%r15,1),%rax
    197a:	f3 0f 59 cb          	mulss  %xmm3,%xmm1
    197e:	4c 01 e0             	add    %r12,%rax
    1981:	f3 0f 10 40 08       	movss  0x8(%rax),%xmm0
    1986:	f3 0f 59 8c 24 98 00 	mulss  0x98(%rsp),%xmm1
    198d:	00 00 
    198f:	f3 0f 59 8c 24 80 00 	mulss  0x80(%rsp),%xmm1
    1996:	00 00 
    1998:	f3 0f 5c c1          	subss  %xmm1,%xmm0
    199c:	f3 0f 11 40 08       	movss  %xmm0,0x8(%rax)
    19a1:	0f 28 c3             	movaps %xmm3,%xmm0
    19a4:	48 8b 05 00 00 00 00 	mov    0x0(%rip),%rax        # 19ab <try_swap+0xd8b>
    19ab:	f3 0f 59 c5          	mulss  %xmm5,%xmm0
    19af:	4a 8b 04 38          	mov    (%rax,%r15,1),%rax
    19b3:	f3 0f 59 c2          	mulss  %xmm2,%xmm0
    19b7:	4c 01 e0             	add    %r12,%rax
    19ba:	49 83 c4 10          	add    $0x10,%r12
    19be:	44 3b 6c 24 58       	cmp    0x58(%rsp),%r13d
    19c3:	f3 0f 10 48 08       	movss  0x8(%rax),%xmm1
    19c8:	f3 0f 59 84 24 90 00 	mulss  0x90(%rsp),%xmm0
    19cf:	00 00 
    19d1:	f3 0f 59 84 24 88 00 	mulss  0x88(%rsp),%xmm0
    19d8:	00 00 
    19da:	f3 0f 5c c8          	subss  %xmm0,%xmm1
    19de:	f3 0f 11 48 08       	movss  %xmm1,0x8(%rax)
    19e3:	0f 8f 57 02 00 00    	jg     1c40 <try_swap+0x1020>
    19e9:	48 8b 05 00 00 00 00 	mov    0x0(%rip),%rax        # 19f0 <try_swap+0xdd0>
    19f0:	f3 0f 10 5c 24 68    	movss  0x68(%rsp),%xmm3
    19f6:	f3 0f 10 54 24 78    	movss  0x78(%rsp),%xmm2
    19fc:	f3 42 0f 10 0c 30    	movss  (%rax,%r14,1),%xmm1
    1a02:	f3 0f 5d 1c 28       	minss  (%rax,%rbp,1),%xmm3
    1a07:	f3 0f 5f 4c 24 60    	maxss  0x60(%rsp),%xmm1
    1a0d:	48 8b 05 00 00 00 00 	mov    0x0(%rip),%rax        # 1a14 <try_swap+0xdf4>
    1a14:	f3 0f 10 44 18 fc    	movss  -0x4(%rax,%rbx,1),%xmm0
    1a1a:	f3 0f 5d 14 18       	minss  (%rax,%rbx,1),%xmm2
    1a1f:	f3 0f 5f 44 24 70    	maxss  0x70(%rsp),%xmm0
    1a25:	f3 0f 5c d9          	subss  %xmm1,%xmm3
    1a29:	0f 14 db             	unpcklps %xmm3,%xmm3
    1a2c:	f3 0f 5c d0          	subss  %xmm0,%xmm2
    1a30:	0f 5a c3             	cvtps2pd %xmm3,%xmm0
    1a33:	66 0f 2e e0          	ucomisd %xmm0,%xmm4
    1a37:	0f 86 13 ff ff ff    	jbe    1950 <try_swap+0xd30>
    1a3d:	8b b4 24 a0 00 00 00 	mov    0xa0(%rsp),%esi
    1a44:	bf 00 00 00 00       	mov    $0x0,%edi
    1a49:	b8 01 00 00 00       	mov    $0x1,%eax
    1a4e:	f3 0f 11 54 24 20    	movss  %xmm2,0x20(%rsp)
    1a54:	f3 0f 11 5c 24 30    	movss  %xmm3,0x30(%rsp)
    1a5a:	f2 0f 11 64 24 10    	movsd  %xmm4,0x10(%rsp)
    1a60:	f3 0f 11 6c 24 40    	movss  %xmm5,0x40(%rsp)
    1a66:	e8 00 00 00 00       	callq  1a6b <try_swap+0xe4b>
    1a6b:	f3 0f 10 54 24 20    	movss  0x20(%rsp),%xmm2
    1a71:	0f 14 d2             	unpcklps %xmm2,%xmm2
    1a74:	f3 0f 10 6c 24 40    	movss  0x40(%rsp),%xmm5
    1a7a:	f2 0f 10 64 24 10    	movsd  0x10(%rsp),%xmm4
    1a80:	f3 0f 10 5c 24 30    	movss  0x30(%rsp),%xmm3
    1a86:	0f 5a c2             	cvtps2pd %xmm2,%xmm0
    1a89:	66 0f 2e e0          	ucomisd %xmm0,%xmm4
    1a8d:	0f 86 cd fe ff ff    	jbe    1960 <try_swap+0xd40>
    1a93:	8b b4 24 a0 00 00 00 	mov    0xa0(%rsp),%esi
    1a9a:	bf 00 00 00 00       	mov    $0x0,%edi
    1a9f:	b8 01 00 00 00       	mov    $0x1,%eax
    1aa4:	f3 0f 11 54 24 20    	movss  %xmm2,0x20(%rsp)
    1aaa:	f3 0f 11 5c 24 30    	movss  %xmm3,0x30(%rsp)
    1ab0:	f2 0f 11 64 24 10    	movsd  %xmm4,0x10(%rsp)
    1ab6:	f3 0f 11 6c 24 40    	movss  %xmm5,0x40(%rsp)
    1abc:	e8 00 00 00 00       	callq  1ac1 <try_swap+0xea1>
    1ac1:	f3 0f 10 6c 24 40    	movss  0x40(%rsp),%xmm5
    1ac7:	f2 0f 10 64 24 10    	movsd  0x10(%rsp),%xmm4
    1acd:	f3 0f 10 5c 24 30    	movss  0x30(%rsp),%xmm3
    1ad3:	f3 0f 10 54 24 20    	movss  0x20(%rsp),%xmm2
    1ad9:	e9 82 fe ff ff       	jmpq   1960 <try_swap+0xd40>
    1ade:	66 90                	xchg   %ax,%ax
    1ae0:	49 83 c1 01          	add    $0x1,%r9
    1ae4:	48 63 c5             	movslq %ebp,%rax
    1ae7:	83 c5 01             	add    $0x1,%ebp
    1aea:	45 39 cc             	cmp    %r9d,%r12d
    1aed:	89 3c 82             	mov    %edi,(%rdx,%rax,4)
    1af0:	c7 04 81 01 00 00 00 	movl   $0x1,(%rcx,%rax,4)
    1af7:	c7 06 00 00 80 3f    	movl   $0x3f800000,(%rsi)
    1afd:	0f 8f 4d f7 ff ff    	jg     1250 <try_swap+0x630>
    1b03:	e9 c1 f7 ff ff       	jmpq   12c9 <try_swap+0x6a9>
    1b08:	f3 0f 10 94 24 04 01 	movss  0x104(%rsp),%xmm2
    1b0f:	00 00 
    1b11:	f3 0f 11 94 24 cc 00 	movss  %xmm2,0xcc(%rsp)
    1b18:	00 00 
    1b1a:	83 bc 24 e4 00 00 00 	cmpl   $0x1,0xe4(%rsp)
    1b21:	01 
    1b22:	0f 84 e9 04 00 00    	je     2011 <try_swap+0x13f1>
    1b28:	8b bc 24 e0 01 00 00 	mov    0x1e0(%rsp),%edi
    1b2f:	83 ef 01             	sub    $0x1,%edi
    1b32:	83 ff 01             	cmp    $0x1,%edi
    1b35:	89 7c 24 68          	mov    %edi,0x68(%rsp)
    1b39:	0f 86 c5 06 00 00    	jbe    2204 <try_swap+0x15e4>
    1b3f:	0f 57 d2             	xorps  %xmm2,%xmm2
    1b42:	f3 0f 10 9c 24 cc 00 	movss  0xcc(%rsp),%xmm3
    1b49:	00 00 
    1b4b:	0f 28 ca             	movaps %xmm2,%xmm1
    1b4e:	0f 28 c2             	movaps %xmm2,%xmm0
    1b51:	0f 2e c3             	ucomiss %xmm3,%xmm0
    1b54:	0f 83 02 03 00 00    	jae    1e5c <try_swap+0x123c>
    1b5a:	f3 0f 10 84 24 44 01 	movss  0x144(%rsp),%xmm0
    1b61:	00 00 
    1b63:	0f 2e 84 24 04 01 00 	ucomiss 0x104(%rsp),%xmm0
    1b6a:	00 
    1b6b:	0f 8a 84 02 00 00    	jp     1df5 <try_swap+0x11d5>
    1b71:	0f 85 7e 02 00 00    	jne    1df5 <try_swap+0x11d5>
    1b77:	44 8b 9c 24 00 01 00 	mov    0x100(%rsp),%r11d
    1b7e:	00 
    1b7f:	45 85 db             	test   %r11d,%r11d
    1b82:	7e 2f                	jle    1bb3 <try_swap+0xf93>
    1b84:	48 8b 35 00 00 00 00 	mov    0x0(%rip),%rsi        # 1b8b <try_swap+0xf6b>
    1b8b:	48 8b 0d 00 00 00 00 	mov    0x0(%rip),%rcx        # 1b92 <try_swap+0xf72>
    1b92:	31 c0                	xor    %eax,%eax
    1b94:	8b bc 24 00 01 00 00 	mov    0x100(%rsp),%edi
    1b9b:	0f 1f 44 00 00       	nopl   0x0(%rax,%rax,1)
    1ba0:	48 63 14 86          	movslq (%rsi,%rax,4),%rdx
    1ba4:	48 83 c0 01          	add    $0x1,%rax
    1ba8:	39 c7                	cmp    %eax,%edi
    1baa:	c7 04 91 00 00 80 bf 	movl   $0xbf800000,(%rcx,%rdx,4)
    1bb1:	7f ed                	jg     1ba0 <try_swap+0xf80>
    1bb3:	48 8b 15 00 00 00 00 	mov    0x0(%rip),%rdx        # 1bba <try_swap+0xf9a>
    1bba:	48 8b 84 24 08 01 00 	mov    0x108(%rsp),%rax
    1bc1:	00 
    1bc2:	44 8b a4 24 d4 00 00 	mov    0xd4(%rsp),%r12d
    1bc9:	00 
    1bca:	44 8b b4 24 d8 00 00 	mov    0xd8(%rsp),%r14d
    1bd1:	00 
    1bd2:	44 8b 9c 24 3c 01 00 	mov    0x13c(%rsp),%r11d
    1bd9:	00 
    1bda:	48 01 d0             	add    %rdx,%rax
    1bdd:	83 bc 24 1c 01 00 00 	cmpl   $0xffffffff,0x11c(%rsp)
    1be4:	ff 
    1be5:	44 89 60 18          	mov    %r12d,0x18(%rax)
    1be9:	44 89 70 1c          	mov    %r14d,0x1c(%rax)
    1bed:	44 89 58 20          	mov    %r11d,0x20(%rax)
    1bf1:	74 29                	je     1c1c <try_swap+0xffc>
    1bf3:	48 8b 84 24 20 01 00 	mov    0x120(%rsp),%rax
    1bfa:	00 
    1bfb:	8b b4 24 e0 00 00 00 	mov    0xe0(%rsp),%esi
    1c02:	8b 8c 24 40 01 00 00 	mov    0x140(%rsp),%ecx
    1c09:	48 01 d0             	add    %rdx,%rax
    1c0c:	8b 94 24 dc 00 00 00 	mov    0xdc(%rsp),%edx
    1c13:	89 70 18             	mov    %esi,0x18(%rax)
    1c16:	89 48 20             	mov    %ecx,0x20(%rax)
    1c19:	89 50 1c             	mov    %edx,0x1c(%rax)
    1c1c:	31 c0                	xor    %eax,%eax
    1c1e:	83 bc 24 e4 00 00 00 	cmpl   $0x1,0xe4(%rsp)
    1c25:	01 
    1c26:	0f 84 a4 12 00 00    	je     2ed0 <try_swap+0x22b0>
    1c2c:	48 81 c4 98 01 00 00 	add    $0x198,%rsp
    1c33:	5b                   	pop    %rbx
    1c34:	5d                   	pop    %rbp
    1c35:	41 5c                	pop    %r12
    1c37:	41 5d                	pop    %r13
    1c39:	41 5e                	pop    %r14
    1c3b:	41 5f                	pop    %r15
    1c3d:	c3                   	retq   
    1c3e:	66 90                	xchg   %ax,%ax
    1c40:	49 89 ee             	mov    %rbp,%r14
    1c43:	83 84 24 b8 00 00 00 	addl   $0x1,0xb8(%rsp)
    1c4a:	01 
    1c4b:	49 83 c7 08          	add    $0x8,%r15
    1c4f:	49 83 c6 04          	add    $0x4,%r14
    1c53:	44 8b 8c 24 d0 00 00 	mov    0xd0(%rsp),%r9d
    1c5a:	00 
    1c5b:	44 39 8c 24 b8 00 00 	cmp    %r9d,0xb8(%rsp)
    1c62:	00 
    1c63:	0f 8e a7 fc ff ff    	jle    1910 <try_swap+0xcf0>
    1c69:	48 8b ac 24 b0 00 00 	mov    0xb0(%rsp),%rbp
    1c70:	00 
    1c71:	48 03 2d 00 00 00 00 	add    0x0(%rip),%rbp        # 1c78 <try_swap+0x1058>
    1c78:	8b 94 24 d0 01 00 00 	mov    0x1d0(%rsp),%edx
    1c7f:	8b bc 24 a0 00 00 00 	mov    0xa0(%rsp),%edi
    1c86:	48 89 ee             	mov    %rbp,%rsi
    1c89:	f2 0f 11 64 24 10    	movsd  %xmm4,0x10(%rsp)
    1c8f:	e8 9c eb ff ff       	callq  830 <update_region_occ.constprop.5>
    1c94:	f2 0f 10 64 24 10    	movsd  0x10(%rsp),%xmm4
    1c9a:	e9 ad f7 ff ff       	jmpq   144c <try_swap+0x82c>
    1c9f:	bf 03 00 00 00       	mov    $0x3,%edi
    1ca4:	e8 00 00 00 00       	callq  1ca9 <try_swap+0x1089>
    1ca9:	83 f8 01             	cmp    $0x1,%eax
    1cac:	0f 84 1b 05 00 00    	je     21cd <try_swap+0x15ad>
    1cb2:	0f 8e 9f 0a 00 00    	jle    2757 <try_swap+0x1b37>
    1cb8:	83 f8 02             	cmp    $0x2,%eax
    1cbb:	0f 1f 44 00 00       	nopl   0x0(%rax,%rax,1)
    1cc0:	0f 84 2c 03 00 00    	je     1ff2 <try_swap+0x13d2>
    1cc6:	83 f8 03             	cmp    $0x3,%eax
    1cc9:	0f 84 1d 05 00 00    	je     21ec <try_swap+0x15cc>
    1ccf:	bf 00 00 00 00       	mov    $0x0,%edi
    1cd4:	e8 00 00 00 00       	callq  1cd9 <try_swap+0x10b9>
    1cd9:	bf 01 00 00 00       	mov    $0x1,%edi
    1cde:	e8 00 00 00 00       	callq  1ce3 <try_swap+0x10c3>
    1ce3:	8b bc 24 88 00 00 00 	mov    0x88(%rsp),%edi
    1cea:	e8 00 00 00 00       	callq  1cef <try_swap+0x10cf>
    1cef:	8b 54 24 70          	mov    0x70(%rsp),%edx
    1cf3:	01 c2                	add    %eax,%edx
    1cf5:	8b 05 00 00 00 00    	mov    0x0(%rip),%eax        # 1cfb <try_swap+0x10db>
    1cfb:	39 c2                	cmp    %eax,%edx
    1cfd:	0f 8f ab 04 00 00    	jg     21ae <try_swap+0x158e>
    1d03:	31 ed                	xor    %ebp,%ebp
    1d05:	85 d2                	test   %edx,%edx
    1d07:	0f 8f 60 f2 ff ff    	jg     f6d <try_swap+0x34d>
    1d0d:	8b bc 24 90 00 00 00 	mov    0x90(%rsp),%edi
    1d14:	e8 00 00 00 00       	callq  1d19 <try_swap+0x10f9>
    1d19:	31 d2                	xor    %edx,%edx
    1d1b:	8d 68 01             	lea    0x1(%rax),%ebp
    1d1e:	e9 45 f2 ff ff       	jmpq   f68 <try_swap+0x348>
    1d23:	4c 63 a4 24 18 01 00 	movslq 0x118(%rsp),%r12
    1d2a:	00 
    1d2b:	48 8b 3d 00 00 00 00 	mov    0x0(%rip),%rdi        # 1d32 <try_swap+0x1112>
    1d32:	4b 8d 04 a4          	lea    (%r12,%r12,4),%rax
    1d36:	4c 89 a4 24 10 01 00 	mov    %r12,0x110(%rsp)
    1d3d:	00 
    1d3e:	48 c1 e0 03          	shl    $0x3,%rax
    1d42:	48 89 84 24 08 01 00 	mov    %rax,0x108(%rsp)
    1d49:	00 
    1d4a:	48 03 05 00 00 00 00 	add    0x0(%rip),%rax        # 1d51 <try_swap+0x1131>
    1d51:	4c 8b 70 08          	mov    0x8(%rax),%r14
    1d55:	49 39 fe             	cmp    %rdi,%r14
    1d58:	0f 85 d6 ef ff ff    	jne    d34 <try_swap+0x114>
    1d5e:	66 90                	xchg   %ax,%ax
    1d60:	8b 3d 00 00 00 00    	mov    0x0(%rip),%edi        # 1d66 <try_swap+0x1146>
    1d66:	83 ef 01             	sub    $0x1,%edi
    1d69:	e8 00 00 00 00       	callq  1d6e <try_swap+0x114e>
    1d6e:	48 63 d0             	movslq %eax,%rdx
    1d71:	48 8b 35 00 00 00 00 	mov    0x0(%rip),%rsi        # 1d78 <try_swap+0x1158>
    1d78:	48 8b 3d 00 00 00 00 	mov    0x0(%rip),%rdi        # 1d7f <try_swap+0x115f>
    1d7f:	48 8d 0c 92          	lea    (%rdx,%rdx,4),%rcx
    1d83:	48 c1 e1 03          	shl    $0x3,%rcx
    1d87:	48 01 ce             	add    %rcx,%rsi
    1d8a:	4c 8b 76 08          	mov    0x8(%rsi),%r14
    1d8e:	49 39 fe             	cmp    %rdi,%r14
    1d91:	74 cd                	je     1d60 <try_swap+0x1140>
    1d93:	89 84 24 18 01 00 00 	mov    %eax,0x118(%rsp)
    1d9a:	48 89 94 24 10 01 00 	mov    %rdx,0x110(%rsp)
    1da1:	00 
    1da2:	48 89 f0             	mov    %rsi,%rax
    1da5:	48 89 8c 24 08 01 00 	mov    %rcx,0x108(%rsp)
    1dac:	00 
    1dad:	e9 82 ef ff ff       	jmpq   d34 <try_swap+0x114>
    1db2:	f3 42 0f 10 2c 95 00 	movss  0x0(,%r10,4),%xmm5
    1db9:	00 00 00 
    1dbc:	e9 61 f9 ff ff       	jmpq   1722 <try_swap+0xb02>
    1dc1:	44 89 c0             	mov    %r8d,%eax
    1dc4:	41 8b 76 10          	mov    0x10(%r14),%esi
    1dc8:	44 29 e8             	sub    %r13d,%eax
    1dcb:	89 c2                	mov    %eax,%edx
    1dcd:	c1 fa 1f             	sar    $0x1f,%edx
    1dd0:	f7 fe                	idiv   %esi
    1dd2:	83 f8 01             	cmp    $0x1,%eax
    1dd5:	7e 17                	jle    1dee <try_swap+0x11ce>
    1dd7:	8b 05 00 00 00 00    	mov    0x0(%rip),%eax        # 1ddd <try_swap+0x11bd>
    1ddd:	89 c2                	mov    %eax,%edx
    1ddf:	c1 ea 1f             	shr    $0x1f,%edx
    1de2:	01 d0                	add    %edx,%eax
    1de4:	d1 f8                	sar    %eax
    1de6:	39 c6                	cmp    %eax,%esi
    1de8:	0f 8e 85 f0 ff ff    	jle    e73 <try_swap+0x253>
    1dee:	31 c0                	xor    %eax,%eax
    1df0:	e9 37 fe ff ff       	jmpq   1c2c <try_swap+0x100c>
    1df5:	f3 0f 11 4c 24 40    	movss  %xmm1,0x40(%rsp)
    1dfb:	f3 0f 11 54 24 20    	movss  %xmm2,0x20(%rsp)
    1e01:	f3 0f 11 5c 24 30    	movss  %xmm3,0x30(%rsp)
    1e07:	e8 00 00 00 00       	callq  1e0c <try_swap+0x11ec>
    1e0c:	f3 0f 11 44 24 58    	movss  %xmm0,0x58(%rsp)
    1e12:	f3 0f 10 05 00 00 00 	movss  0x0(%rip),%xmm0        # 1e1a <try_swap+0x11fa>
    1e19:	00 
    1e1a:	f3 0f 10 5c 24 30    	movss  0x30(%rsp),%xmm3
    1e20:	0f 57 c3             	xorps  %xmm3,%xmm0
    1e23:	f3 0f 5e 84 24 44 01 	divss  0x144(%rsp),%xmm0
    1e2a:	00 00 
    1e2c:	0f 14 c0             	unpcklps %xmm0,%xmm0
    1e2f:	0f 5a c0             	cvtps2pd %xmm0,%xmm0
    1e32:	e8 00 00 00 00       	callq  1e37 <try_swap+0x1217>
    1e37:	66 0f 14 c0          	unpcklpd %xmm0,%xmm0
    1e3b:	f3 0f 10 4c 24 40    	movss  0x40(%rsp),%xmm1
    1e41:	f3 0f 10 54 24 20    	movss  0x20(%rsp),%xmm2
    1e47:	66 0f 5a c0          	cvtpd2ps %xmm0,%xmm0
    1e4b:	f3 0f 10 5c 24 30    	movss  0x30(%rsp),%xmm3
    1e51:	0f 2e 44 24 58       	ucomiss 0x58(%rsp),%xmm0
    1e56:	0f 86 1b fd ff ff    	jbe    1b77 <try_swap+0xf57>
    1e5c:	48 8b bc 24 60 01 00 	mov    0x160(%rsp),%rdi
    1e63:	00 
    1e64:	48 8b b4 24 48 01 00 	mov    0x148(%rsp),%rsi
    1e6b:	00 
    1e6c:	f3 0f 10 84 24 cc 00 	movss  0xcc(%rsp),%xmm0
    1e73:	00 00 
    1e75:	83 7c 24 68 01       	cmpl   $0x1,0x68(%rsp)
    1e7a:	f3 0f 58 1f          	addss  (%rdi),%xmm3
    1e7e:	f3 0f 11 1f          	movss  %xmm3,(%rdi)
    1e82:	f3 0f 58 06          	addss  (%rsi),%xmm0
    1e86:	f3 0f 11 06          	movss  %xmm0,(%rsi)
    1e8a:	0f 86 54 09 00 00    	jbe    27e4 <try_swap+0x1bc4>
    1e90:	8b 84 24 00 01 00 00 	mov    0x100(%rsp),%eax
    1e97:	85 c0                	test   %eax,%eax
    1e99:	0f 8e d0 00 00 00    	jle    1f6f <try_swap+0x134f>
    1e9f:	4c 8b 1d 00 00 00 00 	mov    0x0(%rip),%r11        # 1ea6 <try_swap+0x1286>
    1ea6:	4c 8b 15 00 00 00 00 	mov    0x0(%rip),%r10        # 1ead <try_swap+0x128d>
    1ead:	31 c0                	xor    %eax,%eax
    1eaf:	48 8b 1d 00 00 00 00 	mov    0x0(%rip),%rbx        # 1eb6 <try_swap+0x1296>
    1eb6:	31 ff                	xor    %edi,%edi
    1eb8:	8b ac 24 00 01 00 00 	mov    0x100(%rsp),%ebp
    1ebf:	e9 8d 00 00 00       	jmpq   1f51 <try_swap+0x1331>
    1ec4:	0f 1f 40 00          	nopl   0x0(%rax)
    1ec8:	4c 8b 0d 00 00 00 00 	mov    0x0(%rip),%r9        # 1ecf <try_swap+0x12af>
    1ecf:	48 63 cf             	movslq %edi,%rcx
    1ed2:	4c 8b 05 00 00 00 00 	mov    0x0(%rip),%r8        # 1ed9 <try_swap+0x12b9>
    1ed9:	48 c1 e1 04          	shl    $0x4,%rcx
    1edd:	48 89 d6             	mov    %rdx,%rsi
    1ee0:	48 c1 e6 04          	shl    $0x4,%rsi
    1ee4:	4d 8b 24 09          	mov    (%r9,%rcx,1),%r12
    1ee8:	4d 89 24 30          	mov    %r12,(%r8,%rsi,1)
    1eec:	4d 8b 4c 09 08       	mov    0x8(%r9,%rcx,1),%r9
    1ef1:	4c 8b 25 00 00 00 00 	mov    0x0(%rip),%r12        # 1ef8 <try_swap+0x12d8>
    1ef8:	4d 89 4c 30 08       	mov    %r9,0x8(%r8,%rsi,1)
    1efd:	4c 8d 04 92          	lea    (%rdx,%rdx,4),%r8
    1f01:	4f 8d 04 c4          	lea    (%r12,%r8,8),%r8
    1f05:	41 83 78 08 03       	cmpl   $0x3,0x8(%r8)
    1f0a:	7e 20                	jle    1f2c <try_swap+0x130c>
    1f0c:	4c 8b 0d 00 00 00 00 	mov    0x0(%rip),%r9        # 1f13 <try_swap+0x12f3>
    1f13:	4c 8b 05 00 00 00 00 	mov    0x0(%rip),%r8        # 1f1a <try_swap+0x12fa>
    1f1a:	4d 8b 24 09          	mov    (%r9,%rcx,1),%r12
    1f1e:	4d 89 24 30          	mov    %r12,(%r8,%rsi,1)
    1f22:	49 8b 4c 09 08       	mov    0x8(%r9,%rcx,1),%rcx
    1f27:	49 89 4c 30 08       	mov    %rcx,0x8(%r8,%rsi,1)
    1f2c:	48 8d 0c 93          	lea    (%rbx,%rdx,4),%rcx
    1f30:	48 8b 35 00 00 00 00 	mov    0x0(%rip),%rsi        # 1f37 <try_swap+0x1317>
    1f37:	48 83 c0 01          	add    $0x1,%rax
    1f3b:	83 c7 01             	add    $0x1,%edi
    1f3e:	39 c5                	cmp    %eax,%ebp
    1f40:	f3 0f 10 01          	movss  (%rcx),%xmm0
    1f44:	f3 0f 11 04 96       	movss  %xmm0,(%rsi,%rdx,4)
    1f49:	c7 01 00 00 80 bf    	movl   $0xbf800000,(%rcx)
    1f4f:	7e 1e                	jle    1f6f <try_swap+0x134f>
    1f51:	41 83 3c 82 02       	cmpl   $0x2,(%r10,%rax,4)
    1f56:	49 63 14 83          	movslq (%r11,%rax,4),%rdx
    1f5a:	0f 85 68 ff ff ff    	jne    1ec8 <try_swap+0x12a8>
    1f60:	48 83 c0 01          	add    $0x1,%rax
    1f64:	39 c5                	cmp    %eax,%ebp
    1f66:	c7 04 93 00 00 80 bf 	movl   $0xbf800000,(%rbx,%rdx,4)
    1f6d:	7f e2                	jg     1f51 <try_swap+0x1331>
    1f6f:	48 8b 05 00 00 00 00 	mov    0x0(%rip),%rax        # 1f76 <try_swap+0x1356>
    1f76:	4c 8b 9c 24 28 01 00 	mov    0x128(%rsp),%r11
    1f7d:	00 
    1f7e:	48 8b 8c 24 30 01 00 	mov    0x130(%rsp),%rcx
    1f85:	00 
    1f86:	44 8b b4 24 18 01 00 	mov    0x118(%rsp),%r14d
    1f8d:	00 
    1f8e:	4c 8b a4 24 58 01 00 	mov    0x158(%rsp),%r12
    1f95:	00 
    1f96:	48 63 b4 24 d4 00 00 	movslq 0xd4(%rsp),%rsi
    1f9d:	00 
    1f9e:	4a 03 0c d8          	add    (%rax,%r11,8),%rcx
    1fa2:	44 8b 9c 24 1c 01 00 	mov    0x11c(%rsp),%r11d
    1fa9:	00 
    1faa:	48 8b 04 f0          	mov    (%rax,%rsi,8),%rax
    1fae:	48 63 b4 24 3c 01 00 	movslq 0x13c(%rsp),%rsi
    1fb5:	00 
    1fb6:	41 83 fb ff          	cmp    $0xffffffff,%r11d
    1fba:	48 8b 51 10          	mov    0x10(%rcx),%rdx
    1fbe:	46 89 34 22          	mov    %r14d,(%rdx,%r12,1)
    1fc2:	48 63 94 24 d8 00 00 	movslq 0xd8(%rsp),%rdx
    1fc9:	00 
    1fca:	48 8d 14 52          	lea    (%rdx,%rdx,2),%rdx
    1fce:	48 8d 14 d0          	lea    (%rax,%rdx,8),%rdx
    1fd2:	48 8b 42 10          	mov    0x10(%rdx),%rax
    1fd6:	44 89 1c b0          	mov    %r11d,(%rax,%rsi,4)
    1fda:	b8 01 00 00 00       	mov    $0x1,%eax
    1fdf:	0f 85 47 fc ff ff    	jne    1c2c <try_swap+0x100c>
    1fe5:	83 41 0c 01          	addl   $0x1,0xc(%rcx)
    1fe9:	83 6a 0c 01          	subl   $0x1,0xc(%rdx)
    1fed:	e9 3a fc ff ff       	jmpq   1c2c <try_swap+0x100c>
    1ff2:	8b 3d 00 00 00 00    	mov    0x0(%rip),%edi        # 1ff8 <try_swap+0x13d8>
    1ff8:	83 ef 01             	sub    $0x1,%edi
    1ffb:	e8 00 00 00 00       	callq  2000 <try_swap+0x13e0>
    2000:	8b 2d 00 00 00 00    	mov    0x0(%rip),%ebp        # 2006 <try_swap+0x13e6>
    2006:	8d 50 01             	lea    0x1(%rax),%edx
    2009:	83 c5 01             	add    $0x1,%ebp
    200c:	e9 57 ef ff ff       	jmpq   f68 <try_swap+0x348>
    2011:	8b 94 24 d0 01 00 00 	mov    0x1d0(%rsp),%edx
    2018:	0f 57 c0             	xorps  %xmm0,%xmm0
    201b:	85 d2                	test   %edx,%edx
    201d:	0f 8e 89 00 00 00    	jle    20ac <try_swap+0x148c>
    2023:	8b 84 24 d0 01 00 00 	mov    0x1d0(%rsp),%eax
    202a:	4c 8b 0d 00 00 00 00 	mov    0x0(%rip),%r9        # 2031 <try_swap+0x1411>
    2031:	31 f6                	xor    %esi,%esi
    2033:	4c 8b 05 00 00 00 00 	mov    0x0(%rip),%r8        # 203a <try_swap+0x141a>
    203a:	0f 57 c0             	xorps  %xmm0,%xmm0
    203d:	44 8b 94 24 d0 01 00 	mov    0x1d0(%rsp),%r10d
    2044:	00 
    2045:	83 e8 01             	sub    $0x1,%eax
    2048:	48 c1 e0 04          	shl    $0x4,%rax
    204c:	48 8d 78 10          	lea    0x10(%rax),%rdi
    2050:	49 8b 04 f1          	mov    (%r9,%rsi,8),%rax
    2054:	49 8b 14 f0          	mov    (%r8,%rsi,8),%rdx
    2058:	48 8d 0c 38          	lea    (%rax,%rdi,1),%rcx
    205c:	0f 1f 40 00          	nopl   0x0(%rax)
    2060:	f3 0f 10 48 08       	movss  0x8(%rax),%xmm1
    2065:	f3 0f 10 10          	movss  (%rax),%xmm2
    2069:	0f 2e d1             	ucomiss %xmm1,%xmm2
    206c:	f3 0f 59 48 04       	mulss  0x4(%rax),%xmm1
    2071:	77 04                	ja     2077 <try_swap+0x1457>
    2073:	f3 0f 59 c9          	mulss  %xmm1,%xmm1
    2077:	f3 0f 58 c8          	addss  %xmm0,%xmm1
    207b:	f3 0f 10 12          	movss  (%rdx),%xmm2
    207f:	f3 0f 10 42 08       	movss  0x8(%rdx),%xmm0
    2084:	0f 2e d0             	ucomiss %xmm0,%xmm2
    2087:	f3 0f 59 42 04       	mulss  0x4(%rdx),%xmm0
    208c:	77 04                	ja     2092 <try_swap+0x1472>
    208e:	f3 0f 59 c0          	mulss  %xmm0,%xmm0
    2092:	48 83 c0 10          	add    $0x10,%rax
    2096:	48 83 c2 10          	add    $0x10,%rdx
    209a:	f3 0f 58 c1          	addss  %xmm1,%xmm0
    209e:	48 39 c8             	cmp    %rcx,%rax
    20a1:	75 bd                	jne    2060 <try_swap+0x1440>
    20a3:	48 83 c6 01          	add    $0x1,%rsi
    20a7:	41 39 f2             	cmp    %esi,%r10d
    20aa:	7f a4                	jg     2050 <try_swap+0x1430>
    20ac:	48 8b b4 24 48 01 00 	mov    0x148(%rsp),%rsi
    20b3:	00 
    20b4:	f3 0f 5c 06          	subss  (%rsi),%xmm0
    20b8:	f3 0f 11 84 24 cc 00 	movss  %xmm0,0xcc(%rsp)
    20bf:	00 00 
    20c1:	e9 62 fa ff ff       	jmpq   1b28 <try_swap+0xf08>
    20c6:	48 8b 84 24 08 01 00 	mov    0x108(%rsp),%rax
    20cd:	00 
    20ce:	8b b4 24 e0 00 00 00 	mov    0xe0(%rsp),%esi
    20d5:	8b 94 24 dc 00 00 00 	mov    0xdc(%rsp),%edx
    20dc:	8b 8c 24 40 01 00 00 	mov    0x140(%rsp),%ecx
    20e3:	48 c7 84 24 20 01 00 	movq   $0xffffffffffffffd8,0x120(%rsp)
    20ea:	00 d8 ff ff ff 
    20ef:	48 c7 84 24 50 01 00 	movq   $0xffffffffffffffff,0x150(%rsp)
    20f6:	00 ff ff ff ff 
    20fb:	4c 01 d0             	add    %r10,%rax
    20fe:	89 70 18             	mov    %esi,0x18(%rax)
    2101:	89 50 1c             	mov    %edx,0x1c(%rax)
    2104:	89 48 20             	mov    %ecx,0x20(%rax)
    2107:	e9 46 f0 ff ff       	jmpq   1152 <try_swap+0x532>
    210c:	45 31 ff             	xor    %r15d,%r15d
    210f:	e9 5f ed ff ff       	jmpq   e73 <try_swap+0x253>
    2114:	31 f6                	xor    %esi,%esi
    2116:	e9 a7 f4 ff ff       	jmpq   15c2 <try_swap+0x9a2>
    211b:	41 89 f1             	mov    %esi,%r9d
    211e:	41 89 f8             	mov    %edi,%r8d
    2121:	e9 6c f5 ff ff       	jmpq   1692 <try_swap+0xa72>
    2126:	8b bc 24 88 00 00 00 	mov    0x88(%rsp),%edi
    212d:	e8 00 00 00 00       	callq  2132 <try_swap+0x1512>
    2132:	8b 54 24 70          	mov    0x70(%rsp),%edx
    2136:	01 c2                	add    %eax,%edx
    2138:	8b 05 00 00 00 00    	mov    0x0(%rip),%eax        # 213e <try_swap+0x151e>
    213e:	39 c2                	cmp    %eax,%edx
    2140:	0f 8f 45 0e 00 00    	jg     2f8b <try_swap+0x236b>
    2146:	85 d2                	test   %edx,%edx
    2148:	44 89 e5             	mov    %r12d,%ebp
    214b:	0f 8f 1c ee ff ff    	jg     f6d <try_swap+0x34d>
    2151:	8b 2d 00 00 00 00    	mov    0x0(%rip),%ebp        # 2157 <try_swap+0x1537>
    2157:	8b bc 24 90 00 00 00 	mov    0x90(%rsp),%edi
    215e:	e8 00 00 00 00       	callq  2163 <try_swap+0x1543>
    2163:	31 d2                	xor    %edx,%edx
    2165:	29 c5                	sub    %eax,%ebp
    2167:	e9 fc ed ff ff       	jmpq   f68 <try_swap+0x348>
    216c:	8b 15 00 00 00 00    	mov    0x0(%rip),%edx        # 2172 <try_swap+0x1552>
    2172:	8b bc 24 98 00 00 00 	mov    0x98(%rsp),%edi
    2179:	8d 68 01             	lea    0x1(%rax),%ebp
    217c:	89 54 24 40          	mov    %edx,0x40(%rsp)
    2180:	e8 00 00 00 00       	callq  2185 <try_swap+0x1565>
    2185:	8b 54 24 40          	mov    0x40(%rsp),%edx
    2189:	29 c2                	sub    %eax,%edx
    218b:	e9 d8 ed ff ff       	jmpq   f68 <try_swap+0x348>
    2190:	8b bc 24 98 00 00 00 	mov    0x98(%rsp),%edi
    2197:	8d 68 01             	lea    0x1(%rax),%ebp
    219a:	e8 00 00 00 00       	callq  219f <try_swap+0x157f>
    219f:	8d 50 01             	lea    0x1(%rax),%edx
    21a2:	e9 c1 ed ff ff       	jmpq   f68 <try_swap+0x348>
    21a7:	31 d2                	xor    %edx,%edx
    21a9:	e9 28 eb ff ff       	jmpq   cd6 <try_swap+0xb6>
    21ae:	8b bc 24 90 00 00 00 	mov    0x90(%rsp),%edi
    21b5:	8d 50 01             	lea    0x1(%rax),%edx
    21b8:	89 54 24 40          	mov    %edx,0x40(%rsp)
    21bc:	e8 00 00 00 00       	callq  21c1 <try_swap+0x15a1>
    21c1:	8b 54 24 40          	mov    0x40(%rsp),%edx
    21c5:	8d 68 01             	lea    0x1(%rax),%ebp
    21c8:	e9 9b ed ff ff       	jmpq   f68 <try_swap+0x348>
    21cd:	8b 3d 00 00 00 00    	mov    0x0(%rip),%edi        # 21d3 <try_swap+0x15b3>
    21d3:	83 ef 01             	sub    $0x1,%edi
    21d6:	e8 00 00 00 00       	callq  21db <try_swap+0x15bb>
    21db:	8b 15 00 00 00 00    	mov    0x0(%rip),%edx        # 21e1 <try_swap+0x15c1>
    21e1:	8d 68 01             	lea    0x1(%rax),%ebp
    21e4:	83 c2 01             	add    $0x1,%edx
    21e7:	e9 7c ed ff ff       	jmpq   f68 <try_swap+0x348>
    21ec:	8b 3d 00 00 00 00    	mov    0x0(%rip),%edi        # 21f2 <try_swap+0x15d2>
    21f2:	83 ef 01             	sub    $0x1,%edi
    21f5:	e8 00 00 00 00       	callq  21fa <try_swap+0x15da>
    21fa:	31 d2                	xor    %edx,%edx
    21fc:	8d 68 01             	lea    0x1(%rax),%ebp
    21ff:	e9 64 ed ff ff       	jmpq   f68 <try_swap+0x348>
    2204:	8b 84 24 38 01 00 00 	mov    0x138(%rsp),%eax
    220b:	85 c0                	test   %eax,%eax
    220d:	0f 8e c4 0d 00 00    	jle    2fd7 <try_swap+0x23b7>
    2213:	44 8b 9c 24 38 01 00 	mov    0x138(%rsp),%r11d
    221a:	00 
    221b:	0f 57 c9             	xorps  %xmm1,%xmm1
    221e:	4c 8b bc 24 10 01 00 	mov    0x110(%rsp),%r15
    2225:	00 
    2226:	45 31 e4             	xor    %r12d,%r12d
    2229:	41 83 eb 01          	sub    $0x1,%r11d
    222d:	f3 0f 11 4c 24 58    	movss  %xmm1,0x58(%rsp)
    2233:	44 89 d8             	mov    %r11d,%eax
    2236:	49 c1 e7 03          	shl    $0x3,%r15
    223a:	f3 0f 11 4c 24 60    	movss  %xmm1,0x60(%rsp)
    2240:	48 8d 04 85 04 00 00 	lea    0x4(,%rax,4),%rax
    2247:	00 
    2248:	44 89 5c 24 78       	mov    %r11d,0x78(%rsp)
    224d:	4c 89 bc 24 80 00 00 	mov    %r15,0x80(%rsp)
    2254:	00 
    2255:	48 89 44 24 70       	mov    %rax,0x70(%rsp)
    225a:	66 0f 1f 44 00 00    	nopw   0x0(%rax,%rax,1)
    2260:	48 8b 05 00 00 00 00 	mov    0x0(%rip),%rax        # 2267 <try_swap+0x1647>
    2267:	4c 8b b4 24 08 01 00 	mov    0x108(%rsp),%r14
    226e:	00 
    226f:	4a 8b 44 30 10       	mov    0x10(%rax,%r14,1),%rax
    2274:	42 8b 1c 20          	mov    (%rax,%r12,1),%ebx
    2278:	83 fb ff             	cmp    $0xffffffff,%ebx
    227b:	0f 84 ff 00 00 00    	je     2380 <try_swap+0x1760>
    2281:	48 63 d3             	movslq %ebx,%rdx
    2284:	48 8b 0d 00 00 00 00 	mov    0x0(%rip),%rcx        # 228b <try_swap+0x166b>
    228b:	48 8d 2c 92          	lea    (%rdx,%rdx,4),%rbp
    228f:	48 c1 e5 03          	shl    $0x3,%rbp
    2293:	48 01 e9             	add    %rbp,%rcx
    2296:	8b 41 20             	mov    0x20(%rcx),%eax
    2299:	85 c0                	test   %eax,%eax
    229b:	0f 85 df 00 00 00    	jne    2380 <try_swap+0x1760>
    22a1:	48 8b 05 00 00 00 00 	mov    0x0(%rip),%rax        # 22a8 <try_swap+0x1688>
    22a8:	4c 8b 84 24 80 00 00 	mov    0x80(%rsp),%r8
    22af:	00 
    22b0:	4a 8b 04 00          	mov    (%rax,%r8,1),%rax
    22b4:	42 8b 04 20          	mov    (%rax,%r12,1),%eax
    22b8:	85 c0                	test   %eax,%eax
    22ba:	0f 85 9e 02 00 00    	jne    255e <try_swap+0x193e>
    22c0:	8b 41 08             	mov    0x8(%rcx),%eax
    22c3:	45 31 ff             	xor    %r15d,%r15d
    22c6:	4c 8d 34 d5 00 00 00 	lea    0x0(,%rdx,8),%r14
    22cd:	00 
    22ce:	85 c0                	test   %eax,%eax
    22d0:	0f 8e aa 00 00 00    	jle    2380 <try_swap+0x1760>
    22d6:	66 2e 0f 1f 84 00 00 	nopw   %cs:0x0(%rax,%rax,1)
    22dd:	00 00 00 
    22e0:	41 8d 77 01          	lea    0x1(%r15),%esi
    22e4:	89 df                	mov    %ebx,%edi
    22e6:	45 89 fd             	mov    %r15d,%r13d
    22e9:	49 83 c7 01          	add    $0x1,%r15
    22ed:	41 83 c5 02          	add    $0x2,%r13d
    22f1:	e8 7a e2 ff ff       	callq  570 <comp_td_point_to_point_delay>
    22f6:	48 8b 05 00 00 00 00 	mov    0x0(%rip),%rax        # 22fd <try_swap+0x16dd>
    22fd:	48 8b 15 00 00 00 00 	mov    0x0(%rip),%rdx        # 2304 <try_swap+0x16e4>
    2304:	4a 8b 04 30          	mov    (%rax,%r14,1),%rax
    2308:	4a 8b 14 32          	mov    (%rdx,%r14,1),%rdx
    230c:	4a 8d 04 b8          	lea    (%rax,%r15,4),%rax
    2310:	f3 0f 11 00          	movss  %xmm0,(%rax)
    2314:	f3 42 0f 59 04 ba    	mulss  (%rdx,%r15,4),%xmm0
    231a:	48 8b 15 00 00 00 00 	mov    0x0(%rip),%rdx        # 2321 <try_swap+0x1701>
    2321:	4a 8b 14 32          	mov    (%rdx,%r14,1),%rdx
    2325:	f3 42 0f 11 04 ba    	movss  %xmm0,(%rdx,%r15,4)
    232b:	48 8b 15 00 00 00 00 	mov    0x0(%rip),%rdx        # 2332 <try_swap+0x1712>
    2332:	f3 0f 10 08          	movss  (%rax),%xmm1
    2336:	48 8b 05 00 00 00 00 	mov    0x0(%rip),%rax        # 233d <try_swap+0x171d>
    233d:	4a 8b 14 32          	mov    (%rdx,%r14,1),%rdx
    2341:	4a 8b 04 30          	mov    (%rax,%r14,1),%rax
    2345:	f3 42 0f 5c 0c ba    	subss  (%rdx,%r15,4),%xmm1
    234b:	f3 42 0f 5c 04 b8    	subss  (%rax,%r15,4),%xmm0
    2351:	48 8b 05 00 00 00 00 	mov    0x0(%rip),%rax        # 2358 <try_swap+0x1738>
    2358:	f3 0f 58 4c 24 58    	addss  0x58(%rsp),%xmm1
    235e:	44 39 6c 28 08       	cmp    %r13d,0x8(%rax,%rbp,1)
    2363:	f3 0f 58 44 24 60    	addss  0x60(%rsp),%xmm0
    2369:	f3 0f 11 4c 24 58    	movss  %xmm1,0x58(%rsp)
    236f:	f3 0f 11 44 24 60    	movss  %xmm0,0x60(%rsp)
    2375:	0f 8d 65 ff ff ff    	jge    22e0 <try_swap+0x16c0>
    237b:	0f 1f 44 00 00       	nopl   0x0(%rax,%rax,1)
    2380:	49 83 c4 04          	add    $0x4,%r12
    2384:	4c 3b 64 24 70       	cmp    0x70(%rsp),%r12
    2389:	0f 85 d1 fe ff ff    	jne    2260 <try_swap+0x1640>
    238f:	83 bc 24 1c 01 00 00 	cmpl   $0xffffffff,0x11c(%rsp)
    2396:	ff 
    2397:	f3 0f 10 54 24 58    	movss  0x58(%rsp),%xmm2
    239d:	f3 0f 10 4c 24 60    	movss  0x60(%rsp),%xmm1
    23a3:	0f 84 6a 01 00 00    	je     2513 <try_swap+0x18f3>
    23a9:	8b 44 24 78          	mov    0x78(%rsp),%eax
    23ad:	4c 8b bc 24 50 01 00 	mov    0x150(%rsp),%r15
    23b4:	00 
    23b5:	f3 0f 11 54 24 58    	movss  %xmm2,0x58(%rsp)
    23bb:	f3 0f 11 4c 24 60    	movss  %xmm1,0x60(%rsp)
    23c1:	45 31 e4             	xor    %r12d,%r12d
    23c4:	49 c1 e7 03          	shl    $0x3,%r15
    23c8:	48 8d 04 85 04 00 00 	lea    0x4(,%rax,4),%rax
    23cf:	00 
    23d0:	4c 89 7c 24 78       	mov    %r15,0x78(%rsp)
    23d5:	48 89 44 24 70       	mov    %rax,0x70(%rsp)
    23da:	66 0f 1f 44 00 00    	nopw   0x0(%rax,%rax,1)
    23e0:	48 8b 05 00 00 00 00 	mov    0x0(%rip),%rax        # 23e7 <try_swap+0x17c7>
    23e7:	4c 8b 9c 24 20 01 00 	mov    0x120(%rsp),%r11
    23ee:	00 
    23ef:	4a 8b 44 18 10       	mov    0x10(%rax,%r11,1),%rax
    23f4:	42 8b 1c 20          	mov    (%rax,%r12,1),%ebx
    23f8:	83 fb ff             	cmp    $0xffffffff,%ebx
    23fb:	0f 84 f7 00 00 00    	je     24f8 <try_swap+0x18d8>
    2401:	48 63 d3             	movslq %ebx,%rdx
    2404:	48 8b 0d 00 00 00 00 	mov    0x0(%rip),%rcx        # 240b <try_swap+0x17eb>
    240b:	48 8d 2c 92          	lea    (%rdx,%rdx,4),%rbp
    240f:	48 c1 e5 03          	shl    $0x3,%rbp
    2413:	48 01 e9             	add    %rbp,%rcx
    2416:	8b 41 20             	mov    0x20(%rcx),%eax
    2419:	85 c0                	test   %eax,%eax
    241b:	0f 85 d7 00 00 00    	jne    24f8 <try_swap+0x18d8>
    2421:	48 8b 05 00 00 00 00 	mov    0x0(%rip),%rax        # 2428 <try_swap+0x1808>
    2428:	4c 8b 74 24 78       	mov    0x78(%rsp),%r14
    242d:	4a 8b 04 30          	mov    (%rax,%r14,1),%rax
    2431:	42 8b 04 20          	mov    (%rax,%r12,1),%eax
    2435:	85 c0                	test   %eax,%eax
    2437:	0f 85 d5 01 00 00    	jne    2612 <try_swap+0x19f2>
    243d:	8b 41 08             	mov    0x8(%rcx),%eax
    2440:	45 31 f6             	xor    %r14d,%r14d
    2443:	4c 8d 3c d5 00 00 00 	lea    0x0(,%rdx,8),%r15
    244a:	00 
    244b:	85 c0                	test   %eax,%eax
    244d:	0f 8e a5 00 00 00    	jle    24f8 <try_swap+0x18d8>
    2453:	0f 1f 44 00 00       	nopl   0x0(%rax,%rax,1)
    2458:	41 8d 76 01          	lea    0x1(%r14),%esi
    245c:	89 df                	mov    %ebx,%edi
    245e:	45 89 f5             	mov    %r14d,%r13d
    2461:	49 83 c6 01          	add    $0x1,%r14
    2465:	41 83 c5 02          	add    $0x2,%r13d
    2469:	e8 02 e1 ff ff       	callq  570 <comp_td_point_to_point_delay>
    246e:	48 8b 05 00 00 00 00 	mov    0x0(%rip),%rax        # 2475 <try_swap+0x1855>
    2475:	48 8b 15 00 00 00 00 	mov    0x0(%rip),%rdx        # 247c <try_swap+0x185c>
    247c:	4a 8b 04 38          	mov    (%rax,%r15,1),%rax
    2480:	4a 8b 14 3a          	mov    (%rdx,%r15,1),%rdx
    2484:	4a 8d 04 b0          	lea    (%rax,%r14,4),%rax
    2488:	f3 0f 11 00          	movss  %xmm0,(%rax)
    248c:	f3 42 0f 59 04 b2    	mulss  (%rdx,%r14,4),%xmm0
    2492:	48 8b 15 00 00 00 00 	mov    0x0(%rip),%rdx        # 2499 <try_swap+0x1879>
    2499:	4a 8b 14 3a          	mov    (%rdx,%r15,1),%rdx
    249d:	f3 42 0f 11 04 b2    	movss  %xmm0,(%rdx,%r14,4)
    24a3:	48 8b 15 00 00 00 00 	mov    0x0(%rip),%rdx        # 24aa <try_swap+0x188a>
    24aa:	f3 0f 10 18          	movss  (%rax),%xmm3
    24ae:	48 8b 05 00 00 00 00 	mov    0x0(%rip),%rax        # 24b5 <try_swap+0x1895>
    24b5:	4a 8b 14 3a          	mov    (%rdx,%r15,1),%rdx
    24b9:	4a 8b 04 38          	mov    (%rax,%r15,1),%rax
    24bd:	f3 42 0f 5c 1c b2    	subss  (%rdx,%r14,4),%xmm3
    24c3:	f3 42 0f 5c 04 b0    	subss  (%rax,%r14,4),%xmm0
    24c9:	48 8b 05 00 00 00 00 	mov    0x0(%rip),%rax        # 24d0 <try_swap+0x18b0>
    24d0:	f3 0f 58 5c 24 58    	addss  0x58(%rsp),%xmm3
    24d6:	44 39 6c 28 08       	cmp    %r13d,0x8(%rax,%rbp,1)
    24db:	f3 0f 58 44 24 60    	addss  0x60(%rsp),%xmm0
    24e1:	f3 0f 11 5c 24 58    	movss  %xmm3,0x58(%rsp)
    24e7:	f3 0f 11 44 24 60    	movss  %xmm0,0x60(%rsp)
    24ed:	0f 8d 65 ff ff ff    	jge    2458 <try_swap+0x1838>
    24f3:	0f 1f 44 00 00       	nopl   0x0(%rax,%rax,1)
    24f8:	49 83 c4 04          	add    $0x4,%r12
    24fc:	4c 3b 64 24 70       	cmp    0x70(%rsp),%r12
    2501:	0f 85 d9 fe ff ff    	jne    23e0 <try_swap+0x17c0>
    2507:	f3 0f 10 54 24 58    	movss  0x58(%rsp),%xmm2
    250d:	f3 0f 10 4c 24 60    	movss  0x60(%rsp),%xmm1
    2513:	f3 0f 10 1d 00 00 00 	movss  0x0(%rip),%xmm3        # 251b <try_swap+0x18fb>
    251a:	00 
    251b:	f3 0f 5c 9c 24 84 01 	subss  0x184(%rsp),%xmm3
    2522:	00 00 
    2524:	f3 0f 10 84 24 84 01 	movss  0x184(%rsp),%xmm0
    252b:	00 00 
    252d:	f3 0f 59 c1          	mulss  %xmm1,%xmm0
    2531:	f3 0f 59 84 24 8c 01 	mulss  0x18c(%rsp),%xmm0
    2538:	00 00 
    253a:	f3 0f 59 9c 24 cc 00 	mulss  0xcc(%rsp),%xmm3
    2541:	00 00 
    2543:	f3 0f 59 9c 24 88 01 	mulss  0x188(%rsp),%xmm3
    254a:	00 00 
    254c:	f3 0f 58 d8          	addss  %xmm0,%xmm3
    2550:	f3 0f 10 84 24 04 01 	movss  0x104(%rsp),%xmm0
    2557:	00 00 
    2559:	e9 f3 f5 ff ff       	jmpq   1b51 <try_swap+0xf31>
    255e:	48 8b 49 10          	mov    0x10(%rcx),%rcx
    2562:	8b 09                	mov    (%rcx),%ecx
    2564:	39 8c 24 1c 01 00 00 	cmp    %ecx,0x11c(%rsp)
    256b:	0f 84 0f fe ff ff    	je     2380 <try_swap+0x1760>
    2571:	39 8c 24 18 01 00 00 	cmp    %ecx,0x118(%rsp)
    2578:	0f 84 02 fe ff ff    	je     2380 <try_swap+0x1760>
    257e:	89 c6                	mov    %eax,%esi
    2580:	89 df                	mov    %ebx,%edi
    2582:	89 44 24 50          	mov    %eax,0x50(%rsp)
    2586:	48 89 54 24 40       	mov    %rdx,0x40(%rsp)
    258b:	e8 e0 df ff ff       	callq  570 <comp_td_point_to_point_delay>
    2590:	48 8b 54 24 40       	mov    0x40(%rsp),%rdx
    2595:	48 8b 0d 00 00 00 00 	mov    0x0(%rip),%rcx        # 259c <try_swap+0x197c>
    259c:	48 63 44 24 50       	movslq 0x50(%rsp),%rax
    25a1:	48 8b 35 00 00 00 00 	mov    0x0(%rip),%rsi        # 25a8 <try_swap+0x1988>
    25a8:	48 8b 0c d1          	mov    (%rcx,%rdx,8),%rcx
    25ac:	48 8b 34 d6          	mov    (%rsi,%rdx,8),%rsi
    25b0:	48 8d 0c 81          	lea    (%rcx,%rax,4),%rcx
    25b4:	f3 0f 11 01          	movss  %xmm0,(%rcx)
    25b8:	f3 0f 10 0c 86       	movss  (%rsi,%rax,4),%xmm1
    25bd:	48 8b 35 00 00 00 00 	mov    0x0(%rip),%rsi        # 25c4 <try_swap+0x19a4>
    25c4:	f3 0f 59 c8          	mulss  %xmm0,%xmm1
    25c8:	48 8b 34 d6          	mov    (%rsi,%rdx,8),%rsi
    25cc:	f3 0f 11 0c 86       	movss  %xmm1,(%rsi,%rax,4)
    25d1:	48 8b 35 00 00 00 00 	mov    0x0(%rip),%rsi        # 25d8 <try_swap+0x19b8>
    25d8:	f3 0f 10 01          	movss  (%rcx),%xmm0
    25dc:	48 8b 0d 00 00 00 00 	mov    0x0(%rip),%rcx        # 25e3 <try_swap+0x19c3>
    25e3:	48 8b 34 d6          	mov    (%rsi,%rdx,8),%rsi
    25e7:	48 8b 14 d1          	mov    (%rcx,%rdx,8),%rdx
    25eb:	f3 0f 5c 04 86       	subss  (%rsi,%rax,4),%xmm0
    25f0:	f3 0f 5c 0c 82       	subss  (%rdx,%rax,4),%xmm1
    25f5:	f3 0f 58 44 24 58    	addss  0x58(%rsp),%xmm0
    25fb:	f3 0f 58 4c 24 60    	addss  0x60(%rsp),%xmm1
    2601:	f3 0f 11 44 24 58    	movss  %xmm0,0x58(%rsp)
    2607:	f3 0f 11 4c 24 60    	movss  %xmm1,0x60(%rsp)
    260d:	e9 6e fd ff ff       	jmpq   2380 <try_swap+0x1760>
    2612:	48 8b 49 10          	mov    0x10(%rcx),%rcx
    2616:	8b 09                	mov    (%rcx),%ecx
    2618:	39 8c 24 1c 01 00 00 	cmp    %ecx,0x11c(%rsp)
    261f:	0f 84 d3 fe ff ff    	je     24f8 <try_swap+0x18d8>
    2625:	39 8c 24 18 01 00 00 	cmp    %ecx,0x118(%rsp)
    262c:	0f 84 c6 fe ff ff    	je     24f8 <try_swap+0x18d8>
    2632:	89 c6                	mov    %eax,%esi
    2634:	89 df                	mov    %ebx,%edi
    2636:	89 44 24 50          	mov    %eax,0x50(%rsp)
    263a:	48 89 54 24 40       	mov    %rdx,0x40(%rsp)
    263f:	e8 2c df ff ff       	callq  570 <comp_td_point_to_point_delay>
    2644:	48 8b 54 24 40       	mov    0x40(%rsp),%rdx
    2649:	48 8b 0d 00 00 00 00 	mov    0x0(%rip),%rcx        # 2650 <try_swap+0x1a30>
    2650:	48 63 44 24 50       	movslq 0x50(%rsp),%rax
    2655:	48 8b 35 00 00 00 00 	mov    0x0(%rip),%rsi        # 265c <try_swap+0x1a3c>
    265c:	48 8b 0c d1          	mov    (%rcx,%rdx,8),%rcx
    2660:	48 8b 34 d6          	mov    (%rsi,%rdx,8),%rsi
    2664:	48 8d 0c 81          	lea    (%rcx,%rax,4),%rcx
    2668:	f3 0f 11 01          	movss  %xmm0,(%rcx)
    266c:	f3 0f 10 1c 86       	movss  (%rsi,%rax,4),%xmm3
    2671:	48 8b 35 00 00 00 00 	mov    0x0(%rip),%rsi        # 2678 <try_swap+0x1a58>
    2678:	f3 0f 59 d8          	mulss  %xmm0,%xmm3
    267c:	48 8b 34 d6          	mov    (%rsi,%rdx,8),%rsi
    2680:	f3 0f 11 1c 86       	movss  %xmm3,(%rsi,%rax,4)
    2685:	48 8b 35 00 00 00 00 	mov    0x0(%rip),%rsi        # 268c <try_swap+0x1a6c>
    268c:	f3 0f 10 01          	movss  (%rcx),%xmm0
    2690:	48 8b 0d 00 00 00 00 	mov    0x0(%rip),%rcx        # 2697 <try_swap+0x1a77>
    2697:	48 8b 34 d6          	mov    (%rsi,%rdx,8),%rsi
    269b:	48 8b 14 d1          	mov    (%rcx,%rdx,8),%rdx
    269f:	f3 0f 5c 04 86       	subss  (%rsi,%rax,4),%xmm0
    26a4:	f3 0f 5c 1c 82       	subss  (%rdx,%rax,4),%xmm3
    26a9:	f3 0f 58 44 24 58    	addss  0x58(%rsp),%xmm0
    26af:	f3 0f 58 5c 24 60    	addss  0x60(%rsp),%xmm3
    26b5:	f3 0f 11 44 24 58    	movss  %xmm0,0x58(%rsp)
    26bb:	f3 0f 11 5c 24 60    	movss  %xmm3,0x60(%rsp)
    26c1:	e9 32 fe ff ff       	jmpq   24f8 <try_swap+0x18d8>
    26c6:	8b bc 24 d0 01 00 00 	mov    0x1d0(%rsp),%edi
    26cd:	85 ff                	test   %edi,%edi
    26cf:	0f 8e 09 ec ff ff    	jle    12de <try_swap+0x6be>
    26d5:	8b 84 24 d0 01 00 00 	mov    0x1d0(%rsp),%eax
    26dc:	48 8b 2d 00 00 00 00 	mov    0x0(%rip),%rbp        # 26e3 <try_swap+0x1ac3>
    26e3:	45 31 db             	xor    %r11d,%r11d
    26e6:	48 8b 1d 00 00 00 00 	mov    0x0(%rip),%rbx        # 26ed <try_swap+0x1acd>
    26ed:	4c 8b a4 24 70 01 00 	mov    0x170(%rsp),%r12
    26f4:	00 
    26f5:	4c 8b ac 24 78 01 00 	mov    0x178(%rsp),%r13
    26fc:	00 
    26fd:	44 8b b4 24 d0 01 00 	mov    0x1d0(%rsp),%r14d
    2704:	00 
    2705:	83 e8 01             	sub    $0x1,%eax
    2708:	4c 8d 14 85 04 00 00 	lea    0x4(,%rax,4),%r10
    270f:	00 
    2710:	4f 8b 0c dc          	mov    (%r12,%r11,8),%r9
    2714:	4e 8b 44 dd 00       	mov    0x0(%rbp,%r11,8),%r8
    2719:	31 c0                	xor    %eax,%eax
    271b:	4b 8b 7c dd 00       	mov    0x0(%r13,%r11,8),%rdi
    2720:	4a 8b 34 db          	mov    (%rbx,%r11,8),%rsi
    2724:	0f 1f 40 00          	nopl   0x0(%rax)
    2728:	f3 41 0f 10 44 80 08 	movss  0x8(%r8,%rax,4),%xmm0
    272f:	f3 41 0f 11 04 01    	movss  %xmm0,(%r9,%rax,1)
    2735:	f3 0f 10 44 86 08    	movss  0x8(%rsi,%rax,4),%xmm0
    273b:	f3 0f 11 04 07       	movss  %xmm0,(%rdi,%rax,1)
    2740:	48 83 c0 04          	add    $0x4,%rax
    2744:	4c 39 d0             	cmp    %r10,%rax
    2747:	75 df                	jne    2728 <try_swap+0x1b08>
    2749:	49 83 c3 01          	add    $0x1,%r11
    274d:	45 39 de             	cmp    %r11d,%r14d
    2750:	7f be                	jg     2710 <try_swap+0x1af0>
    2752:	e9 87 eb ff ff       	jmpq   12de <try_swap+0x6be>
    2757:	85 c0                	test   %eax,%eax
    2759:	0f 85 70 f5 ff ff    	jne    1ccf <try_swap+0x10af>
    275f:	8b 3d 00 00 00 00    	mov    0x0(%rip),%edi        # 2765 <try_swap+0x1b45>
    2765:	31 ed                	xor    %ebp,%ebp
    2767:	83 ef 01             	sub    $0x1,%edi
    276a:	e8 00 00 00 00       	callq  276f <try_swap+0x1b4f>
    276f:	8d 50 01             	lea    0x1(%rax),%edx
    2772:	e9 f1 e7 ff ff       	jmpq   f68 <try_swap+0x348>
    2777:	01 d2                	add    %edx,%edx
    2779:	48 63 da             	movslq %edx,%rbx
    277c:	48 89 dd             	mov    %rbx,%rbp
    277f:	48 c1 e3 02          	shl    $0x2,%rbx
    2783:	48 c1 e5 04          	shl    $0x4,%rbp
    2787:	48 89 ef             	mov    %rbp,%rdi
    278a:	e8 00 00 00 00       	callq  278f <try_swap+0x1b6f>
    278f:	48 89 ef             	mov    %rbp,%rdi
    2792:	48 89 05 00 00 00 00 	mov    %rax,0x0(%rip)        # 2799 <try_swap+0x1b79>
    2799:	e8 00 00 00 00       	callq  279e <try_swap+0x1b7e>
    279e:	48 89 df             	mov    %rbx,%rdi
    27a1:	48 89 05 00 00 00 00 	mov    %rax,0x0(%rip)        # 27a8 <try_swap+0x1b88>
    27a8:	e8 00 00 00 00       	callq  27ad <try_swap+0x1b8d>
    27ad:	48 89 df             	mov    %rbx,%rdi
    27b0:	48 89 05 00 00 00 00 	mov    %rax,0x0(%rip)        # 27b7 <try_swap+0x1b97>
    27b7:	e8 00 00 00 00       	callq  27bc <try_swap+0x1b9c>
    27bc:	48 89 05 00 00 00 00 	mov    %rax,0x0(%rip)        # 27c3 <try_swap+0x1ba3>
    27c3:	e9 1c e5 ff ff       	jmpq   ce4 <try_swap+0xc4>
    27c8:	0f 57 d2             	xorps  %xmm2,%xmm2
    27cb:	c7 84 24 00 01 00 00 	movl   $0x0,0x100(%rsp)
    27d2:	00 00 00 00 
    27d6:	f3 0f 11 94 24 04 01 	movss  %xmm2,0x104(%rsp)
    27dd:	00 00 
    27df:	e9 ec ea ff ff       	jmpq   12d0 <try_swap+0x6b0>
    27e4:	48 8b 94 24 68 01 00 	mov    0x168(%rsp),%rdx
    27eb:	00 
    27ec:	48 8b 8c 24 e8 01 00 	mov    0x1e8(%rsp),%rcx
    27f3:	00 
    27f4:	44 8b bc 24 38 01 00 	mov    0x138(%rsp),%r15d
    27fb:	00 
    27fc:	f3 0f 58 0a          	addss  (%rdx),%xmm1
    2800:	45 85 ff             	test   %r15d,%r15d
    2803:	f3 0f 11 0a          	movss  %xmm1,(%rdx)
    2807:	f3 0f 58 11          	addss  (%rcx),%xmm2
    280b:	f3 0f 11 11          	movss  %xmm2,(%rcx)
    280f:	0f 8e 7b f6 ff ff    	jle    1e90 <try_swap+0x1270>
    2815:	48 8b 35 00 00 00 00 	mov    0x0(%rip),%rsi        # 281c <try_swap+0x1bfc>
    281c:	4c 8b 9c 24 08 01 00 	mov    0x108(%rsp),%r11
    2823:	00 
    2824:	31 ed                	xor    %ebp,%ebp
    2826:	48 8b 05 00 00 00 00 	mov    0x0(%rip),%rax        # 282d <try_swap+0x1c0d>
    282d:	4c 8b 25 00 00 00 00 	mov    0x0(%rip),%r12        # 2834 <try_swap+0x1c14>
    2834:	4c 8b b4 24 10 01 00 	mov    0x110(%rsp),%r14
    283b:	00 
    283c:	48 8b 15 00 00 00 00 	mov    0x0(%rip),%rdx        # 2843 <try_swap+0x1c23>
    2843:	4e 8b 6c 1e 10       	mov    0x10(%rsi,%r11,1),%r13
    2848:	44 8b 9c 24 38 01 00 	mov    0x138(%rsp),%r11d
    284f:	00 
    2850:	48 89 b4 24 c0 00 00 	mov    %rsi,0xc0(%rsp)
    2857:	00 
    2858:	48 89 44 24 68       	mov    %rax,0x68(%rsp)
    285d:	48 8b 0d 00 00 00 00 	mov    0x0(%rip),%rcx        # 2864 <try_swap+0x1c44>
    2864:	48 8b 35 00 00 00 00 	mov    0x0(%rip),%rsi        # 286b <try_swap+0x1c4b>
    286b:	4f 8d 34 f4          	lea    (%r12,%r14,8),%r14
    286f:	41 83 eb 01          	sub    $0x1,%r11d
    2873:	48 8b 1d 00 00 00 00 	mov    0x0(%rip),%rbx        # 287a <try_swap+0x1c5a>
    287a:	4c 89 a4 24 b8 00 00 	mov    %r12,0xb8(%rsp)
    2881:	00 
    2882:	44 89 d8             	mov    %r11d,%eax
    2885:	0f 57 d2             	xorps  %xmm2,%xmm2
    2888:	48 8d 04 85 04 00 00 	lea    0x4(,%rax,4),%rax
    288f:	00 
    2890:	0f 28 0d 00 00 00 00 	movaps 0x0(%rip),%xmm1        # 2897 <try_swap+0x1c77>
    2897:	4c 89 b4 24 b0 00 00 	mov    %r14,0xb0(%rsp)
    289e:	00 
    289f:	48 89 94 24 88 00 00 	mov    %rdx,0x88(%rsp)
    28a6:	00 
    28a7:	48 89 4c 24 70       	mov    %rcx,0x70(%rsp)
    28ac:	48 89 b4 24 80 00 00 	mov    %rsi,0x80(%rsp)
    28b3:	00 
    28b4:	44 89 5c 24 78       	mov    %r11d,0x78(%rsp)
    28b9:	48 89 44 24 58       	mov    %rax,0x58(%rsp)
    28be:	49 63 44 2d 00       	movslq 0x0(%r13,%rbp,1),%rax
    28c3:	83 f8 ff             	cmp    $0xffffffff,%eax
    28c6:	0f 84 61 02 00 00    	je     2b2d <try_swap+0x1f0d>
    28cc:	48 8d 14 80          	lea    (%rax,%rax,4),%rdx
    28d0:	48 8d 14 d3          	lea    (%rbx,%rdx,8),%rdx
    28d4:	44 8b 72 20          	mov    0x20(%rdx),%r14d
    28d8:	45 85 f6             	test   %r14d,%r14d
    28db:	0f 85 4c 02 00 00    	jne    2b2d <try_swap+0x1f0d>
    28e1:	4c 8b a4 24 b0 00 00 	mov    0xb0(%rsp),%r12
    28e8:	00 
    28e9:	49 8b 0c 24          	mov    (%r12),%rcx
    28ed:	48 63 0c 29          	movslq (%rcx,%rbp,1),%rcx
    28f1:	85 c9                	test   %ecx,%ecx
    28f3:	0f 85 e4 04 00 00    	jne    2ddd <try_swap+0x21bd>
    28f9:	8b 7a 08             	mov    0x8(%rdx),%edi
    28fc:	85 ff                	test   %edi,%edi
    28fe:	0f 8e 29 02 00 00    	jle    2b2d <try_swap+0x1f0d>
    2904:	4c 8b b4 24 88 00 00 	mov    0x88(%rsp),%r14
    290b:	00 
    290c:	4c 8b 64 24 68       	mov    0x68(%rsp),%r12
    2911:	4c 8b 44 24 70       	mov    0x70(%rsp),%r8
    2916:	4c 8b 8c 24 80 00 00 	mov    0x80(%rsp),%r9
    291d:	00 
    291e:	49 8b 14 c6          	mov    (%r14,%rax,8),%rdx
    2922:	49 8b 34 c4          	mov    (%r12,%rax,8),%rsi
    2926:	49 8b 0c c0          	mov    (%r8,%rax,8),%rcx
    292a:	49 8b 04 c1          	mov    (%r9,%rax,8),%rax
    292e:	4c 8d 72 14          	lea    0x14(%rdx),%r14
    2932:	4c 8d 5e 04          	lea    0x4(%rsi),%r11
    2936:	4c 8d 46 14          	lea    0x14(%rsi),%r8
    293a:	4c 8d 61 04          	lea    0x4(%rcx),%r12
    293e:	4c 8d 49 14          	lea    0x14(%rcx),%r9
    2942:	4c 8d 7a 04          	lea    0x4(%rdx),%r15
    2946:	4c 89 b4 24 98 00 00 	mov    %r14,0x98(%rsp)
    294d:	00 
    294e:	41 89 fe             	mov    %edi,%r14d
    2951:	4c 89 9c 24 a8 00 00 	mov    %r11,0xa8(%rsp)
    2958:	00 
    2959:	41 c1 ee 02          	shr    $0x2,%r14d
    295d:	4c 89 a4 24 a0 00 00 	mov    %r12,0xa0(%rsp)
    2964:	00 
    2965:	4c 8d 58 14          	lea    0x14(%rax),%r11
    2969:	45 89 f2             	mov    %r14d,%r10d
    296c:	4c 8d 60 04          	lea    0x4(%rax),%r12
    2970:	4c 89 84 24 90 00 00 	mov    %r8,0x90(%rsp)
    2977:	00 
    2978:	41 c1 e2 02          	shl    $0x2,%r10d
    297c:	4c 3b 9c 24 a0 00 00 	cmp    0xa0(%rsp),%r11
    2983:	00 
    2984:	44 89 b4 24 cc 00 00 	mov    %r14d,0xcc(%rsp)
    298b:	00 
    298c:	4c 89 4c 24 60       	mov    %r9,0x60(%rsp)
    2991:	41 0f 96 c0          	setbe  %r8b
    2995:	4d 39 e1             	cmp    %r12,%r9
    2998:	4c 8b 8c 24 a0 00 00 	mov    0xa0(%rsp),%r9
    299f:	00 
    29a0:	41 0f 96 c6          	setbe  %r14b
    29a4:	45 09 f0             	or     %r14d,%r8d
    29a7:	4c 39 8c 24 90 00 00 	cmp    %r9,0x90(%rsp)
    29ae:	00 
    29af:	4c 8b 8c 24 a8 00 00 	mov    0xa8(%rsp),%r9
    29b6:	00 
    29b7:	41 0f 96 c6          	setbe  %r14b
    29bb:	4c 39 4c 24 60       	cmp    %r9,0x60(%rsp)
    29c0:	41 0f 96 c1          	setbe  %r9b
    29c4:	45 09 ce             	or     %r9d,%r14d
    29c7:	45 21 f0             	and    %r14d,%r8d
    29ca:	83 ff 07             	cmp    $0x7,%edi
    29cd:	41 0f 97 c6          	seta   %r14b
    29d1:	45 21 f0             	and    %r14d,%r8d
    29d4:	4c 39 a4 24 90 00 00 	cmp    %r12,0x90(%rsp)
    29db:	00 
    29dc:	41 0f 96 c6          	setbe  %r14b
    29e0:	4c 3b 9c 24 a8 00 00 	cmp    0xa8(%rsp),%r11
    29e7:	00 
    29e8:	41 0f 96 c1          	setbe  %r9b
    29ec:	45 09 ce             	or     %r9d,%r14d
    29ef:	45 21 f0             	and    %r14d,%r8d
    29f2:	4c 39 a4 24 98 00 00 	cmp    %r12,0x98(%rsp)
    29f9:	00 
    29fa:	41 0f 96 c4          	setbe  %r12b
    29fe:	4d 39 fb             	cmp    %r15,%r11
    2a01:	41 0f 96 c3          	setbe  %r11b
    2a05:	45 09 dc             	or     %r11d,%r12d
    2a08:	4c 8b 9c 24 a0 00 00 	mov    0xa0(%rsp),%r11
    2a0f:	00 
    2a10:	45 21 e0             	and    %r12d,%r8d
    2a13:	4c 39 9c 24 98 00 00 	cmp    %r11,0x98(%rsp)
    2a1a:	00 
    2a1b:	41 0f 96 c3          	setbe  %r11b
    2a1f:	4c 39 7c 24 60       	cmp    %r15,0x60(%rsp)
    2a24:	41 0f 96 c4          	setbe  %r12b
    2a28:	45 09 e3             	or     %r12d,%r11d
    2a2b:	4c 8b a4 24 a8 00 00 	mov    0xa8(%rsp),%r12
    2a32:	00 
    2a33:	45 21 d8             	and    %r11d,%r8d
    2a36:	4c 39 a4 24 98 00 00 	cmp    %r12,0x98(%rsp)
    2a3d:	00 
    2a3e:	41 0f 96 c3          	setbe  %r11b
    2a42:	4c 39 bc 24 90 00 00 	cmp    %r15,0x90(%rsp)
    2a49:	00 
    2a4a:	41 0f 96 c4          	setbe  %r12b
    2a4e:	45 09 e3             	or     %r12d,%r11d
    2a51:	45 84 d8             	test   %r11b,%r8b
    2a54:	0f 84 c5 05 00 00    	je     301f <try_swap+0x23ff>
    2a5a:	45 85 d2             	test   %r10d,%r10d
    2a5d:	0f 84 bc 05 00 00    	je     301f <try_swap+0x23ff>
    2a63:	44 8b 8c 24 cc 00 00 	mov    0xcc(%rsp),%r9d
    2a6a:	00 
    2a6b:	45 31 c0             	xor    %r8d,%r8d
    2a6e:	45 31 db             	xor    %r11d,%r11d
    2a71:	0f 1f 80 00 00 00 00 	nopl   0x0(%rax)
    2a78:	0f 28 c2             	movaps %xmm2,%xmm0
    2a7b:	41 83 c3 01          	add    $0x1,%r11d
    2a7f:	42 0f 12 44 02 04    	movlps 0x4(%rdx,%r8,1),%xmm0
    2a85:	42 0f 16 44 02 0c    	movhps 0xc(%rdx,%r8,1),%xmm0
    2a8b:	42 0f 13 44 06 04    	movlps %xmm0,0x4(%rsi,%r8,1)
    2a91:	42 0f 17 44 06 0c    	movhps %xmm0,0xc(%rsi,%r8,1)
    2a97:	0f 28 c2             	movaps %xmm2,%xmm0
    2a9a:	42 0f 13 4c 02 04    	movlps %xmm1,0x4(%rdx,%r8,1)
    2aa0:	42 0f 17 4c 02 0c    	movhps %xmm1,0xc(%rdx,%r8,1)
    2aa6:	42 0f 12 44 00 04    	movlps 0x4(%rax,%r8,1),%xmm0
    2aac:	42 0f 16 44 00 0c    	movhps 0xc(%rax,%r8,1),%xmm0
    2ab2:	42 0f 13 44 01 04    	movlps %xmm0,0x4(%rcx,%r8,1)
    2ab8:	42 0f 17 44 01 0c    	movhps %xmm0,0xc(%rcx,%r8,1)
    2abe:	42 0f 13 4c 00 04    	movlps %xmm1,0x4(%rax,%r8,1)
    2ac4:	42 0f 13 4c 00 0c    	movlps %xmm1,0xc(%rax,%r8,1)
    2aca:	49 83 c0 10          	add    $0x10,%r8
    2ace:	45 39 d9             	cmp    %r11d,%r9d
    2ad1:	77 a5                	ja     2a78 <try_swap+0x1e58>
    2ad3:	44 39 d7             	cmp    %r10d,%edi
    2ad6:	45 8d 4a 01          	lea    0x1(%r10),%r9d
    2ada:	74 51                	je     2b2d <try_swap+0x1f0d>
    2adc:	4d 63 c1             	movslq %r9d,%r8
    2adf:	49 c1 e0 02          	shl    $0x2,%r8
    2ae3:	4c 01 c2             	add    %r8,%rdx
    2ae6:	4c 01 c0             	add    %r8,%rax
    2ae9:	4c 01 c6             	add    %r8,%rsi
    2aec:	4c 01 c1             	add    %r8,%rcx
    2aef:	45 31 c0             	xor    %r8d,%r8d
    2af2:	66 0f 1f 44 00 00    	nopw   0x0(%rax,%rax,1)
    2af8:	f3 0f 10 02          	movss  (%rdx),%xmm0
    2afc:	f3 42 0f 11 04 86    	movss  %xmm0,(%rsi,%r8,4)
    2b02:	c7 02 00 00 80 bf    	movl   $0xbf800000,(%rdx)
    2b08:	48 83 c2 04          	add    $0x4,%rdx
    2b0c:	f3 0f 10 00          	movss  (%rax),%xmm0
    2b10:	f3 42 0f 11 04 81    	movss  %xmm0,(%rcx,%r8,4)
    2b16:	49 83 c0 01          	add    $0x1,%r8
    2b1a:	47 8d 14 01          	lea    (%r9,%r8,1),%r10d
    2b1e:	c7 00 00 00 80 bf    	movl   $0xbf800000,(%rax)
    2b24:	48 83 c0 04          	add    $0x4,%rax
    2b28:	44 39 d7             	cmp    %r10d,%edi
    2b2b:	7d cb                	jge    2af8 <try_swap+0x1ed8>
    2b2d:	48 83 c5 04          	add    $0x4,%rbp
    2b31:	48 3b 6c 24 58       	cmp    0x58(%rsp),%rbp
    2b36:	0f 85 82 fd ff ff    	jne    28be <try_swap+0x1c9e>
    2b3c:	83 bc 24 1c 01 00 00 	cmpl   $0xffffffff,0x11c(%rsp)
    2b43:	ff 
    2b44:	0f 84 46 f3 ff ff    	je     1e90 <try_swap+0x1270>
    2b4a:	48 8b 84 24 c0 00 00 	mov    0xc0(%rsp),%rax
    2b51:	00 
    2b52:	4c 8b b4 24 20 01 00 	mov    0x120(%rsp),%r14
    2b59:	00 
    2b5a:	31 ed                	xor    %ebp,%ebp
    2b5c:	4c 8b 9c 24 50 01 00 	mov    0x150(%rsp),%r11
    2b63:	00 
    2b64:	4c 8b a4 24 b8 00 00 	mov    0xb8(%rsp),%r12
    2b6b:	00 
    2b6c:	0f 57 d2             	xorps  %xmm2,%xmm2
    2b6f:	0f 28 0d 00 00 00 00 	movaps 0x0(%rip),%xmm1        # 2b76 <try_swap+0x1f56>
    2b76:	4e 8b 74 30 10       	mov    0x10(%rax,%r14,1),%r14
    2b7b:	8b 44 24 78          	mov    0x78(%rsp),%eax
    2b7f:	4f 8d 1c dc          	lea    (%r12,%r11,8),%r11
    2b83:	4c 89 74 24 60       	mov    %r14,0x60(%rsp)
    2b88:	4c 89 9c 24 a8 00 00 	mov    %r11,0xa8(%rsp)
    2b8f:	00 
    2b90:	48 8d 04 85 04 00 00 	lea    0x4(,%rax,4),%rax
    2b97:	00 
    2b98:	48 89 44 24 58       	mov    %rax,0x58(%rsp)
    2b9d:	4c 8b 64 24 60       	mov    0x60(%rsp),%r12
    2ba2:	49 63 04 2c          	movslq (%r12,%rbp,1),%rax
    2ba6:	83 f8 ff             	cmp    $0xffffffff,%eax
    2ba9:	0f 84 1a 02 00 00    	je     2dc9 <try_swap+0x21a9>
    2baf:	48 8d 14 80          	lea    (%rax,%rax,4),%rdx
    2bb3:	48 8d 14 d3          	lea    (%rbx,%rdx,8),%rdx
    2bb7:	44 8b 6a 20          	mov    0x20(%rdx),%r13d
    2bbb:	45 85 ed             	test   %r13d,%r13d
    2bbe:	0f 85 05 02 00 00    	jne    2dc9 <try_swap+0x21a9>
    2bc4:	4c 8b b4 24 a8 00 00 	mov    0xa8(%rsp),%r14
    2bcb:	00 
    2bcc:	49 8b 0e             	mov    (%r14),%rcx
    2bcf:	8b 0c 29             	mov    (%rcx,%rbp,1),%ecx
    2bd2:	85 c9                	test   %ecx,%ecx
    2bd4:	0f 85 7b 02 00 00    	jne    2e55 <try_swap+0x2235>
    2bda:	44 8b 42 08          	mov    0x8(%rdx),%r8d
    2bde:	45 85 c0             	test   %r8d,%r8d
    2be1:	0f 8e e2 01 00 00    	jle    2dc9 <try_swap+0x21a9>
    2be7:	4c 8b 64 24 68       	mov    0x68(%rsp),%r12
    2bec:	4c 8b b4 24 88 00 00 	mov    0x88(%rsp),%r14
    2bf3:	00 
    2bf4:	48 8b 7c 24 70       	mov    0x70(%rsp),%rdi
    2bf9:	4c 8b 8c 24 80 00 00 	mov    0x80(%rsp),%r9
    2c00:	00 
    2c01:	49 8b 34 c4          	mov    (%r12,%rax,8),%rsi
    2c05:	49 8b 14 c6          	mov    (%r14,%rax,8),%rdx
    2c09:	48 8b 0c c7          	mov    (%rdi,%rax,8),%rcx
    2c0d:	49 8b 04 c1          	mov    (%r9,%rax,8),%rax
    2c11:	45 89 c1             	mov    %r8d,%r9d
    2c14:	41 c1 e9 02          	shr    $0x2,%r9d
    2c18:	4c 8d 66 04          	lea    0x4(%rsi),%r12
    2c1c:	4c 8d 7e 14          	lea    0x14(%rsi),%r15
    2c20:	4c 8d 5a 04          	lea    0x4(%rdx),%r11
    2c24:	48 8d 78 14          	lea    0x14(%rax),%rdi
    2c28:	4c 8d 69 14          	lea    0x14(%rcx),%r13
    2c2c:	4c 8d 70 04          	lea    0x4(%rax),%r14
    2c30:	4c 89 a4 24 90 00 00 	mov    %r12,0x90(%rsp)
    2c37:	00 
    2c38:	4c 8d 61 04          	lea    0x4(%rcx),%r12
    2c3c:	4c 89 5c 24 78       	mov    %r11,0x78(%rsp)
    2c41:	48 89 bc 24 a0 00 00 	mov    %rdi,0xa0(%rsp)
    2c48:	00 
    2c49:	4c 89 b4 24 98 00 00 	mov    %r14,0x98(%rsp)
    2c50:	00 
    2c51:	4c 8d 5a 14          	lea    0x14(%rdx),%r11
    2c55:	49 39 fc             	cmp    %rdi,%r12
    2c58:	46 8d 14 8d 00 00 00 	lea    0x0(,%r9,4),%r10d
    2c5f:	00 
    2c60:	40 0f 93 c7          	setae  %dil
    2c64:	4d 39 f5             	cmp    %r14,%r13
    2c67:	41 0f 96 c6          	setbe  %r14b
    2c6b:	44 09 f7             	or     %r14d,%edi
    2c6e:	4c 3b ac 24 90 00 00 	cmp    0x90(%rsp),%r13
    2c75:	00 
    2c76:	41 0f 96 c6          	setbe  %r14b
    2c7a:	4d 39 fc             	cmp    %r15,%r12
    2c7d:	0f 93 84 24 b0 00 00 	setae  0xb0(%rsp)
    2c84:	00 
    2c85:	44 0a b4 24 b0 00 00 	or     0xb0(%rsp),%r14b
    2c8c:	00 
    2c8d:	44 21 f7             	and    %r14d,%edi
    2c90:	41 83 f8 07          	cmp    $0x7,%r8d
    2c94:	41 0f 97 c6          	seta   %r14b
    2c98:	44 21 f7             	and    %r14d,%edi
    2c9b:	4c 3b 6c 24 78       	cmp    0x78(%rsp),%r13
    2ca0:	4c 8b b4 24 a0 00 00 	mov    0xa0(%rsp),%r14
    2ca7:	00 
    2ca8:	41 0f 96 c5          	setbe  %r13b
    2cac:	4d 39 dc             	cmp    %r11,%r12
    2caf:	41 0f 93 c4          	setae  %r12b
    2cb3:	45 09 e5             	or     %r12d,%r13d
    2cb6:	44 21 ef             	and    %r13d,%edi
    2cb9:	4c 3b 9c 24 90 00 00 	cmp    0x90(%rsp),%r11
    2cc0:	00 
    2cc1:	41 0f 96 c4          	setbe  %r12b
    2cc5:	4c 3b 7c 24 78       	cmp    0x78(%rsp),%r15
    2cca:	41 0f 96 c5          	setbe  %r13b
    2cce:	45 09 ec             	or     %r13d,%r12d
    2cd1:	44 21 e7             	and    %r12d,%edi
    2cd4:	4c 39 9c 24 98 00 00 	cmp    %r11,0x98(%rsp)
    2cdb:	00 
    2cdc:	4c 8b a4 24 a0 00 00 	mov    0xa0(%rsp),%r12
    2ce3:	00 
    2ce4:	41 0f 93 c3          	setae  %r11b
    2ce8:	4c 39 64 24 78       	cmp    %r12,0x78(%rsp)
    2ced:	41 0f 93 c4          	setae  %r12b
    2cf1:	45 09 e3             	or     %r12d,%r11d
    2cf4:	44 21 df             	and    %r11d,%edi
    2cf7:	4c 39 b4 24 90 00 00 	cmp    %r14,0x90(%rsp)
    2cfe:	00 
    2cff:	41 0f 93 c3          	setae  %r11b
    2d03:	4c 39 bc 24 98 00 00 	cmp    %r15,0x98(%rsp)
    2d0a:	00 
    2d0b:	41 0f 93 c4          	setae  %r12b
    2d0f:	45 09 e3             	or     %r12d,%r11d
    2d12:	44 84 df             	test   %r11b,%dil
    2d15:	0f 84 0f 03 00 00    	je     302a <try_swap+0x240a>
    2d1b:	45 85 d2             	test   %r10d,%r10d
    2d1e:	0f 84 06 03 00 00    	je     302a <try_swap+0x240a>
    2d24:	31 ff                	xor    %edi,%edi
    2d26:	45 31 db             	xor    %r11d,%r11d
    2d29:	0f 28 c2             	movaps %xmm2,%xmm0
    2d2c:	41 83 c3 01          	add    $0x1,%r11d
    2d30:	0f 12 44 3a 04       	movlps 0x4(%rdx,%rdi,1),%xmm0
    2d35:	0f 16 44 3a 0c       	movhps 0xc(%rdx,%rdi,1),%xmm0
    2d3a:	0f 13 44 3e 04       	movlps %xmm0,0x4(%rsi,%rdi,1)
    2d3f:	0f 17 44 3e 0c       	movhps %xmm0,0xc(%rsi,%rdi,1)
    2d44:	0f 28 c2             	movaps %xmm2,%xmm0
    2d47:	0f 13 4c 3a 04       	movlps %xmm1,0x4(%rdx,%rdi,1)
    2d4c:	0f 17 4c 3a 0c       	movhps %xmm1,0xc(%rdx,%rdi,1)
    2d51:	0f 12 44 38 04       	movlps 0x4(%rax,%rdi,1),%xmm0
    2d56:	0f 16 44 38 0c       	movhps 0xc(%rax,%rdi,1),%xmm0
    2d5b:	0f 13 44 39 04       	movlps %xmm0,0x4(%rcx,%rdi,1)
    2d60:	0f 17 44 39 0c       	movhps %xmm0,0xc(%rcx,%rdi,1)
    2d65:	0f 13 4c 38 04       	movlps %xmm1,0x4(%rax,%rdi,1)
    2d6a:	0f 13 4c 38 0c       	movlps %xmm1,0xc(%rax,%rdi,1)
    2d6f:	48 83 c7 10          	add    $0x10,%rdi
    2d73:	45 39 cb             	cmp    %r9d,%r11d
    2d76:	72 b1                	jb     2d29 <try_swap+0x2109>
    2d78:	45 39 d0             	cmp    %r10d,%r8d
    2d7b:	45 8d 4a 01          	lea    0x1(%r10),%r9d
    2d7f:	74 48                	je     2dc9 <try_swap+0x21a9>
    2d81:	49 63 f9             	movslq %r9d,%rdi
    2d84:	48 c1 e7 02          	shl    $0x2,%rdi
    2d88:	48 01 fa             	add    %rdi,%rdx
    2d8b:	48 01 f8             	add    %rdi,%rax
    2d8e:	48 01 fe             	add    %rdi,%rsi
    2d91:	48 01 f9             	add    %rdi,%rcx
    2d94:	31 ff                	xor    %edi,%edi
    2d96:	f3 0f 10 02          	movss  (%rdx),%xmm0
    2d9a:	f3 0f 11 04 be       	movss  %xmm0,(%rsi,%rdi,4)
    2d9f:	c7 02 00 00 80 bf    	movl   $0xbf800000,(%rdx)
    2da5:	48 83 c2 04          	add    $0x4,%rdx
    2da9:	f3 0f 10 00          	movss  (%rax),%xmm0
    2dad:	f3 0f 11 04 b9       	movss  %xmm0,(%rcx,%rdi,4)
    2db2:	48 83 c7 01          	add    $0x1,%rdi
    2db6:	45 8d 14 39          	lea    (%r9,%rdi,1),%r10d
    2dba:	c7 00 00 00 80 bf    	movl   $0xbf800000,(%rax)
    2dc0:	48 83 c0 04          	add    $0x4,%rax
    2dc4:	45 39 c2             	cmp    %r8d,%r10d
    2dc7:	7e cd                	jle    2d96 <try_swap+0x2176>
    2dc9:	48 83 c5 04          	add    $0x4,%rbp
    2dcd:	48 3b 6c 24 58       	cmp    0x58(%rsp),%rbp
    2dd2:	0f 85 c5 fd ff ff    	jne    2b9d <try_swap+0x1f7d>
    2dd8:	e9 b3 f0 ff ff       	jmpq   1e90 <try_swap+0x1270>
    2ddd:	48 8b 52 10          	mov    0x10(%rdx),%rdx
    2de1:	8b 12                	mov    (%rdx),%edx
    2de3:	39 94 24 1c 01 00 00 	cmp    %edx,0x11c(%rsp)
    2dea:	0f 84 3d fd ff ff    	je     2b2d <try_swap+0x1f0d>
    2df0:	39 94 24 18 01 00 00 	cmp    %edx,0x118(%rsp)
    2df7:	0f 84 30 fd ff ff    	je     2b2d <try_swap+0x1f0d>
    2dfd:	4c 8b b4 24 88 00 00 	mov    0x88(%rsp),%r14
    2e04:	00 
    2e05:	4c 8b 44 24 68       	mov    0x68(%rsp),%r8
    2e0a:	48 8d 14 8d 00 00 00 	lea    0x0(,%rcx,4),%rdx
    2e11:	00 
    2e12:	4c 8b 8c 24 80 00 00 	mov    0x80(%rsp),%r9
    2e19:	00 
    2e1a:	4c 8b 5c 24 70       	mov    0x70(%rsp),%r11
    2e1f:	49 8b 34 c6          	mov    (%r14,%rax,8),%rsi
    2e23:	49 8b 3c c0          	mov    (%r8,%rax,8),%rdi
    2e27:	48 01 d6             	add    %rdx,%rsi
    2e2a:	49 03 14 c1          	add    (%r9,%rax,8),%rdx
    2e2e:	49 8b 04 c3          	mov    (%r11,%rax,8),%rax
    2e32:	f3 0f 10 06          	movss  (%rsi),%xmm0
    2e36:	f3 0f 11 04 8f       	movss  %xmm0,(%rdi,%rcx,4)
    2e3b:	c7 06 00 00 80 bf    	movl   $0xbf800000,(%rsi)
    2e41:	f3 0f 10 02          	movss  (%rdx),%xmm0
    2e45:	f3 0f 11 04 88       	movss  %xmm0,(%rax,%rcx,4)
    2e4a:	c7 02 00 00 80 bf    	movl   $0xbf800000,(%rdx)
    2e50:	e9 d8 fc ff ff       	jmpq   2b2d <try_swap+0x1f0d>
    2e55:	48 8b 52 10          	mov    0x10(%rdx),%rdx
    2e59:	8b 12                	mov    (%rdx),%edx
    2e5b:	39 94 24 1c 01 00 00 	cmp    %edx,0x11c(%rsp)
    2e62:	0f 84 61 ff ff ff    	je     2dc9 <try_swap+0x21a9>
    2e68:	39 94 24 18 01 00 00 	cmp    %edx,0x118(%rsp)
    2e6f:	0f 84 54 ff ff ff    	je     2dc9 <try_swap+0x21a9>
    2e75:	48 8b bc 24 88 00 00 	mov    0x88(%rsp),%rdi
    2e7c:	00 
    2e7d:	4c 8b 44 24 68       	mov    0x68(%rsp),%r8
    2e82:	48 63 d1             	movslq %ecx,%rdx
    2e85:	4c 8b 8c 24 80 00 00 	mov    0x80(%rsp),%r9
    2e8c:	00 
    2e8d:	48 8d 0c 95 00 00 00 	lea    0x0(,%rdx,4),%rcx
    2e94:	00 
    2e95:	4c 8b 5c 24 70       	mov    0x70(%rsp),%r11
    2e9a:	48 8b 34 c7          	mov    (%rdi,%rax,8),%rsi
    2e9e:	49 8b 3c c0          	mov    (%r8,%rax,8),%rdi
    2ea2:	48 01 ce             	add    %rcx,%rsi
    2ea5:	49 03 0c c1          	add    (%r9,%rax,8),%rcx
    2ea9:	49 8b 04 c3          	mov    (%r11,%rax,8),%rax
    2ead:	f3 0f 10 06          	movss  (%rsi),%xmm0
    2eb1:	f3 0f 11 04 97       	movss  %xmm0,(%rdi,%rdx,4)
    2eb6:	c7 06 00 00 80 bf    	movl   $0xbf800000,(%rsi)
    2ebc:	f3 0f 10 01          	movss  (%rcx),%xmm0
    2ec0:	f3 0f 11 04 90       	movss  %xmm0,(%rax,%rdx,4)
    2ec5:	c7 01 00 00 80 bf    	movl   $0xbf800000,(%rcx)
    2ecb:	e9 f9 fe ff ff       	jmpq   2dc9 <try_swap+0x21a9>
    2ed0:	8b 9c 24 d0 01 00 00 	mov    0x1d0(%rsp),%ebx
    2ed7:	85 db                	test   %ebx,%ebx
    2ed9:	0f 8e 4d ed ff ff    	jle    1c2c <try_swap+0x100c>
    2edf:	8b 84 24 d0 01 00 00 	mov    0x1d0(%rsp),%eax
    2ee6:	4c 8b 1d 00 00 00 00 	mov    0x0(%rip),%r11        # 2eed <try_swap+0x22cd>
    2eed:	45 31 c9             	xor    %r9d,%r9d
    2ef0:	4c 8b 15 00 00 00 00 	mov    0x0(%rip),%r10        # 2ef7 <try_swap+0x22d7>
    2ef7:	48 8b 9c 24 70 01 00 	mov    0x170(%rsp),%rbx
    2efe:	00 
    2eff:	48 8b ac 24 78 01 00 	mov    0x178(%rsp),%rbp
    2f06:	00 
    2f07:	44 8b a4 24 d0 01 00 	mov    0x1d0(%rsp),%r12d
    2f0e:	00 
    2f0f:	83 e8 01             	sub    $0x1,%eax
    2f12:	4c 8d 04 85 04 00 00 	lea    0x4(,%rax,4),%r8
    2f19:	00 
    2f1a:	4b 8b 3c cb          	mov    (%r11,%r9,8),%rdi
    2f1e:	4a 8b 34 cb          	mov    (%rbx,%r9,8),%rsi
    2f22:	31 c0                	xor    %eax,%eax
    2f24:	4b 8b 0c ca          	mov    (%r10,%r9,8),%rcx
    2f28:	4a 8b 54 cd 00       	mov    0x0(%rbp,%r9,8),%rdx
    2f2d:	0f 1f 00             	nopl   (%rax)
    2f30:	f3 0f 10 04 06       	movss  (%rsi,%rax,1),%xmm0
    2f35:	f3 0f 11 44 87 08    	movss  %xmm0,0x8(%rdi,%rax,4)
    2f3b:	f3 0f 10 04 02       	movss  (%rdx,%rax,1),%xmm0
    2f40:	f3 0f 11 44 81 08    	movss  %xmm0,0x8(%rcx,%rax,4)
    2f46:	48 83 c0 04          	add    $0x4,%rax
    2f4a:	4c 39 c0             	cmp    %r8,%rax
    2f4d:	75 e1                	jne    2f30 <try_swap+0x2310>
    2f4f:	49 83 c1 01          	add    $0x1,%r9
    2f53:	45 39 cc             	cmp    %r9d,%r12d
    2f56:	7f c2                	jg     2f1a <try_swap+0x22fa>
    2f58:	31 c0                	xor    %eax,%eax
    2f5a:	e9 cd ec ff ff       	jmpq   1c2c <try_swap+0x100c>
    2f5f:	44 8b a4 24 a0 00 00 	mov    0xa0(%rsp),%r12d
    2f66:	00 
    2f67:	41 8d 7c 24 ff       	lea    -0x1(%r12),%edi
    2f6c:	e8 00 00 00 00       	callq  2f71 <try_swap+0x2351>
    2f71:	83 c0 01             	add    $0x1,%eax
    2f74:	89 84 24 dc 00 00 00 	mov    %eax,0xdc(%rsp)
    2f7b:	c7 84 24 e0 00 00 00 	movl   $0x0,0xe0(%rsp)
    2f82:	00 00 00 00 
    2f86:	e9 6b e0 ff ff       	jmpq   ff6 <try_swap+0x3d6>
    2f8b:	8b 2d 00 00 00 00    	mov    0x0(%rip),%ebp        # 2f91 <try_swap+0x2371>
    2f91:	8b bc 24 90 00 00 00 	mov    0x90(%rsp),%edi
    2f98:	8d 50 01             	lea    0x1(%rax),%edx
    2f9b:	89 54 24 40          	mov    %edx,0x40(%rsp)
    2f9f:	e8 00 00 00 00       	callq  2fa4 <try_swap+0x2384>
    2fa4:	8b 54 24 40          	mov    0x40(%rsp),%edx
    2fa8:	29 c5                	sub    %eax,%ebp
    2faa:	e9 b9 df ff ff       	jmpq   f68 <try_swap+0x348>
    2faf:	44 8b a4 24 a0 00 00 	mov    0xa0(%rsp),%r12d
    2fb6:	00 
    2fb7:	8b 15 00 00 00 00    	mov    0x0(%rip),%edx        # 2fbd <try_swap+0x239d>
    2fbd:	41 8d 7c 24 ff       	lea    -0x1(%r12),%edi
    2fc2:	89 94 24 dc 00 00 00 	mov    %edx,0xdc(%rsp)
    2fc9:	e8 00 00 00 00       	callq  2fce <try_swap+0x23ae>
    2fce:	29 84 24 dc 00 00 00 	sub    %eax,0xdc(%rsp)
    2fd5:	eb a4                	jmp    2f7b <try_swap+0x235b>
    2fd7:	0f 57 d2             	xorps  %xmm2,%xmm2
    2fda:	0f 28 ca             	movaps %xmm2,%xmm1
    2fdd:	e9 31 f5 ff ff       	jmpq   2513 <try_swap+0x18f3>
    2fe2:	b9 00 00 00 00       	mov    $0x0,%ecx
    2fe7:	ba 3a 07 00 00       	mov    $0x73a,%edx
    2fec:	be 00 00 00 00       	mov    $0x0,%esi
    2ff1:	bf 00 00 00 00       	mov    $0x0,%edi
    2ff6:	e8 00 00 00 00       	callq  2ffb <try_swap+0x23db>
    2ffb:	8b 94 24 dc 00 00 00 	mov    0xdc(%rsp),%edx
    3002:	8b b4 24 e0 00 00 00 	mov    0xe0(%rsp),%esi
    3009:	bf 00 00 00 00       	mov    $0x0,%edi
    300e:	31 c0                	xor    %eax,%eax
    3010:	e8 00 00 00 00       	callq  3015 <try_swap+0x23f5>
    3015:	bf 01 00 00 00       	mov    $0x1,%edi
    301a:	e8 00 00 00 00       	callq  301f <try_swap+0x23ff>
    301f:	41 b9 01 00 00 00    	mov    $0x1,%r9d
    3025:	e9 b2 fa ff ff       	jmpq   2adc <try_swap+0x1ebc>
    302a:	41 b9 01 00 00 00    	mov    $0x1,%r9d
    3030:	e9 4c fd ff ff       	jmpq   2d81 <try_swap+0x2161>
    3035:	bf 00 00 00 00       	mov    $0x0,%edi
    303a:	89 de                	mov    %ebx,%esi
    303c:	31 c0                	xor    %eax,%eax
    303e:	e8 00 00 00 00       	callq  3043 <try_swap+0x2423>
    3043:	bf 01 00 00 00       	mov    $0x1,%edi
    3048:	e8 00 00 00 00       	callq  304d <try_swap+0x242d>
    304d:	b9 00 00 00 00       	mov    $0x0,%ecx
    3052:	ba b2 06 00 00       	mov    $0x6b2,%edx
    3057:	be 00 00 00 00       	mov    $0x0,%esi
    305c:	bf 00 00 00 00       	mov    $0x0,%edi
    3061:	e8 00 00 00 00       	callq  3066 <try_swap+0x2446>
    3066:	b9 00 00 00 00       	mov    $0x0,%ecx
    306b:	ba 48 07 00 00       	mov    $0x748,%edx
    3070:	be 00 00 00 00       	mov    $0x0,%esi
    3075:	bf 00 00 00 00       	mov    $0x0,%edi
    307a:	e8 00 00 00 00       	callq  307f <try_swap+0x245f>
    307f:	b9 00 00 00 00       	mov    $0x0,%ecx
    3084:	ba 3b 07 00 00       	mov    $0x73b,%edx
    3089:	be 00 00 00 00       	mov    $0x0,%esi
    308e:	bf 00 00 00 00       	mov    $0x0,%edi
    3093:	e8 00 00 00 00       	callq  3098 <try_swap+0x2478>
    3098:	0f 1f 84 00 00 00 00 	nopl   0x0(%rax,%rax,1)
    309f:	00 

00000000000030a0 <comp_bb_cost>:
    30a0:	41 57                	push   %r15
    30a2:	41 89 d7             	mov    %edx,%r15d
    30a5:	41 56                	push   %r14
    30a7:	41 89 fe             	mov    %edi,%r14d
    30aa:	41 55                	push   %r13
    30ac:	41 54                	push   %r12
    30ae:	55                   	push   %rbp
    30af:	53                   	push   %rbx
    30b0:	48 83 ec 38          	sub    $0x38,%rsp
    30b4:	83 fe 01             	cmp    $0x1,%esi
    30b7:	89 74 24 28          	mov    %esi,0x28(%rsp)
    30bb:	0f 84 43 04 00 00    	je     3504 <comp_bb_cost+0x464>
    30c1:	8b 15 00 00 00 00    	mov    0x0(%rip),%edx        # 30c7 <comp_bb_cost+0x27>
    30c7:	85 d2                	test   %edx,%edx
    30c9:	0f 8e 98 04 00 00    	jle    3567 <comp_bb_cost+0x4c7>
    30cf:	0f 57 c9             	xorps  %xmm1,%xmm1
    30d2:	31 db                	xor    %ebx,%ebx
    30d4:	66 0f 57 c0          	xorpd  %xmm0,%xmm0
    30d8:	f3 0f 11 4c 24 2c    	movss  %xmm1,0x2c(%rsp)
    30de:	66 90                	xchg   %ax,%ax
    30e0:	4c 8d 24 9b          	lea    (%rbx,%rbx,4),%r12
    30e4:	48 8b 05 00 00 00 00 	mov    0x0(%rip),%rax        # 30eb <comp_bb_cost+0x4b>
    30eb:	41 89 dd             	mov    %ebx,%r13d
    30ee:	49 c1 e4 03          	shl    $0x3,%r12
    30f2:	4c 01 e0             	add    %r12,%rax
    30f5:	8b 48 20             	mov    0x20(%rax),%ecx
    30f8:	85 c9                	test   %ecx,%ecx
    30fa:	0f 85 97 01 00 00    	jne    3297 <comp_bb_cost+0x1f7>
    3100:	8b 48 08             	mov    0x8(%rax),%ecx
    3103:	83 f9 03             	cmp    $0x3,%ecx
    3106:	0f 8e ec 01 00 00    	jle    32f8 <comp_bb_cost+0x258>
    310c:	45 85 f6             	test   %r14d,%r14d
    310f:	0f 84 6b 02 00 00    	je     3380 <comp_bb_cost+0x2e0>
    3115:	48 8b 50 10          	mov    0x10(%rax),%rdx
    3119:	48 8b 3d 00 00 00 00 	mov    0x0(%rip),%rdi        # 3120 <comp_bb_cost+0x80>
    3120:	48 89 dd             	mov    %rbx,%rbp
    3123:	48 c1 e5 04          	shl    $0x4,%rbp
    3127:	48 03 2d 00 00 00 00 	add    0x0(%rip),%rbp        # 312e <comp_bb_cost+0x8e>
    312e:	48 63 02             	movslq (%rdx),%rax
    3131:	48 8d 04 80          	lea    (%rax,%rax,4),%rax
    3135:	48 8d 04 c7          	lea    (%rdi,%rax,8),%rax
    3139:	44 8b 50 18          	mov    0x18(%rax),%r10d
    313d:	44 8b 48 1c          	mov    0x1c(%rax),%r9d
    3141:	83 e9 01             	sub    $0x1,%ecx
    3144:	48 8d 42 04          	lea    0x4(%rdx),%rax
    3148:	44 89 d6             	mov    %r10d,%esi
    314b:	4c 8d 5c 8a 08       	lea    0x8(%rdx,%rcx,4),%r11
    3150:	44 89 ca             	mov    %r9d,%edx
    3153:	eb 1d                	jmp    3172 <comp_bb_cost+0xd2>
    3155:	0f 1f 00             	nopl   (%rax)
    3158:	41 39 f0             	cmp    %esi,%r8d
    315b:	41 0f 4f f0          	cmovg  %r8d,%esi
    315f:	44 39 c9             	cmp    %r9d,%ecx
    3162:	7c 2d                	jl     3191 <comp_bb_cost+0xf1>
    3164:	39 d1                	cmp    %edx,%ecx
    3166:	0f 4f d1             	cmovg  %ecx,%edx
    3169:	48 83 c0 04          	add    $0x4,%rax
    316d:	4c 39 d8             	cmp    %r11,%rax
    3170:	74 2b                	je     319d <comp_bb_cost+0xfd>
    3172:	48 63 08             	movslq (%rax),%rcx
    3175:	48 8d 0c 89          	lea    (%rcx,%rcx,4),%rcx
    3179:	48 8d 0c cf          	lea    (%rdi,%rcx,8),%rcx
    317d:	44 8b 41 18          	mov    0x18(%rcx),%r8d
    3181:	8b 49 1c             	mov    0x1c(%rcx),%ecx
    3184:	45 39 d0             	cmp    %r10d,%r8d
    3187:	7d cf                	jge    3158 <comp_bb_cost+0xb8>
    3189:	44 39 c9             	cmp    %r9d,%ecx
    318c:	45 89 c2             	mov    %r8d,%r10d
    318f:	7d d3                	jge    3164 <comp_bb_cost+0xc4>
    3191:	48 83 c0 04          	add    $0x4,%rax
    3195:	41 89 c9             	mov    %ecx,%r9d
    3198:	4c 39 d8             	cmp    %r11,%rax
    319b:	75 d5                	jne    3172 <comp_bb_cost+0xd2>
    319d:	8b 3d 00 00 00 00    	mov    0x0(%rip),%edi        # 31a3 <comp_bb_cost+0x103>
    31a3:	8b 0d 00 00 00 00    	mov    0x0(%rip),%ecx        # 31a9 <comp_bb_cost+0x109>
    31a9:	b8 01 00 00 00       	mov    $0x1,%eax
    31ae:	41 39 fa             	cmp    %edi,%r10d
    31b1:	44 0f 4f d7          	cmovg  %edi,%r10d
    31b5:	45 85 d2             	test   %r10d,%r10d
    31b8:	44 0f 4e d0          	cmovle %eax,%r10d
    31bc:	41 39 c9             	cmp    %ecx,%r9d
    31bf:	44 0f 4f c9          	cmovg  %ecx,%r9d
    31c3:	44 89 55 00          	mov    %r10d,0x0(%rbp)
    31c7:	45 85 c9             	test   %r9d,%r9d
    31ca:	44 0f 4e c8          	cmovle %eax,%r9d
    31ce:	39 fe                	cmp    %edi,%esi
    31d0:	0f 4f f7             	cmovg  %edi,%esi
    31d3:	44 89 4d 08          	mov    %r9d,0x8(%rbp)
    31d7:	85 f6                	test   %esi,%esi
    31d9:	0f 4e f0             	cmovle %eax,%esi
    31dc:	39 ca                	cmp    %ecx,%edx
    31de:	0f 4f d1             	cmovg  %ecx,%edx
    31e1:	89 75 04             	mov    %esi,0x4(%rbp)
    31e4:	85 d2                	test   %edx,%edx
    31e6:	0f 4e d0             	cmovle %eax,%edx
    31e9:	83 7c 24 28 01       	cmpl   $0x1,0x28(%rsp)
    31ee:	89 55 0c             	mov    %edx,0xc(%rbp)
    31f1:	0f 84 cc 01 00 00    	je     33c3 <comp_bb_cost+0x323>
    31f7:	48 8b 05 00 00 00 00 	mov    0x0(%rip),%rax        # 31fe <comp_bb_cost+0x15e>
    31fe:	4c 8d 0c 98          	lea    (%rax,%rbx,4),%r9
    3202:	48 8b 05 00 00 00 00 	mov    0x0(%rip),%rax        # 3209 <comp_bb_cost+0x169>
    3209:	4a 63 44 20 08       	movslq 0x8(%rax,%r12,1),%rax
    320e:	83 f8 31             	cmp    $0x31,%eax
    3211:	0f 8f b9 00 00 00    	jg     32d0 <comp_bb_cost+0x230>
    3217:	48 63 d0             	movslq %eax,%rdx
    321a:	f3 0f 10 24 95 00 00 	movss  0x0(,%rdx,4),%xmm4
    3221:	00 00 
    3223:	48 63 4d 04          	movslq 0x4(%rbp),%rcx
    3227:	48 63 55 00          	movslq 0x0(%rbp),%rdx
    322b:	8b 75 08             	mov    0x8(%rbp),%esi
    322e:	8b 7d 0c             	mov    0xc(%rbp),%edi
    3231:	4c 8b 15 00 00 00 00 	mov    0x0(%rip),%r10        # 3238 <comp_bb_cost+0x198>
    3238:	41 89 c8             	mov    %ecx,%r8d
    323b:	48 63 ef             	movslq %edi,%rbp
    323e:	29 f7                	sub    %esi,%edi
    3240:	41 29 d0             	sub    %edx,%r8d
    3243:	83 c7 01             	add    $0x1,%edi
    3246:	4c 63 de             	movslq %esi,%r11
    3249:	41 83 c0 01          	add    $0x1,%r8d
    324d:	f3 0f 2a df          	cvtsi2ss %edi,%xmm3
    3251:	f3 41 0f 2a d0       	cvtsi2ss %r8d,%xmm2
    3256:	48 8b 35 00 00 00 00 	mov    0x0(%rip),%rsi        # 325d <comp_bb_cost+0x1bd>
    325d:	4d 8b 14 ea          	mov    (%r10,%rbp,8),%r10
    3261:	41 83 fe 01          	cmp    $0x1,%r14d
    3265:	48 8b 0c ce          	mov    (%rsi,%rcx,8),%rcx
    3269:	f3 0f 59 dc          	mulss  %xmm4,%xmm3
    326d:	f3 0f 59 d4          	mulss  %xmm4,%xmm2
    3271:	f3 0f 59 5c 91 fc    	mulss  -0x4(%rcx,%rdx,4),%xmm3
    3277:	f3 43 0f 59 54 9a fc 	mulss  -0x4(%r10,%r11,4),%xmm2
    327e:	f3 0f 58 d3          	addss  %xmm3,%xmm2
    3282:	f3 41 0f 11 11       	movss  %xmm2,(%r9)
    3287:	f3 0f 58 ca          	addss  %xmm2,%xmm1
    328b:	0f 84 af 00 00 00    	je     3340 <comp_bb_cost+0x2a0>
    3291:	8b 15 00 00 00 00    	mov    0x0(%rip),%edx        # 3297 <comp_bb_cost+0x1f7>
    3297:	8d 43 01             	lea    0x1(%rbx),%eax
    329a:	48 83 c3 01          	add    $0x1,%rbx
    329e:	39 d0                	cmp    %edx,%eax
    32a0:	0f 8c 3a fe ff ff    	jl     30e0 <comp_bb_cost+0x40>
    32a6:	83 7c 24 28 01       	cmpl   $0x1,0x28(%rsp)
    32ab:	0f 84 a3 01 00 00    	je     3454 <comp_bb_cost+0x3b4>
    32b1:	41 83 fe 01          	cmp    $0x1,%r14d
    32b5:	0f 84 2b 02 00 00    	je     34e6 <comp_bb_cost+0x446>
    32bb:	48 83 c4 38          	add    $0x38,%rsp
    32bf:	0f 28 c1             	movaps %xmm1,%xmm0
    32c2:	5b                   	pop    %rbx
    32c3:	5d                   	pop    %rbp
    32c4:	41 5c                	pop    %r12
    32c6:	41 5d                	pop    %r13
    32c8:	41 5e                	pop    %r14
    32ca:	41 5f                	pop    %r15
    32cc:	c3                   	retq   
    32cd:	0f 1f 00             	nopl   (%rax)
    32d0:	8d 50 cf             	lea    -0x31(%rax),%edx
    32d3:	f2 0f 2a e2          	cvtsi2sd %edx,%xmm4
    32d7:	f2 0f 59 25 00 00 00 	mulsd  0x0(%rip),%xmm4        # 32df <comp_bb_cost+0x23f>
    32de:	00 
    32df:	f2 0f 58 25 00 00 00 	addsd  0x0(%rip),%xmm4        # 32e7 <comp_bb_cost+0x247>
    32e6:	00 
    32e7:	66 0f 14 e4          	unpcklpd %xmm4,%xmm4
    32eb:	66 0f 5a e4          	cvtpd2ps %xmm4,%xmm4
    32ef:	e9 2f ff ff ff       	jmpq   3223 <comp_bb_cost+0x183>
    32f4:	0f 1f 40 00          	nopl   0x0(%rax)
    32f8:	48 8b 50 10          	mov    0x10(%rax),%rdx
    32fc:	48 8b 3d 00 00 00 00 	mov    0x0(%rip),%rdi        # 3303 <comp_bb_cost+0x263>
    3303:	48 89 dd             	mov    %rbx,%rbp
    3306:	48 c1 e5 04          	shl    $0x4,%rbp
    330a:	48 03 2d 00 00 00 00 	add    0x0(%rip),%rbp        # 3311 <comp_bb_cost+0x271>
    3311:	85 c9                	test   %ecx,%ecx
    3313:	48 63 02             	movslq (%rdx),%rax
    3316:	48 8d 04 80          	lea    (%rax,%rax,4),%rax
    331a:	48 8d 04 c7          	lea    (%rdi,%rax,8),%rax
    331e:	44 8b 50 18          	mov    0x18(%rax),%r10d
    3322:	44 8b 48 1c          	mov    0x1c(%rax),%r9d
    3326:	0f 8f 15 fe ff ff    	jg     3141 <comp_bb_cost+0xa1>
    332c:	44 89 ca             	mov    %r9d,%edx
    332f:	44 89 d6             	mov    %r10d,%esi
    3332:	e9 66 fe ff ff       	jmpq   319d <comp_bb_cost+0xfd>
    3337:	66 0f 1f 84 00 00 00 	nopw   0x0(%rax,%rax,1)
    333e:	00 00 
    3340:	8d 50 ce             	lea    -0x32(%rax),%edx
    3343:	83 fa 21             	cmp    $0x21,%edx
    3346:	0f 86 ec 00 00 00    	jbe    3438 <comp_bb_cost+0x398>
    334c:	83 f8 53             	cmp    $0x53,%eax
    334f:	0f 8f ac 00 00 00    	jg     3401 <comp_bb_cost+0x361>
    3355:	f3 0f 10 1c 85 00 00 	movss  0x0(,%rax,4),%xmm3
    335c:	00 00 
    335e:	0f 5a db             	cvtps2pd %xmm3,%xmm3
    3361:	f2 41 0f 2a d0       	cvtsi2sd %r8d,%xmm2
    3366:	f2 0f 2a e7          	cvtsi2sd %edi,%xmm4
    336a:	f2 0f 59 d3          	mulsd  %xmm3,%xmm2
    336e:	f2 0f 59 e3          	mulsd  %xmm3,%xmm4
    3372:	f2 0f 58 d4          	addsd  %xmm4,%xmm2
    3376:	f2 0f 58 c2          	addsd  %xmm2,%xmm0
    337a:	e9 12 ff ff ff       	jmpq   3291 <comp_bb_cost+0x1f1>
    337f:	90                   	nop
    3380:	48 8b 2d 00 00 00 00 	mov    0x0(%rip),%rbp        # 3387 <comp_bb_cost+0x2e7>
    3387:	48 89 da             	mov    %rbx,%rdx
    338a:	89 df                	mov    %ebx,%edi
    338c:	48 c1 e2 04          	shl    $0x4,%rdx
    3390:	f2 0f 11 44 24 10    	movsd  %xmm0,0x10(%rsp)
    3396:	f3 0f 11 0c 24       	movss  %xmm1,(%rsp)
    339b:	48 01 d5             	add    %rdx,%rbp
    339e:	48 03 15 00 00 00 00 	add    0x0(%rip),%rdx        # 33a5 <comp_bb_cost+0x305>
    33a5:	48 89 ee             	mov    %rbp,%rsi
    33a8:	e8 53 cc ff ff       	callq  0 <get_bb_from_scratch>
    33ad:	83 7c 24 28 01       	cmpl   $0x1,0x28(%rsp)
    33b2:	f2 0f 10 44 24 10    	movsd  0x10(%rsp),%xmm0
    33b8:	f3 0f 10 0c 24       	movss  (%rsp),%xmm1
    33bd:	0f 85 34 fe ff ff    	jne    31f7 <comp_bb_cost+0x157>
    33c3:	44 89 fa             	mov    %r15d,%edx
    33c6:	48 89 ee             	mov    %rbp,%rsi
    33c9:	44 89 ef             	mov    %r13d,%edi
    33cc:	f2 0f 11 44 24 10    	movsd  %xmm0,0x10(%rsp)
    33d2:	f3 0f 11 0c 24       	movss  %xmm1,(%rsp)
    33d7:	e8 54 d4 ff ff       	callq  830 <update_region_occ.constprop.5>
    33dc:	8b 15 00 00 00 00    	mov    0x0(%rip),%edx        # 33e2 <comp_bb_cost+0x342>
    33e2:	8d 43 01             	lea    0x1(%rbx),%eax
    33e5:	48 83 c3 01          	add    $0x1,%rbx
    33e9:	f3 0f 10 0c 24       	movss  (%rsp),%xmm1
    33ee:	f2 0f 10 44 24 10    	movsd  0x10(%rsp),%xmm0
    33f4:	39 d0                	cmp    %edx,%eax
    33f6:	0f 8c e4 fc ff ff    	jl     30e0 <comp_bb_cost+0x40>
    33fc:	e9 a5 fe ff ff       	jmpq   32a6 <comp_bb_cost+0x206>
    3401:	83 c0 01             	add    $0x1,%eax
    3404:	f2 0f 10 1d 00 00 00 	movsd  0x0(%rip),%xmm3        # 340c <comp_bb_cost+0x36c>
    340b:	00 
    340c:	f2 0f 2a e0          	cvtsi2sd %eax,%xmm4
    3410:	f2 0f 10 15 00 00 00 	movsd  0x0(%rip),%xmm2        # 3418 <comp_bb_cost+0x378>
    3417:	00 
    3418:	f2 0f 59 dc          	mulsd  %xmm4,%xmm3
    341c:	f2 0f 59 d4          	mulsd  %xmm4,%xmm2
    3420:	f2 0f 58 1d 00 00 00 	addsd  0x0(%rip),%xmm3        # 3428 <comp_bb_cost+0x388>
    3427:	00 
    3428:	f2 0f 59 d4          	mulsd  %xmm4,%xmm2
    342c:	f2 0f 5c da          	subsd  %xmm2,%xmm3
    3430:	e9 2c ff ff ff       	jmpq   3361 <comp_bb_cost+0x2c1>
    3435:	0f 1f 00             	nopl   (%rax)
    3438:	83 e8 31             	sub    $0x31,%eax
    343b:	f2 0f 2a d8          	cvtsi2sd %eax,%xmm3
    343f:	f2 0f 59 1d 00 00 00 	mulsd  0x0(%rip),%xmm3        # 3447 <comp_bb_cost+0x3a7>
    3446:	00 
    3447:	f2 0f 58 1d 00 00 00 	addsd  0x0(%rip),%xmm3        # 344f <comp_bb_cost+0x3af>
    344e:	00 
    344f:	e9 0d ff ff ff       	jmpq   3361 <comp_bb_cost+0x2c1>
    3454:	45 85 ff             	test   %r15d,%r15d
    3457:	0f 57 c9             	xorps  %xmm1,%xmm1
    345a:	0f 8e 51 fe ff ff    	jle    32b1 <comp_bb_cost+0x211>
    3460:	41 8d 47 ff          	lea    -0x1(%r15),%eax
    3464:	4c 8b 0d 00 00 00 00 	mov    0x0(%rip),%r9        # 346b <comp_bb_cost+0x3cb>
    346b:	4c 8b 05 00 00 00 00 	mov    0x0(%rip),%r8        # 3472 <comp_bb_cost+0x3d2>
    3472:	0f 57 c9             	xorps  %xmm1,%xmm1
    3475:	31 f6                	xor    %esi,%esi
    3477:	48 c1 e0 04          	shl    $0x4,%rax
    347b:	48 8d 78 10          	lea    0x10(%rax),%rdi
    347f:	90                   	nop
    3480:	49 8b 04 f1          	mov    (%r9,%rsi,8),%rax
    3484:	49 8b 14 f0          	mov    (%r8,%rsi,8),%rdx
    3488:	48 8d 0c 38          	lea    (%rax,%rdi,1),%rcx
    348c:	0f 1f 40 00          	nopl   0x0(%rax)
    3490:	f3 0f 10 50 08       	movss  0x8(%rax),%xmm2
    3495:	f3 0f 10 18          	movss  (%rax),%xmm3
    3499:	0f 2e da             	ucomiss %xmm2,%xmm3
    349c:	f3 0f 59 50 04       	mulss  0x4(%rax),%xmm2
    34a1:	77 04                	ja     34a7 <comp_bb_cost+0x407>
    34a3:	f3 0f 59 d2          	mulss  %xmm2,%xmm2
    34a7:	f3 0f 58 d1          	addss  %xmm1,%xmm2
    34ab:	f3 0f 10 1a          	movss  (%rdx),%xmm3
    34af:	f3 0f 10 4a 08       	movss  0x8(%rdx),%xmm1
    34b4:	0f 2e d9             	ucomiss %xmm1,%xmm3
    34b7:	f3 0f 59 4a 04       	mulss  0x4(%rdx),%xmm1
    34bc:	77 04                	ja     34c2 <comp_bb_cost+0x422>
    34be:	f3 0f 59 c9          	mulss  %xmm1,%xmm1
    34c2:	48 83 c0 10          	add    $0x10,%rax
    34c6:	48 83 c2 10          	add    $0x10,%rdx
    34ca:	f3 0f 58 ca          	addss  %xmm2,%xmm1
    34ce:	48 39 c8             	cmp    %rcx,%rax
    34d1:	75 bd                	jne    3490 <comp_bb_cost+0x3f0>
    34d3:	48 83 c6 01          	add    $0x1,%rsi
    34d7:	41 39 f7             	cmp    %esi,%r15d
    34da:	7f a4                	jg     3480 <comp_bb_cost+0x3e0>
    34dc:	41 83 fe 01          	cmp    $0x1,%r14d
    34e0:	0f 85 d5 fd ff ff    	jne    32bb <comp_bb_cost+0x21b>
    34e6:	bf 00 00 00 00       	mov    $0x0,%edi
    34eb:	b8 01 00 00 00       	mov    $0x1,%eax
    34f0:	f3 0f 11 0c 24       	movss  %xmm1,(%rsp)
    34f5:	e8 00 00 00 00       	callq  34fa <comp_bb_cost+0x45a>
    34fa:	f3 0f 10 0c 24       	movss  (%rsp),%xmm1
    34ff:	e9 b7 fd ff ff       	jmpq   32bb <comp_bb_cost+0x21b>
    3504:	85 d2                	test   %edx,%edx
    3506:	0f 8e b5 fb ff ff    	jle    30c1 <comp_bb_cost+0x21>
    350c:	8d 72 ff             	lea    -0x1(%rdx),%esi
    350f:	4c 8b 0d 00 00 00 00 	mov    0x0(%rip),%r9        # 3516 <comp_bb_cost+0x476>
    3516:	4c 8b 05 00 00 00 00 	mov    0x0(%rip),%r8        # 351d <comp_bb_cost+0x47d>
    351d:	31 ff                	xor    %edi,%edi
    351f:	48 83 c6 01          	add    $0x1,%rsi
    3523:	48 c1 e6 04          	shl    $0x4,%rsi
    3527:	66 0f 1f 84 00 00 00 	nopw   0x0(%rax,%rax,1)
    352e:	00 00 
    3530:	49 8b 0c f9          	mov    (%r9,%rdi,8),%rcx
    3534:	49 8b 14 f8          	mov    (%r8,%rdi,8),%rdx
    3538:	31 c0                	xor    %eax,%eax
    353a:	66 0f 1f 44 00 00    	nopw   0x0(%rax,%rax,1)
    3540:	c7 44 01 08 00 00 00 	movl   $0x0,0x8(%rcx,%rax,1)
    3547:	00 
    3548:	c7 44 02 08 00 00 00 	movl   $0x0,0x8(%rdx,%rax,1)
    354f:	00 
    3550:	48 83 c0 10          	add    $0x10,%rax
    3554:	48 39 f0             	cmp    %rsi,%rax
    3557:	75 e7                	jne    3540 <comp_bb_cost+0x4a0>
    3559:	48 83 c7 01          	add    $0x1,%rdi
    355d:	41 39 ff             	cmp    %edi,%r15d
    3560:	7f ce                	jg     3530 <comp_bb_cost+0x490>
    3562:	e9 5a fb ff ff       	jmpq   30c1 <comp_bb_cost+0x21>
    3567:	0f 57 c9             	xorps  %xmm1,%xmm1
    356a:	66 0f 57 c0          	xorpd  %xmm0,%xmm0
    356e:	f3 0f 11 4c 24 2c    	movss  %xmm1,0x2c(%rsp)
    3574:	e9 2d fd ff ff       	jmpq   32a6 <comp_bb_cost+0x206>
    3579:	0f 1f 80 00 00 00 00 	nopl   0x0(%rax)

0000000000003580 <try_place>:
    3580:	41 57                	push   %r15
    3582:	41 56                	push   %r14
    3584:	41 55                	push   %r13
    3586:	41 54                	push   %r12
    3588:	49 89 d4             	mov    %rdx,%r12
    358b:	55                   	push   %rbp
    358c:	48 89 fd             	mov    %rdi,%rbp
    358f:	53                   	push   %rbx
    3590:	48 81 ec f8 03 00 00 	sub    $0x3f8,%rsp
    3597:	48 63 3d 00 00 00 00 	movslq 0x0(%rip),%rdi        # 359e <try_place+0x1e>
    359e:	8b 84 24 30 04 00 00 	mov    0x430(%rsp),%eax
    35a5:	8b 94 24 48 04 00 00 	mov    0x448(%rsp),%edx
    35ac:	f3 0f 11 84 24 58 02 	movss  %xmm0,0x258(%rsp)
    35b3:	00 00 
    35b5:	48 89 b4 24 50 02 00 	mov    %rsi,0x250(%rsp)
    35bc:	00 
    35bd:	8b b4 24 60 04 00 00 	mov    0x460(%rsp),%esi
    35c4:	f3 0f 10 84 24 34 04 	movss  0x434(%rsp),%xmm0
    35cb:	00 00 
    35cd:	89 84 24 18 02 00 00 	mov    %eax,0x218(%rsp)
    35d4:	8b 84 24 3c 04 00 00 	mov    0x43c(%rsp),%eax
    35db:	f3 0f 11 84 24 58 01 	movss  %xmm0,0x158(%rsp)
    35e2:	00 00 
    35e4:	89 94 24 00 02 00 00 	mov    %edx,0x200(%rsp)
    35eb:	8b 94 24 68 04 00 00 	mov    0x468(%rsp),%edx
    35f2:	48 c1 e7 02          	shl    $0x2,%rdi
    35f6:	f3 0f 10 84 24 6c 04 	movss  0x46c(%rsp),%xmm0
    35fd:	00 00 
    35ff:	89 84 24 60 01 00 00 	mov    %eax,0x160(%rsp)
    3606:	8b 84 24 64 04 00 00 	mov    0x464(%rsp),%eax
    360d:	f3 0f 11 84 24 f4 01 	movss  %xmm0,0x1f4(%rsp)
    3614:	00 00 
    3616:	89 94 24 f8 01 00 00 	mov    %edx,0x1f8(%rsp)
    361d:	48 89 8c 24 20 02 00 	mov    %rcx,0x220(%rsp)
    3624:	00 
    3625:	8b 9c 24 5c 04 00 00 	mov    0x45c(%rsp),%ebx
    362c:	89 84 24 fc 01 00 00 	mov    %eax,0x1fc(%rsp)
    3633:	8b 84 24 78 04 00 00 	mov    0x478(%rsp),%eax
    363a:	89 b4 24 0c 02 00 00 	mov    %esi,0x20c(%rsp)
    3641:	89 84 24 08 02 00 00 	mov    %eax,0x208(%rsp)
    3648:	e8 00 00 00 00       	callq  364d <try_place+0xcd>
    364d:	8b 94 24 18 02 00 00 	mov    0x218(%rsp),%edx
    3654:	48 89 84 24 a0 01 00 	mov    %rax,0x1a0(%rsp)
    365b:	00 
    365c:	83 ea 01             	sub    $0x1,%edx
    365f:	83 fa 01             	cmp    $0x1,%edx
    3662:	89 94 24 64 01 00 00 	mov    %edx,0x164(%rsp)
    3669:	76 1d                	jbe    3688 <try_place+0x108>
    366b:	44 8b ac 24 fc 01 00 	mov    0x1fc(%rsp),%r13d
    3672:	00 
    3673:	48 c7 84 24 30 02 00 	movq   $0x0,0x230(%rsp)
    367a:	00 00 00 00 00 
    367f:	45 85 ed             	test   %r13d,%r13d
    3682:	0f 84 4c 01 00 00    	je     37d4 <try_place+0x254>
    3688:	49 8b 04 24          	mov    (%r12),%rax
    368c:	48 8d 8c 24 b8 02 00 	lea    0x2b8(%rsp),%rcx
    3693:	00 
    3694:	48 8d 94 24 b0 02 00 	lea    0x2b0(%rsp),%rdx
    369b:	00 
    369c:	48 89 ef             	mov    %rbp,%rdi
    369f:	48 89 84 24 90 00 00 	mov    %rax,0x90(%rsp)
    36a6:	00 
    36a7:	49 8b 44 24 08       	mov    0x8(%r12),%rax
    36ac:	48 89 84 24 98 00 00 	mov    %rax,0x98(%rsp)
    36b3:	00 
    36b4:	49 8b 44 24 10       	mov    0x10(%r12),%rax
    36b9:	48 89 84 24 a0 00 00 	mov    %rax,0xa0(%rsp)
    36c0:	00 
    36c1:	48 8b 84 24 00 05 00 	mov    0x500(%rsp),%rax
    36c8:	00 
    36c9:	48 89 44 24 70       	mov    %rax,0x70(%rsp)
    36ce:	48 8b 84 24 08 05 00 	mov    0x508(%rsp),%rax
    36d5:	00 
    36d6:	48 89 44 24 78       	mov    %rax,0x78(%rsp)
    36db:	48 8b 84 24 10 05 00 	mov    0x510(%rsp),%rax
    36e2:	00 
    36e3:	48 89 84 24 80 00 00 	mov    %rax,0x80(%rsp)
    36ea:	00 
    36eb:	48 8b 84 24 18 05 00 	mov    0x518(%rsp),%rax
    36f2:	00 
    36f3:	48 89 84 24 88 00 00 	mov    %rax,0x88(%rsp)
    36fa:	00 
    36fb:	48 8b 84 24 c0 04 00 	mov    0x4c0(%rsp),%rax
    3702:	00 
    3703:	48 89 44 24 30       	mov    %rax,0x30(%rsp)
    3708:	48 8b 84 24 c8 04 00 	mov    0x4c8(%rsp),%rax
    370f:	00 
    3710:	48 89 44 24 38       	mov    %rax,0x38(%rsp)
    3715:	48 8b 84 24 d0 04 00 	mov    0x4d0(%rsp),%rax
    371c:	00 
    371d:	48 89 44 24 40       	mov    %rax,0x40(%rsp)
    3722:	48 8b 84 24 d8 04 00 	mov    0x4d8(%rsp),%rax
    3729:	00 
    372a:	48 89 44 24 48       	mov    %rax,0x48(%rsp)
    372f:	48 8b 84 24 e0 04 00 	mov    0x4e0(%rsp),%rax
    3736:	00 
    3737:	48 89 44 24 50       	mov    %rax,0x50(%rsp)
    373c:	48 8b 84 24 e8 04 00 	mov    0x4e8(%rsp),%rax
    3743:	00 
    3744:	48 89 44 24 58       	mov    %rax,0x58(%rsp)
    3749:	48 8b 84 24 f0 04 00 	mov    0x4f0(%rsp),%rax
    3750:	00 
    3751:	48 89 44 24 60       	mov    %rax,0x60(%rsp)
    3756:	48 8b 84 24 f8 04 00 	mov    0x4f8(%rsp),%rax
    375d:	00 
    375e:	48 89 44 24 68       	mov    %rax,0x68(%rsp)
    3763:	48 8b 84 24 90 04 00 	mov    0x490(%rsp),%rax
    376a:	00 
    376b:	48 89 04 24          	mov    %rax,(%rsp)
    376f:	48 8b 84 24 98 04 00 	mov    0x498(%rsp),%rax
    3776:	00 
    3777:	48 89 44 24 08       	mov    %rax,0x8(%rsp)
    377c:	48 8b 84 24 a0 04 00 	mov    0x4a0(%rsp),%rax
    3783:	00 
    3784:	48 8b b4 24 50 02 00 	mov    0x250(%rsp),%rsi
    378b:	00 
    378c:	f3 0f 10 84 24 58 02 	movss  0x258(%rsp),%xmm0
    3793:	00 00 
    3795:	48 89 44 24 10       	mov    %rax,0x10(%rsp)
    379a:	48 8b 84 24 a8 04 00 	mov    0x4a8(%rsp),%rax
    37a1:	00 
    37a2:	48 89 44 24 18       	mov    %rax,0x18(%rsp)
    37a7:	48 8b 84 24 b0 04 00 	mov    0x4b0(%rsp),%rax
    37ae:	00 
    37af:	48 89 44 24 20       	mov    %rax,0x20(%rsp)
    37b4:	8b 84 24 b8 04 00 00 	mov    0x4b8(%rsp),%eax
    37bb:	89 44 24 28          	mov    %eax,0x28(%rsp)
    37bf:	e8 00 00 00 00       	callq  37c4 <try_place+0x244>
    37c4:	48 8b b4 24 b0 02 00 	mov    0x2b0(%rsp),%rsi
    37cb:	00 
    37cc:	48 89 b4 24 30 02 00 	mov    %rsi,0x230(%rsp)
    37d3:	00 
    37d4:	48 8b 84 24 90 04 00 	mov    0x490(%rsp),%rax
    37db:	00 
    37dc:	8b 94 24 44 04 00 00 	mov    0x444(%rsp),%edx
    37e3:	48 89 04 24          	mov    %rax,(%rsp)
    37e7:	48 8b 84 24 98 04 00 	mov    0x498(%rsp),%rax
    37ee:	00 
    37ef:	89 d7                	mov    %edx,%edi
    37f1:	89 94 24 2c 02 00 00 	mov    %edx,0x22c(%rsp)
    37f8:	48 89 44 24 08       	mov    %rax,0x8(%rsp)
    37fd:	48 8b 84 24 a0 04 00 	mov    0x4a0(%rsp),%rax
    3804:	00 
    3805:	48 89 44 24 10       	mov    %rax,0x10(%rsp)
    380a:	48 8b 84 24 a8 04 00 	mov    0x4a8(%rsp),%rax
    3811:	00 
    3812:	48 89 44 24 18       	mov    %rax,0x18(%rsp)
    3817:	48 8b 84 24 b0 04 00 	mov    0x4b0(%rsp),%rax
    381e:	00 
    381f:	48 89 44 24 20       	mov    %rax,0x20(%rsp)
    3824:	8b 84 24 b8 04 00 00 	mov    0x4b8(%rsp),%eax
    382b:	89 44 24 28          	mov    %eax,0x28(%rsp)
    382f:	e8 00 00 00 00       	callq  3834 <try_place+0x2b4>
    3834:	8b 0d 00 00 00 00    	mov    0x0(%rip),%ecx        # 383a <try_place+0x2ba>
    383a:	f3 0f 10 9c 24 40 04 	movss  0x440(%rsp),%xmm3
    3841:	00 00 
    3843:	f3 0f 11 9c 24 50 01 	movss  %xmm3,0x150(%rsp)
    384a:	00 00 
    384c:	85 c9                	test   %ecx,%ecx
    384e:	0f 8e 0a 3b 00 00    	jle    735e <try_place+0x3dde>
    3854:	83 e9 01             	sub    $0x1,%ecx
    3857:	48 8b 15 00 00 00 00 	mov    0x0(%rip),%rdx        # 385e <try_place+0x2de>
    385e:	31 ed                	xor    %ebp,%ebp
    3860:	48 8d 34 c9          	lea    (%rcx,%rcx,8),%rsi
    3864:	48 8d 82 98 00 00 00 	lea    0x98(%rdx),%rax
    386b:	48 8d 0c 71          	lea    (%rcx,%rsi,2),%rcx
    386f:	48 8d 0c c8          	lea    (%rax,%rcx,8),%rcx
    3873:	eb 06                	jmp    387b <try_place+0x2fb>
    3875:	48 05 98 00 00 00    	add    $0x98,%rax
    387b:	8b 52 08             	mov    0x8(%rdx),%edx
    387e:	39 d5                	cmp    %edx,%ebp
    3880:	0f 4c ea             	cmovl  %edx,%ebp
    3883:	48 39 c8             	cmp    %rcx,%rax
    3886:	48 89 c2             	mov    %rax,%rdx
    3889:	75 ea                	jne    3875 <try_place+0x2f5>
    388b:	83 bc 24 64 01 00 00 	cmpl   $0x1,0x164(%rsp)
    3892:	01 
    3893:	76 18                	jbe    38ad <try_place+0x32d>
    3895:	44 8b a4 24 fc 01 00 	mov    0x1fc(%rsp),%r12d
    389c:	00 
    389d:	48 63 3d 00 00 00 00 	movslq 0x0(%rip),%rdi        # 38a4 <try_place+0x324>
    38a4:	45 85 e4             	test   %r12d,%r12d
    38a7:	0f 84 6e 02 00 00    	je     3b1b <try_place+0x59b>
    38ad:	48 63 3d 00 00 00 00 	movslq 0x0(%rip),%rdi        # 38b4 <try_place+0x334>
    38b4:	48 c1 e7 03          	shl    $0x3,%rdi
    38b8:	e8 00 00 00 00       	callq  38bd <try_place+0x33d>
    38bd:	48 63 3d 00 00 00 00 	movslq 0x0(%rip),%rdi        # 38c4 <try_place+0x344>
    38c4:	48 89 05 00 00 00 00 	mov    %rax,0x0(%rip)        # 38cb <try_place+0x34b>
    38cb:	48 c1 e7 03          	shl    $0x3,%rdi
    38cf:	e8 00 00 00 00       	callq  38d4 <try_place+0x354>
    38d4:	48 63 3d 00 00 00 00 	movslq 0x0(%rip),%rdi        # 38db <try_place+0x35b>
    38db:	48 89 05 00 00 00 00 	mov    %rax,0x0(%rip)        # 38e2 <try_place+0x362>
    38e2:	48 c1 e7 03          	shl    $0x3,%rdi
    38e6:	e8 00 00 00 00       	callq  38eb <try_place+0x36b>
    38eb:	48 63 3d 00 00 00 00 	movslq 0x0(%rip),%rdi        # 38f2 <try_place+0x372>
    38f2:	48 89 05 00 00 00 00 	mov    %rax,0x0(%rip)        # 38f9 <try_place+0x379>
    38f9:	48 c1 e7 03          	shl    $0x3,%rdi
    38fd:	e8 00 00 00 00       	callq  3902 <try_place+0x382>
    3902:	8b 35 00 00 00 00    	mov    0x0(%rip),%esi        # 3908 <try_place+0x388>
    3908:	8d 4d ff             	lea    -0x1(%rbp),%ecx
    390b:	31 ff                	xor    %edi,%edi
    390d:	31 d2                	xor    %edx,%edx
    390f:	41 b8 04 00 00 00    	mov    $0x4,%r8d
    3915:	48 89 05 00 00 00 00 	mov    %rax,0x0(%rip)        # 391c <try_place+0x39c>
    391c:	83 ee 01             	sub    $0x1,%esi
    391f:	e8 00 00 00 00       	callq  3924 <try_place+0x3a4>
    3924:	48 63 3d 00 00 00 00 	movslq 0x0(%rip),%rdi        # 392b <try_place+0x3ab>
    392b:	48 89 05 00 00 00 00 	mov    %rax,0x0(%rip)        # 3932 <try_place+0x3b2>
    3932:	85 ff                	test   %edi,%edi
    3934:	0f 8e e1 01 00 00    	jle    3b1b <try_place+0x59b>
    393a:	31 ed                	xor    %ebp,%ebp
    393c:	45 31 e4             	xor    %r12d,%r12d
    393f:	45 31 ed             	xor    %r13d,%r13d
    3942:	48 8b 05 00 00 00 00 	mov    0x0(%rip),%rax        # 3949 <try_place+0x3c9>
    3949:	4c 8b 35 00 00 00 00 	mov    0x0(%rip),%r14        # 3950 <try_place+0x3d0>
    3950:	41 83 c5 01          	add    $0x1,%r13d
    3954:	48 63 7c 28 08       	movslq 0x8(%rax,%rbp,1),%rdi
    3959:	4d 01 e6             	add    %r12,%r14
    395c:	48 c1 e7 02          	shl    $0x2,%rdi
    3960:	e8 00 00 00 00       	callq  3965 <try_place+0x3e5>
    3965:	49 89 06             	mov    %rax,(%r14)
    3968:	48 8b 05 00 00 00 00 	mov    0x0(%rip),%rax        # 396f <try_place+0x3ef>
    396f:	4c 8b 35 00 00 00 00 	mov    0x0(%rip),%r14        # 3976 <try_place+0x3f6>
    3976:	4c 01 e0             	add    %r12,%rax
    3979:	48 83 28 04          	subq   $0x4,(%rax)
    397d:	4d 01 e6             	add    %r12,%r14
    3980:	48 8b 05 00 00 00 00 	mov    0x0(%rip),%rax        # 3987 <try_place+0x407>
    3987:	48 63 7c 28 08       	movslq 0x8(%rax,%rbp,1),%rdi
    398c:	48 c1 e7 02          	shl    $0x2,%rdi
    3990:	e8 00 00 00 00       	callq  3995 <try_place+0x415>
    3995:	49 89 06             	mov    %rax,(%r14)
    3998:	48 8b 05 00 00 00 00 	mov    0x0(%rip),%rax        # 399f <try_place+0x41f>
    399f:	4c 8b 35 00 00 00 00 	mov    0x0(%rip),%r14        # 39a6 <try_place+0x426>
    39a6:	4c 01 e0             	add    %r12,%rax
    39a9:	48 83 28 04          	subq   $0x4,(%rax)
    39ad:	4d 01 e6             	add    %r12,%r14
    39b0:	48 8b 05 00 00 00 00 	mov    0x0(%rip),%rax        # 39b7 <try_place+0x437>
    39b7:	48 63 7c 28 08       	movslq 0x8(%rax,%rbp,1),%rdi
    39bc:	48 c1 e7 02          	shl    $0x2,%rdi
    39c0:	e8 00 00 00 00       	callq  39c5 <try_place+0x445>
    39c5:	49 89 06             	mov    %rax,(%r14)
    39c8:	48 8b 05 00 00 00 00 	mov    0x0(%rip),%rax        # 39cf <try_place+0x44f>
    39cf:	4c 8b 35 00 00 00 00 	mov    0x0(%rip),%r14        # 39d6 <try_place+0x456>
    39d6:	4c 01 e0             	add    %r12,%rax
    39d9:	48 83 28 04          	subq   $0x4,(%rax)
    39dd:	4d 01 e6             	add    %r12,%r14
    39e0:	48 8b 05 00 00 00 00 	mov    0x0(%rip),%rax        # 39e7 <try_place+0x467>
    39e7:	48 63 7c 28 08       	movslq 0x8(%rax,%rbp,1),%rdi
    39ec:	48 83 c5 28          	add    $0x28,%rbp
    39f0:	48 c1 e7 02          	shl    $0x2,%rdi
    39f4:	e8 00 00 00 00       	callq  39f9 <try_place+0x479>
    39f9:	48 63 3d 00 00 00 00 	movslq 0x0(%rip),%rdi        # 3a00 <try_place+0x480>
    3a00:	49 89 06             	mov    %rax,(%r14)
    3a03:	48 8b 05 00 00 00 00 	mov    0x0(%rip),%rax        # 3a0a <try_place+0x48a>
    3a0a:	4c 01 e0             	add    %r12,%rax
    3a0d:	49 83 c4 08          	add    $0x8,%r12
    3a11:	48 83 28 04          	subq   $0x4,(%rax)
    3a15:	41 39 fd             	cmp    %edi,%r13d
    3a18:	0f 8c 24 ff ff ff    	jl     3942 <try_place+0x3c2>
    3a1e:	85 ff                	test   %edi,%edi
    3a20:	0f 8e f5 00 00 00    	jle    3b1b <try_place+0x59b>
    3a26:	4c 8b 2d 00 00 00 00 	mov    0x0(%rip),%r13        # 3a2d <try_place+0x4ad>
    3a2d:	4c 8b 35 00 00 00 00 	mov    0x0(%rip),%r14        # 3a34 <try_place+0x4b4>
    3a34:	31 ed                	xor    %ebp,%ebp
    3a36:	4c 8b 25 00 00 00 00 	mov    0x0(%rip),%r12        # 3a3d <try_place+0x4bd>
    3a3d:	45 8b 44 24 08       	mov    0x8(%r12),%r8d
    3a42:	45 85 c0             	test   %r8d,%r8d
    3a45:	0f 8e c0 00 00 00    	jle    3b0b <try_place+0x58b>
    3a4b:	49 8b 4c ed 00       	mov    0x0(%r13,%rbp,8),%rcx
    3a50:	49 8b 34 ee          	mov    (%r14,%rbp,8),%rsi
    3a54:	45 89 c1             	mov    %r8d,%r9d
    3a57:	41 c1 e9 02          	shr    $0x2,%r9d
    3a5b:	46 8d 14 8d 00 00 00 	lea    0x0(,%r9,4),%r10d
    3a62:	00 
    3a63:	48 8d 51 14          	lea    0x14(%rcx),%rdx
    3a67:	48 8d 46 04          	lea    0x4(%rsi),%rax
    3a6b:	4c 8d 5e 14          	lea    0x14(%rsi),%r11
    3a6f:	48 39 c2             	cmp    %rax,%rdx
    3a72:	48 8d 51 04          	lea    0x4(%rcx),%rdx
    3a76:	0f 96 c0             	setbe  %al
    3a79:	49 39 d3             	cmp    %rdx,%r11
    3a7c:	0f 96 c2             	setbe  %dl
    3a7f:	09 d0                	or     %edx,%eax
    3a81:	41 83 f8 0d          	cmp    $0xd,%r8d
    3a85:	0f 97 c2             	seta   %dl
    3a88:	84 d0                	test   %dl,%al
    3a8a:	0f 84 d5 38 00 00    	je     7365 <try_place+0x3de5>
    3a90:	45 85 d2             	test   %r10d,%r10d
    3a93:	0f 84 cc 38 00 00    	je     7365 <try_place+0x3de5>
    3a99:	31 c0                	xor    %eax,%eax
    3a9b:	31 d2                	xor    %edx,%edx
    3a9d:	0f 1f 00             	nopl   (%rax)
    3aa0:	83 c2 01             	add    $0x1,%edx
    3aa3:	48 c7 44 01 04 00 00 	movq   $0x0,0x4(%rcx,%rax,1)
    3aaa:	00 00 
    3aac:	48 c7 44 01 0c 00 00 	movq   $0x0,0xc(%rcx,%rax,1)
    3ab3:	00 00 
    3ab5:	48 c7 44 06 04 00 00 	movq   $0x0,0x4(%rsi,%rax,1)
    3abc:	00 00 
    3abe:	48 c7 44 06 0c 00 00 	movq   $0x0,0xc(%rsi,%rax,1)
    3ac5:	00 00 
    3ac7:	48 83 c0 10          	add    $0x10,%rax
    3acb:	44 39 ca             	cmp    %r9d,%edx
    3ace:	72 d0                	jb     3aa0 <try_place+0x520>
    3ad0:	45 39 c2             	cmp    %r8d,%r10d
    3ad3:	45 8d 4a 01          	lea    0x1(%r10),%r9d
    3ad7:	74 32                	je     3b0b <try_place+0x58b>
    3ad9:	49 63 c1             	movslq %r9d,%rax
    3adc:	48 c1 e0 02          	shl    $0x2,%rax
    3ae0:	48 01 c1             	add    %rax,%rcx
    3ae3:	48 01 c6             	add    %rax,%rsi
    3ae6:	31 c0                	xor    %eax,%eax
    3ae8:	0f 1f 84 00 00 00 00 	nopl   0x0(%rax,%rax,1)
    3aef:	00 
    3af0:	c7 04 81 00 00 00 00 	movl   $0x0,(%rcx,%rax,4)
    3af7:	c7 04 86 00 00 00 00 	movl   $0x0,(%rsi,%rax,4)
    3afe:	48 83 c0 01          	add    $0x1,%rax
    3b02:	41 8d 14 01          	lea    (%r9,%rax,1),%edx
    3b06:	41 39 d0             	cmp    %edx,%r8d
    3b09:	7d e5                	jge    3af0 <try_place+0x570>
    3b0b:	48 83 c5 01          	add    $0x1,%rbp
    3b0f:	49 83 c4 28          	add    $0x28,%r12
    3b13:	39 ef                	cmp    %ebp,%edi
    3b15:	0f 8f 22 ff ff ff    	jg     3a3d <try_place+0x4bd>
    3b1b:	48 c1 e7 02          	shl    $0x2,%rdi
    3b1f:	e8 00 00 00 00       	callq  3b24 <try_place+0x5a4>
    3b24:	48 63 3d 00 00 00 00 	movslq 0x0(%rip),%rdi        # 3b2b <try_place+0x5ab>
    3b2b:	48 89 05 00 00 00 00 	mov    %rax,0x0(%rip)        # 3b32 <try_place+0x5b2>
    3b32:	48 c1 e7 02          	shl    $0x2,%rdi
    3b36:	e8 00 00 00 00       	callq  3b3b <try_place+0x5bb>
    3b3b:	48 63 3d 00 00 00 00 	movslq 0x0(%rip),%rdi        # 3b42 <try_place+0x5c2>
    3b42:	48 89 05 00 00 00 00 	mov    %rax,0x0(%rip)        # 3b49 <try_place+0x5c9>
    3b49:	85 ff                	test   %edi,%edi
    3b4b:	0f 8e 91 00 00 00    	jle    3be2 <try_place+0x662>
    3b51:	48 89 c6             	mov    %rax,%rsi
    3b54:	48 89 c1             	mov    %rax,%rcx
    3b57:	83 e6 0f             	and    $0xf,%esi
    3b5a:	48 c1 ee 02          	shr    $0x2,%rsi
    3b5e:	48 f7 de             	neg    %rsi
    3b61:	83 e6 03             	and    $0x3,%esi
    3b64:	39 f7                	cmp    %esi,%edi
    3b66:	0f 42 f7             	cmovb  %edi,%esi
    3b69:	83 ff 06             	cmp    $0x6,%edi
    3b6c:	0f 46 f7             	cmovbe %edi,%esi
    3b6f:	31 d2                	xor    %edx,%edx
    3b71:	85 f6                	test   %esi,%esi
    3b73:	74 15                	je     3b8a <try_place+0x60a>
    3b75:	83 c2 01             	add    $0x1,%edx
    3b78:	c7 01 00 00 80 bf    	movl   $0xbf800000,(%rcx)
    3b7e:	48 83 c1 04          	add    $0x4,%rcx
    3b82:	39 f2                	cmp    %esi,%edx
    3b84:	72 ef                	jb     3b75 <try_place+0x5f5>
    3b86:	39 fe                	cmp    %edi,%esi
    3b88:	74 58                	je     3be2 <try_place+0x662>
    3b8a:	41 89 fa             	mov    %edi,%r10d
    3b8d:	89 f1                	mov    %esi,%ecx
    3b8f:	41 29 f2             	sub    %esi,%r10d
    3b92:	45 89 d0             	mov    %r10d,%r8d
    3b95:	41 c1 e8 02          	shr    $0x2,%r8d
    3b99:	46 8d 0c 85 00 00 00 	lea    0x0(,%r8,4),%r9d
    3ba0:	00 
    3ba1:	45 85 c9             	test   %r9d,%r9d
    3ba4:	74 24                	je     3bca <try_place+0x64a>
    3ba6:	0f 28 05 00 00 00 00 	movaps 0x0(%rip),%xmm0        # 3bad <try_place+0x62d>
    3bad:	48 8d 34 88          	lea    (%rax,%rcx,4),%rsi
    3bb1:	31 c9                	xor    %ecx,%ecx
    3bb3:	83 c1 01             	add    $0x1,%ecx
    3bb6:	0f 29 06             	movaps %xmm0,(%rsi)
    3bb9:	48 83 c6 10          	add    $0x10,%rsi
    3bbd:	44 39 c1             	cmp    %r8d,%ecx
    3bc0:	72 f1                	jb     3bb3 <try_place+0x633>
    3bc2:	44 01 ca             	add    %r9d,%edx
    3bc5:	45 39 d1             	cmp    %r10d,%r9d
    3bc8:	74 18                	je     3be2 <try_place+0x662>
    3bca:	48 63 ca             	movslq %edx,%rcx
    3bcd:	48 8d 04 88          	lea    (%rax,%rcx,4),%rax
    3bd1:	83 c2 01             	add    $0x1,%edx
    3bd4:	c7 00 00 00 80 bf    	movl   $0xbf800000,(%rax)
    3bda:	48 83 c0 04          	add    $0x4,%rax
    3bde:	39 d7                	cmp    %edx,%edi
    3be0:	7f ef                	jg     3bd1 <try_place+0x651>
    3be2:	48 c1 e7 04          	shl    $0x4,%rdi
    3be6:	e8 00 00 00 00       	callq  3beb <try_place+0x66b>
    3beb:	48 63 3d 00 00 00 00 	movslq 0x0(%rip),%rdi        # 3bf2 <try_place+0x672>
    3bf2:	48 89 05 00 00 00 00 	mov    %rax,0x0(%rip)        # 3bf9 <try_place+0x679>
    3bf9:	48 c1 e7 04          	shl    $0x4,%rdi
    3bfd:	e8 00 00 00 00       	callq  3c02 <try_place+0x682>
    3c02:	48 63 3d 00 00 00 00 	movslq 0x0(%rip),%rdi        # 3c09 <try_place+0x689>
    3c09:	be 04 00 00 00       	mov    $0x4,%esi
    3c0e:	48 89 05 00 00 00 00 	mov    %rax,0x0(%rip)        # 3c15 <try_place+0x695>
    3c15:	e8 00 00 00 00       	callq  3c1a <try_place+0x69a>
    3c1a:	48 63 3d 00 00 00 00 	movslq 0x0(%rip),%rdi        # 3c21 <try_place+0x6a1>
    3c21:	be 04 00 00 00       	mov    $0x4,%esi
    3c26:	48 89 05 00 00 00 00 	mov    %rax,0x0(%rip)        # 3c2d <try_place+0x6ad>
    3c2d:	e8 00 00 00 00       	callq  3c32 <try_place+0x6b2>
    3c32:	44 8b 1d 00 00 00 00 	mov    0x0(%rip),%r11d        # 3c39 <try_place+0x6b9>
    3c39:	49 89 c4             	mov    %rax,%r12
    3c3c:	45 85 db             	test   %r11d,%r11d
    3c3f:	0f 8e 27 01 00 00    	jle    3d6c <try_place+0x7ec>
    3c45:	4c 8b 1d 00 00 00 00 	mov    0x0(%rip),%r11        # 3c4c <try_place+0x6cc>
    3c4c:	45 31 d2             	xor    %r10d,%r10d
    3c4f:	45 31 f6             	xor    %r14d,%r14d
    3c52:	31 ed                	xor    %ebp,%ebp
    3c54:	89 9c 24 40 01 00 00 	mov    %ebx,0x140(%rsp)
    3c5b:	45 89 d5             	mov    %r10d,%r13d
    3c5e:	4f 8d 3c b6          	lea    (%r14,%r14,4),%r15
    3c62:	4d 01 ff             	add    %r15,%r15
    3c65:	4f 8d 04 3b          	lea    (%r11,%r15,1),%r8
    3c69:	41 8b 40 08          	mov    0x8(%r8),%eax
    3c6d:	85 c0                	test   %eax,%eax
    3c6f:	0f 88 db 00 00 00    	js     3d50 <try_place+0x7d0>
    3c75:	4d 8b 50 10          	mov    0x10(%r8),%r10
    3c79:	31 c0                	xor    %eax,%eax
    3c7b:	31 d2                	xor    %edx,%edx
    3c7d:	4c 89 d1             	mov    %r10,%rcx
    3c80:	48 63 31             	movslq (%rcx),%rsi
    3c83:	49 8d 3c b4          	lea    (%r12,%rsi,4),%rdi
    3c87:	8b 37                	mov    (%rdi),%esi
    3c89:	83 c6 01             	add    $0x1,%esi
    3c8c:	83 fe 02             	cmp    $0x2,%esi
    3c8f:	89 37                	mov    %esi,(%rdi)
    3c91:	8d 78 01             	lea    0x1(%rax),%edi
    3c94:	41 8b 70 08          	mov    0x8(%r8),%esi
    3c98:	0f 4d c7             	cmovge %edi,%eax
    3c9b:	83 c2 01             	add    $0x1,%edx
    3c9e:	48 83 c1 04          	add    $0x4,%rcx
    3ca2:	41 89 c1             	mov    %eax,%r9d
    3ca5:	39 f2                	cmp    %esi,%edx
    3ca7:	7e d7                	jle    3c80 <try_place+0x700>
    3ca9:	85 c0                	test   %eax,%eax
    3cab:	0f 84 e2 07 00 00    	je     4493 <try_place+0xf13>
    3cb1:	48 8b 05 00 00 00 00 	mov    0x0(%rip),%rax        # 3cb8 <try_place+0x738>
    3cb8:	85 ed                	test   %ebp,%ebp
    3cba:	46 89 0c 30          	mov    %r9d,(%rax,%r14,1)
    3cbe:	48 8b 05 00 00 00 00 	mov    0x0(%rip),%rax        # 3cc5 <try_place+0x745>
    3cc5:	0f 84 91 07 00 00    	je     445c <try_place+0xedc>
    3ccb:	4b 8d 1c 36          	lea    (%r14,%r14,1),%rbx
    3ccf:	48 8d 2c 18          	lea    (%rax,%rbx,1),%rbp
    3cd3:	41 8b 40 08          	mov    0x8(%r8),%eax
    3cd7:	83 c0 01             	add    $0x1,%eax
    3cda:	44 29 c8             	sub    %r9d,%eax
    3cdd:	48 98                	cltq   
    3cdf:	48 8d 3c 85 00 00 00 	lea    0x0(,%rax,4),%rdi
    3ce6:	00 
    3ce7:	e8 00 00 00 00       	callq  3cec <try_place+0x76c>
    3cec:	48 89 45 00          	mov    %rax,0x0(%rbp)
    3cf0:	4c 8b 1d 00 00 00 00 	mov    0x0(%rip),%r11        # 3cf7 <try_place+0x777>
    3cf7:	4d 01 df             	add    %r11,%r15
    3cfa:	41 8b 7f 08          	mov    0x8(%r15),%edi
    3cfe:	85 ff                	test   %edi,%edi
    3d00:	78 49                	js     3d4b <try_place+0x7cb>
    3d02:	4c 8b 0d 00 00 00 00 	mov    0x0(%rip),%r9        # 3d09 <try_place+0x789>
    3d09:	49 8b 57 10          	mov    0x10(%r15),%rdx
    3d0d:	45 31 c0             	xor    %r8d,%r8d
    3d10:	31 c0                	xor    %eax,%eax
    3d12:	49 01 d9             	add    %rbx,%r9
    3d15:	0f 1f 00             	nopl   (%rax)
    3d18:	8b 0a                	mov    (%rdx),%ecx
    3d1a:	48 63 f1             	movslq %ecx,%rsi
    3d1d:	49 8d 34 b4          	lea    (%r12,%rsi,4),%rsi
    3d21:	44 8b 16             	mov    (%rsi),%r10d
    3d24:	45 85 d2             	test   %r10d,%r10d
    3d27:	74 17                	je     3d40 <try_place+0x7c0>
    3d29:	c7 06 00 00 00 00    	movl   $0x0,(%rsi)
    3d2f:	49 8b 31             	mov    (%r9),%rsi
    3d32:	49 63 f8             	movslq %r8d,%rdi
    3d35:	41 83 c0 01          	add    $0x1,%r8d
    3d39:	89 0c be             	mov    %ecx,(%rsi,%rdi,4)
    3d3c:	41 8b 7f 08          	mov    0x8(%r15),%edi
    3d40:	83 c0 01             	add    $0x1,%eax
    3d43:	48 83 c2 04          	add    $0x4,%rdx
    3d47:	39 f8                	cmp    %edi,%eax
    3d49:	7e cd                	jle    3d18 <try_place+0x798>
    3d4b:	bd 01 00 00 00       	mov    $0x1,%ebp
    3d50:	41 83 c5 01          	add    $0x1,%r13d
    3d54:	49 83 c6 04          	add    $0x4,%r14
    3d58:	44 3b 2d 00 00 00 00 	cmp    0x0(%rip),%r13d        # 3d5f <try_place+0x7df>
    3d5f:	0f 8c f9 fe ff ff    	jl     3c5e <try_place+0x6de>
    3d65:	8b 9c 24 40 01 00 00 	mov    0x140(%rsp),%ebx
    3d6c:	4c 89 e7             	mov    %r12,%rdi
    3d6f:	e8 00 00 00 00       	callq  3d74 <try_place+0x7f4>
    3d74:	83 bc 24 60 01 00 00 	cmpl   $0x1,0x160(%rsp)
    3d7b:	01 
    3d7c:	0f 84 c6 19 00 00    	je     5748 <try_place+0x21c8>
    3d82:	8b 84 24 60 01 00 00 	mov    0x160(%rsp),%eax
    3d89:	85 c0                	test   %eax,%eax
    3d8b:	0f 85 f3 03 00 00    	jne    4184 <try_place+0xc04>
    3d91:	8b 3d 00 00 00 00    	mov    0x0(%rip),%edi        # 3d97 <try_place+0x817>
    3d97:	83 c7 01             	add    $0x1,%edi
    3d9a:	48 63 ff             	movslq %edi,%rdi
    3d9d:	48 c1 e7 03          	shl    $0x3,%rdi
    3da1:	e8 00 00 00 00       	callq  3da6 <try_place+0x826>
    3da6:	44 8b 3d 00 00 00 00 	mov    0x0(%rip),%r15d        # 3dad <try_place+0x82d>
    3dad:	48 89 05 00 00 00 00 	mov    %rax,0x0(%rip)        # 3db4 <try_place+0x834>
    3db4:	45 85 ff             	test   %r15d,%r15d
    3db7:	78 31                	js     3dea <try_place+0x86a>
    3db9:	31 ed                	xor    %ebp,%ebp
    3dbb:	eb 07                	jmp    3dc4 <try_place+0x844>
    3dbd:	48 8b 05 00 00 00 00 	mov    0x0(%rip),%rax        # 3dc4 <try_place+0x844>
    3dc4:	4c 8d 2c e8          	lea    (%rax,%rbp,8),%r13
    3dc8:	44 8d 65 01          	lea    0x1(%rbp),%r12d
    3dcc:	48 83 c5 01          	add    $0x1,%rbp
    3dd0:	48 8d 3c ad 00 00 00 	lea    0x0(,%rbp,4),%rdi
    3dd7:	00 
    3dd8:	e8 00 00 00 00       	callq  3ddd <try_place+0x85d>
    3ddd:	44 39 25 00 00 00 00 	cmp    %r12d,0x0(%rip)        # 3de4 <try_place+0x864>
    3de4:	49 89 45 00          	mov    %rax,0x0(%r13)
    3de8:	7d d3                	jge    3dbd <try_place+0x83d>
    3dea:	8b 3d 00 00 00 00    	mov    0x0(%rip),%edi        # 3df0 <try_place+0x870>
    3df0:	83 c7 01             	add    $0x1,%edi
    3df3:	48 63 ff             	movslq %edi,%rdi
    3df6:	48 c1 e7 03          	shl    $0x3,%rdi
    3dfa:	e8 00 00 00 00       	callq  3dff <try_place+0x87f>
    3dff:	49 89 c4             	mov    %rax,%r12
    3e02:	48 89 05 00 00 00 00 	mov    %rax,0x0(%rip)        # 3e09 <try_place+0x889>
    3e09:	8b 05 00 00 00 00    	mov    0x0(%rip),%eax        # 3e0f <try_place+0x88f>
    3e0f:	85 c0                	test   %eax,%eax
    3e11:	78 31                	js     3e44 <try_place+0x8c4>
    3e13:	45 31 ed             	xor    %r13d,%r13d
    3e16:	4f 8d 24 ec          	lea    (%r12,%r13,8),%r12
    3e1a:	41 8d 6d 01          	lea    0x1(%r13),%ebp
    3e1e:	49 83 c5 01          	add    $0x1,%r13
    3e22:	4a 8d 3c ad 00 00 00 	lea    0x0(,%r13,4),%rdi
    3e29:	00 
    3e2a:	e8 00 00 00 00       	callq  3e2f <try_place+0x8af>
    3e2f:	49 89 04 24          	mov    %rax,(%r12)
    3e33:	8b 05 00 00 00 00    	mov    0x0(%rip),%eax        # 3e39 <try_place+0x8b9>
    3e39:	4c 8b 25 00 00 00 00 	mov    0x0(%rip),%r12        # 3e40 <try_place+0x8c0>
    3e40:	39 e8                	cmp    %ebp,%eax
    3e42:	7d d2                	jge    3e16 <try_place+0x896>
    3e44:	4c 8b 15 00 00 00 00 	mov    0x0(%rip),%r10        # 3e4b <try_place+0x8cb>
    3e4b:	44 8b 2d 00 00 00 00 	mov    0x0(%rip),%r13d        # 3e52 <try_place+0x8d2>
    3e52:	48 8b 2d 00 00 00 00 	mov    0x0(%rip),%rbp        # 3e59 <try_place+0x8d9>
    3e59:	49 8b 12             	mov    (%r10),%rdx
    3e5c:	41 83 fd 00          	cmp    $0x0,%r13d
    3e60:	f3 0f 2a 45 00       	cvtsi2ssl 0x0(%rbp),%xmm0
    3e65:	f3 0f 11 02          	movss  %xmm0,(%rdx)
    3e69:	0f 8e 01 35 00 00    	jle    7370 <try_place+0x3df0>
    3e6f:	0f 57 d2             	xorps  %xmm2,%xmm2
    3e72:	41 83 c5 01          	add    $0x1,%r13d
    3e76:	41 b9 04 00 00 00    	mov    $0x4,%r9d
    3e7c:	bf 01 00 00 00       	mov    $0x1,%edi
    3e81:	4b 8b 0c 4a          	mov    (%r10,%r9,2),%rcx
    3e85:	4b 8b 74 4a f8       	mov    -0x8(%r10,%r9,2),%rsi
    3e8a:	41 89 fb             	mov    %edi,%r11d
    3e8d:	41 c1 eb 02          	shr    $0x2,%r11d
    3e91:	f3 42 0f 2a 4c 0d 00 	cvtsi2ssl 0x0(%rbp,%r9,1),%xmm1
    3e98:	46 8d 04 9d 00 00 00 	lea    0x0(,%r11,4),%r8d
    3e9f:	00 
    3ea0:	48 8d 41 10          	lea    0x10(%rcx),%rax
    3ea4:	48 8d 56 10          	lea    0x10(%rsi),%rdx
    3ea8:	f3 42 0f 11 0c 09    	movss  %xmm1,(%rcx,%r9,1)
    3eae:	48 39 c6             	cmp    %rax,%rsi
    3eb1:	0f 93 c0             	setae  %al
    3eb4:	48 39 d1             	cmp    %rdx,%rcx
    3eb7:	0f 93 c2             	setae  %dl
    3eba:	09 d0                	or     %edx,%eax
    3ebc:	83 ff 07             	cmp    $0x7,%edi
    3ebf:	0f 97 c2             	seta   %dl
    3ec2:	84 d0                	test   %dl,%al
    3ec4:	0f 84 53 34 00 00    	je     731d <try_place+0x3d9d>
    3eca:	45 85 c0             	test   %r8d,%r8d
    3ecd:	0f 84 4a 34 00 00    	je     731d <try_place+0x3d9d>
    3ed3:	0f 28 c1             	movaps %xmm1,%xmm0
    3ed6:	31 c0                	xor    %eax,%eax
    3ed8:	31 d2                	xor    %edx,%edx
    3eda:	0f c6 c0 00          	shufps $0x0,%xmm0,%xmm0
    3ede:	0f 28 d8             	movaps %xmm0,%xmm3
    3ee1:	0f 1f 80 00 00 00 00 	nopl   0x0(%rax)
    3ee8:	0f 28 c2             	movaps %xmm2,%xmm0
    3eeb:	83 c2 01             	add    $0x1,%edx
    3eee:	0f 12 04 06          	movlps (%rsi,%rax,1),%xmm0
    3ef2:	0f 16 44 06 08       	movhps 0x8(%rsi,%rax,1),%xmm0
    3ef7:	0f 58 c3             	addps  %xmm3,%xmm0
    3efa:	0f 13 04 01          	movlps %xmm0,(%rcx,%rax,1)
    3efe:	0f 17 44 01 08       	movhps %xmm0,0x8(%rcx,%rax,1)
    3f03:	48 83 c0 10          	add    $0x10,%rax
    3f07:	44 39 da             	cmp    %r11d,%edx
    3f0a:	72 dc                	jb     3ee8 <try_place+0x968>
    3f0c:	41 39 f8             	cmp    %edi,%r8d
    3f0f:	74 29                	je     3f3a <try_place+0x9ba>
    3f11:	49 63 c0             	movslq %r8d,%rax
    3f14:	48 c1 e0 02          	shl    $0x2,%rax
    3f18:	48 01 c6             	add    %rax,%rsi
    3f1b:	48 01 c1             	add    %rax,%rcx
    3f1e:	31 c0                	xor    %eax,%eax
    3f20:	f3 0f 10 04 86       	movss  (%rsi,%rax,4),%xmm0
    3f25:	f3 0f 58 c1          	addss  %xmm1,%xmm0
    3f29:	f3 0f 11 04 81       	movss  %xmm0,(%rcx,%rax,4)
    3f2e:	48 83 c0 01          	add    $0x1,%rax
    3f32:	41 8d 14 00          	lea    (%r8,%rax,1),%edx
    3f36:	39 d7                	cmp    %edx,%edi
    3f38:	7f e6                	jg     3f20 <try_place+0x9a0>
    3f3a:	83 c7 01             	add    $0x1,%edi
    3f3d:	49 83 c1 04          	add    $0x4,%r9
    3f41:	44 39 ef             	cmp    %r13d,%edi
    3f44:	0f 85 37 ff ff ff    	jne    3e81 <try_place+0x901>
    3f4a:	f3 0f 10 a4 24 50 01 	movss  0x150(%rsp),%xmm4
    3f51:	00 00 
    3f53:	f2 0f 10 1d 00 00 00 	movsd  0x0(%rip),%xmm3        # 3f5b <try_place+0x9db>
    3f5a:	00 
    3f5b:	4d 89 d7             	mov    %r10,%r15
    3f5e:	31 ed                	xor    %ebp,%ebp
    3f60:	0f 5a e4             	cvtps2pd %xmm4,%xmm4
    3f63:	f2 0f 11 9c 24 38 01 	movsd  %xmm3,0x138(%rsp)
    3f6a:	00 00 
    3f6c:	f2 0f 11 a4 24 40 01 	movsd  %xmm4,0x140(%rsp)
    3f73:	00 00 
    3f75:	45 31 ed             	xor    %r13d,%r13d
    3f78:	0f 1f 84 00 00 00 00 	nopl   0x0(%rax,%rax,1)
    3f7f:	00 
    3f80:	49 8b 07             	mov    (%r15),%rax
    3f83:	4e 8d 34 a8          	lea    (%rax,%r13,4),%r14
    3f87:	89 e8                	mov    %ebp,%eax
    3f89:	44 29 e8             	sub    %r13d,%eax
    3f8c:	49 83 c5 01          	add    $0x1,%r13
    3f90:	f2 0f 2a c0          	cvtsi2sd %eax,%xmm0
    3f94:	f3 41 0f 10 0e       	movss  (%r14),%xmm1
    3f99:	0f 5a c9             	cvtps2pd %xmm1,%xmm1
    3f9c:	f2 0f 58 84 24 38 01 	addsd  0x138(%rsp),%xmm0
    3fa3:	00 00 
    3fa5:	f2 0f 5e c1          	divsd  %xmm1,%xmm0
    3fa9:	f2 0f 10 8c 24 40 01 	movsd  0x140(%rsp),%xmm1
    3fb0:	00 00 
    3fb2:	66 0f 14 c0          	unpcklpd %xmm0,%xmm0
    3fb6:	66 0f 5a c0          	cvtpd2ps %xmm0,%xmm0
    3fba:	f3 41 0f 11 06       	movss  %xmm0,(%r14)
    3fbf:	0f 14 c0             	unpcklps %xmm0,%xmm0
    3fc2:	0f 5a c0             	cvtps2pd %xmm0,%xmm0
    3fc5:	e8 00 00 00 00       	callq  3fca <try_place+0xa4a>
    3fca:	66 0f 14 c0          	unpcklpd %xmm0,%xmm0
    3fce:	44 39 ed             	cmp    %r13d,%ebp
    3fd1:	66 0f 5a c0          	cvtpd2ps %xmm0,%xmm0
    3fd5:	f3 41 0f 11 06       	movss  %xmm0,(%r14)
    3fda:	7d a4                	jge    3f80 <try_place+0xa00>
    3fdc:	83 c5 01             	add    $0x1,%ebp
    3fdf:	49 83 c7 08          	add    $0x8,%r15
    3fe3:	3b 2d 00 00 00 00    	cmp    0x0(%rip),%ebp        # 3fe9 <try_place+0xa69>
    3fe9:	7e 8a                	jle    3f75 <try_place+0x9f5>
    3feb:	8b 05 00 00 00 00    	mov    0x0(%rip),%eax        # 3ff1 <try_place+0xa71>
    3ff1:	4c 8b 1d 00 00 00 00 	mov    0x0(%rip),%r11        # 3ff8 <try_place+0xa78>
    3ff8:	49 8b 14 24          	mov    (%r12),%rdx
    3ffc:	83 f8 00             	cmp    $0x0,%eax
    3fff:	f3 41 0f 2a 03       	cvtsi2ssl (%r11),%xmm0
    4004:	f3 0f 11 02          	movss  %xmm0,(%rdx)
    4008:	0f 8e 17 33 00 00    	jle    7325 <try_place+0x3da5>
    400e:	0f 57 d2             	xorps  %xmm2,%xmm2
    4011:	8d 68 01             	lea    0x1(%rax),%ebp
    4014:	41 b9 04 00 00 00    	mov    $0x4,%r9d
    401a:	bf 01 00 00 00       	mov    $0x1,%edi
    401f:	4b 8b 74 4c f8       	mov    -0x8(%r12,%r9,2),%rsi
    4024:	4b 8b 0c 4c          	mov    (%r12,%r9,2),%rcx
    4028:	41 89 fa             	mov    %edi,%r10d
    402b:	41 c1 ea 02          	shr    $0x2,%r10d
    402f:	f3 43 0f 2a 0c 0b    	cvtsi2ssl (%r11,%r9,1),%xmm1
    4035:	46 8d 04 95 00 00 00 	lea    0x0(,%r10,4),%r8d
    403c:	00 
    403d:	48 8d 46 10          	lea    0x10(%rsi),%rax
    4041:	48 8d 51 10          	lea    0x10(%rcx),%rdx
    4045:	f3 42 0f 11 0c 09    	movss  %xmm1,(%rcx,%r9,1)
    404b:	48 39 c1             	cmp    %rax,%rcx
    404e:	0f 93 c0             	setae  %al
    4051:	48 39 d6             	cmp    %rdx,%rsi
    4054:	0f 93 c2             	setae  %dl
    4057:	09 d0                	or     %edx,%eax
    4059:	83 ff 07             	cmp    $0x7,%edi
    405c:	0f 97 c2             	seta   %dl
    405f:	84 d0                	test   %dl,%al
    4061:	0f 84 ce 32 00 00    	je     7335 <try_place+0x3db5>
    4067:	45 85 c0             	test   %r8d,%r8d
    406a:	0f 84 c5 32 00 00    	je     7335 <try_place+0x3db5>
    4070:	0f 28 e9             	movaps %xmm1,%xmm5
    4073:	31 c0                	xor    %eax,%eax
    4075:	31 d2                	xor    %edx,%edx
    4077:	0f c6 ed 00          	shufps $0x0,%xmm5,%xmm5
    407b:	0f 28 dd             	movaps %xmm5,%xmm3
    407e:	66 90                	xchg   %ax,%ax
    4080:	0f 28 c2             	movaps %xmm2,%xmm0
    4083:	83 c2 01             	add    $0x1,%edx
    4086:	0f 12 04 06          	movlps (%rsi,%rax,1),%xmm0
    408a:	0f 16 44 06 08       	movhps 0x8(%rsi,%rax,1),%xmm0
    408f:	0f 58 c3             	addps  %xmm3,%xmm0
    4092:	0f 13 04 01          	movlps %xmm0,(%rcx,%rax,1)
    4096:	0f 17 44 01 08       	movhps %xmm0,0x8(%rcx,%rax,1)
    409b:	48 83 c0 10          	add    $0x10,%rax
    409f:	41 39 d2             	cmp    %edx,%r10d
    40a2:	77 dc                	ja     4080 <try_place+0xb00>
    40a4:	41 39 f8             	cmp    %edi,%r8d
    40a7:	74 31                	je     40da <try_place+0xb5a>
    40a9:	49 63 c0             	movslq %r8d,%rax
    40ac:	48 c1 e0 02          	shl    $0x2,%rax
    40b0:	48 01 c6             	add    %rax,%rsi
    40b3:	48 01 c1             	add    %rax,%rcx
    40b6:	31 c0                	xor    %eax,%eax
    40b8:	0f 1f 84 00 00 00 00 	nopl   0x0(%rax,%rax,1)
    40bf:	00 
    40c0:	f3 0f 10 04 86       	movss  (%rsi,%rax,4),%xmm0
    40c5:	f3 0f 58 c1          	addss  %xmm1,%xmm0
    40c9:	f3 0f 11 04 81       	movss  %xmm0,(%rcx,%rax,4)
    40ce:	48 83 c0 01          	add    $0x1,%rax
    40d2:	41 8d 14 00          	lea    (%r8,%rax,1),%edx
    40d6:	39 d7                	cmp    %edx,%edi
    40d8:	7f e6                	jg     40c0 <try_place+0xb40>
    40da:	83 c7 01             	add    $0x1,%edi
    40dd:	49 83 c1 04          	add    $0x4,%r9
    40e1:	39 ef                	cmp    %ebp,%edi
    40e3:	0f 85 36 ff ff ff    	jne    401f <try_place+0xa9f>
    40e9:	f3 0f 10 a4 24 50 01 	movss  0x150(%rsp),%xmm4
    40f0:	00 00 
    40f2:	f2 0f 10 1d 00 00 00 	movsd  0x0(%rip),%xmm3        # 40fa <try_place+0xb7a>
    40f9:	00 
    40fa:	31 ed                	xor    %ebp,%ebp
    40fc:	0f 5a e4             	cvtps2pd %xmm4,%xmm4
    40ff:	f2 0f 11 9c 24 38 01 	movsd  %xmm3,0x138(%rsp)
    4106:	00 00 
    4108:	f2 0f 11 a4 24 40 01 	movsd  %xmm4,0x140(%rsp)
    410f:	00 00 
    4111:	45 31 ed             	xor    %r13d,%r13d
    4114:	0f 1f 40 00          	nopl   0x0(%rax)
    4118:	49 8b 04 24          	mov    (%r12),%rax
    411c:	4e 8d 34 a8          	lea    (%rax,%r13,4),%r14
    4120:	89 e8                	mov    %ebp,%eax
    4122:	44 29 e8             	sub    %r13d,%eax
    4125:	49 83 c5 01          	add    $0x1,%r13
    4129:	f2 0f 2a c0          	cvtsi2sd %eax,%xmm0
    412d:	f3 41 0f 10 0e       	movss  (%r14),%xmm1
    4132:	0f 5a c9             	cvtps2pd %xmm1,%xmm1
    4135:	f2 0f 58 84 24 38 01 	addsd  0x138(%rsp),%xmm0
    413c:	00 00 
    413e:	f2 0f 5e c1          	divsd  %xmm1,%xmm0
    4142:	f2 0f 10 8c 24 40 01 	movsd  0x140(%rsp),%xmm1
    4149:	00 00 
    414b:	66 0f 14 c0          	unpcklpd %xmm0,%xmm0
    414f:	66 0f 5a c0          	cvtpd2ps %xmm0,%xmm0
    4153:	f3 41 0f 11 06       	movss  %xmm0,(%r14)
    4158:	0f 14 c0             	unpcklps %xmm0,%xmm0
    415b:	0f 5a c0             	cvtps2pd %xmm0,%xmm0
    415e:	e8 00 00 00 00       	callq  4163 <try_place+0xbe3>
    4163:	66 0f 14 c0          	unpcklpd %xmm0,%xmm0
    4167:	44 39 ed             	cmp    %r13d,%ebp
    416a:	66 0f 5a c0          	cvtpd2ps %xmm0,%xmm0
    416e:	f3 41 0f 11 06       	movss  %xmm0,(%r14)
    4173:	7d a3                	jge    4118 <try_place+0xb98>
    4175:	83 c5 01             	add    $0x1,%ebp
    4178:	49 83 c4 08          	add    $0x8,%r12
    417c:	3b 2d 00 00 00 00    	cmp    0x0(%rip),%ebp        # 4182 <try_place+0xc02>
    4182:	7e 8d                	jle    4111 <try_place+0xb91>
    4184:	48 c7 84 24 80 01 00 	movq   $0x0,0x180(%rsp)
    418b:	00 00 00 00 00 
    4190:	48 c7 84 24 88 01 00 	movq   $0x0,0x188(%rsp)
    4197:	00 00 00 00 00 
    419c:	48 63 3d 00 00 00 00 	movslq 0x0(%rip),%rdi        # 41a3 <try_place+0xc23>
    41a3:	48 8b 84 24 50 04 00 	mov    0x450(%rsp),%rax
    41aa:	00 
    41ab:	48 89 84 24 38 01 00 	mov    %rax,0x138(%rsp)
    41b2:	00 
    41b3:	48 c1 e7 03          	shl    $0x3,%rdi
    41b7:	e8 00 00 00 00       	callq  41bc <try_place+0xc3c>
    41bc:	48 63 3d 00 00 00 00 	movslq 0x0(%rip),%rdi        # 41c3 <try_place+0xc43>
    41c3:	be 04 00 00 00       	mov    $0x4,%esi
    41c8:	49 89 c4             	mov    %rax,%r12
    41cb:	e8 00 00 00 00       	callq  41d0 <try_place+0xc50>
    41d0:	48 63 3d 00 00 00 00 	movslq 0x0(%rip),%rdi        # 41d7 <try_place+0xc57>
    41d7:	be 04 00 00 00       	mov    $0x4,%esi
    41dc:	48 89 c5             	mov    %rax,%rbp
    41df:	e8 00 00 00 00       	callq  41e4 <try_place+0xc64>
    41e4:	8b 15 00 00 00 00    	mov    0x0(%rip),%edx        # 41ea <try_place+0xc6a>
    41ea:	49 89 c5             	mov    %rax,%r13
    41ed:	83 fa ff             	cmp    $0xffffffff,%edx
    41f0:	0f 8c 99 00 00 00    	jl     428f <try_place+0xd0f>
    41f6:	8b 05 00 00 00 00    	mov    0x0(%rip),%eax        # 41fc <try_place+0xc7c>
    41fc:	4c 8b 0d 00 00 00 00 	mov    0x0(%rip),%r9        # 4203 <try_place+0xc83>
    4203:	45 31 d2             	xor    %r10d,%r10d
    4206:	83 f8 ff             	cmp    $0xffffffff,%eax
    4209:	7c 70                	jl     427b <try_place+0xcfb>
    420b:	49 8b 39             	mov    (%r9),%rdi
    420e:	45 31 c0             	xor    %r8d,%r8d
    4211:	0f 1f 80 00 00 00 00 	nopl   0x0(%rax)
    4218:	48 8b 0f             	mov    (%rdi),%rcx
    421b:	c7 47 0c 00 00 00 00 	movl   $0x0,0xc(%rdi)
    4222:	44 8b 71 0c          	mov    0xc(%rcx),%r14d
    4226:	45 85 f6             	test   %r14d,%r14d
    4229:	7e 3a                	jle    4265 <try_place+0xce5>
    422b:	48 8b 57 10          	mov    0x10(%rdi),%rdx
    422f:	31 c0                	xor    %eax,%eax
    4231:	0f 1f 80 00 00 00 00 	nopl   0x0(%rax)
    4238:	c7 02 ff ff ff ff    	movl   $0xffffffff,(%rdx)
    423e:	44 8b 5f 08          	mov    0x8(%rdi),%r11d
    4242:	45 85 db             	test   %r11d,%r11d
    4245:	75 0c                	jne    4253 <try_place+0xcd3>
    4247:	48 63 b1 90 00 00 00 	movslq 0x90(%rcx),%rsi
    424e:	83 44 b5 00 01       	addl   $0x1,0x0(%rbp,%rsi,4)
    4253:	83 c0 01             	add    $0x1,%eax
    4256:	48 83 c2 04          	add    $0x4,%rdx
    425a:	3b 41 0c             	cmp    0xc(%rcx),%eax
    425d:	7c d9                	jl     4238 <try_place+0xcb8>
    425f:	8b 05 00 00 00 00    	mov    0x0(%rip),%eax        # 4265 <try_place+0xce5>
    4265:	8d 50 01             	lea    0x1(%rax),%edx
    4268:	41 83 c0 01          	add    $0x1,%r8d
    426c:	48 83 c7 18          	add    $0x18,%rdi
    4270:	41 39 d0             	cmp    %edx,%r8d
    4273:	7e a3                	jle    4218 <try_place+0xc98>
    4275:	8b 15 00 00 00 00    	mov    0x0(%rip),%edx        # 427b <try_place+0xcfb>
    427b:	8d 4a 01             	lea    0x1(%rdx),%ecx
    427e:	41 83 c2 01          	add    $0x1,%r10d
    4282:	49 83 c1 08          	add    $0x8,%r9
    4286:	41 39 ca             	cmp    %ecx,%r10d
    4289:	0f 8e 77 ff ff ff    	jle    4206 <try_place+0xc86>
    428f:	8b 35 00 00 00 00    	mov    0x0(%rip),%esi        # 4295 <try_place+0xd15>
    4295:	85 f6                	test   %esi,%esi
    4297:	7e 2f                	jle    42c8 <try_place+0xd48>
    4299:	45 31 f6             	xor    %r14d,%r14d
    429c:	4a 63 44 b5 00       	movslq 0x0(%rbp,%r14,4),%rax
    42a1:	48 8d 3c 40          	lea    (%rax,%rax,2),%rdi
    42a5:	48 c1 e7 02          	shl    $0x2,%rdi
    42a9:	e8 00 00 00 00       	callq  42ae <try_place+0xd2e>
    42ae:	4b 89 04 f4          	mov    %rax,(%r12,%r14,8)
    42b2:	41 8d 46 01          	lea    0x1(%r14),%eax
    42b6:	49 83 c6 01          	add    $0x1,%r14
    42ba:	39 05 00 00 00 00    	cmp    %eax,0x0(%rip)        # 42c0 <try_place+0xd40>
    42c0:	7f da                	jg     429c <try_place+0xd1c>
    42c2:	8b 15 00 00 00 00    	mov    0x0(%rip),%edx        # 42c8 <try_place+0xd48>
    42c8:	83 fa ff             	cmp    $0xffffffff,%edx
    42cb:	0f 8c a6 00 00 00    	jl     4377 <try_place+0xdf7>
    42d1:	8b 0d 00 00 00 00    	mov    0x0(%rip),%ecx        # 42d7 <try_place+0xd57>
    42d7:	4c 8b 1d 00 00 00 00 	mov    0x0(%rip),%r11        # 42de <try_place+0xd5e>
    42de:	45 31 d2             	xor    %r10d,%r10d
    42e1:	83 f9 ff             	cmp    $0xffffffff,%ecx
    42e4:	7c 7d                	jl     4363 <try_place+0xde3>
    42e6:	49 8b 3b             	mov    (%r11),%rdi
    42e9:	45 31 c9             	xor    %r9d,%r9d
    42ec:	0f 1f 40 00          	nopl   0x0(%rax)
    42f0:	4c 8b 07             	mov    (%rdi),%r8
    42f3:	31 c0                	xor    %eax,%eax
    42f5:	41 8b 50 0c          	mov    0xc(%r8),%edx
    42f9:	85 d2                	test   %edx,%edx
    42fb:	7e 50                	jle    434d <try_place+0xdcd>
    42fd:	0f 1f 00             	nopl   (%rax)
    4300:	8b 4f 08             	mov    0x8(%rdi),%ecx
    4303:	85 c9                	test   %ecx,%ecx
    4305:	75 39                	jne    4340 <try_place+0xdc0>
    4307:	49 63 90 90 00 00 00 	movslq 0x90(%r8),%rdx
    430e:	49 8b 0c d4          	mov    (%r12,%rdx,8),%rcx
    4312:	49 8d 54 95 00       	lea    0x0(%r13,%rdx,4),%rdx
    4317:	48 63 32             	movslq (%rdx),%rsi
    431a:	48 8d 34 76          	lea    (%rsi,%rsi,2),%rsi
    431e:	44 89 14 b1          	mov    %r10d,(%rcx,%rsi,4)
    4322:	48 63 32             	movslq (%rdx),%rsi
    4325:	48 8d 34 76          	lea    (%rsi,%rsi,2),%rsi
    4329:	44 89 4c b1 04       	mov    %r9d,0x4(%rcx,%rsi,4)
    432e:	48 63 32             	movslq (%rdx),%rsi
    4331:	48 8d 34 76          	lea    (%rsi,%rsi,2),%rsi
    4335:	89 44 b1 08          	mov    %eax,0x8(%rcx,%rsi,4)
    4339:	83 02 01             	addl   $0x1,(%rdx)
    433c:	41 8b 50 0c          	mov    0xc(%r8),%edx
    4340:	83 c0 01             	add    $0x1,%eax
    4343:	39 d0                	cmp    %edx,%eax
    4345:	7c b9                	jl     4300 <try_place+0xd80>
    4347:	8b 0d 00 00 00 00    	mov    0x0(%rip),%ecx        # 434d <try_place+0xdcd>
    434d:	8d 41 01             	lea    0x1(%rcx),%eax
    4350:	41 83 c1 01          	add    $0x1,%r9d
    4354:	48 83 c7 18          	add    $0x18,%rdi
    4358:	41 39 c1             	cmp    %eax,%r9d
    435b:	7e 93                	jle    42f0 <try_place+0xd70>
    435d:	8b 15 00 00 00 00    	mov    0x0(%rip),%edx        # 4363 <try_place+0xde3>
    4363:	8d 42 01             	lea    0x1(%rdx),%eax
    4366:	41 83 c2 01          	add    $0x1,%r10d
    436a:	49 83 c3 08          	add    $0x8,%r11
    436e:	41 39 c2             	cmp    %eax,%r10d
    4371:	0f 8e 6a ff ff ff    	jle    42e1 <try_place+0xd61>
    4377:	8b 15 00 00 00 00    	mov    0x0(%rip),%edx        # 437d <try_place+0xdfd>
    437d:	85 d2                	test   %edx,%edx
    437f:	0f 8e 47 01 00 00    	jle    44cc <try_place+0xf4c>
    4385:	45 31 f6             	xor    %r14d,%r14d
    4388:	89 9c 24 40 01 00 00 	mov    %ebx,0x140(%rsp)
    438f:	4c 89 ac 24 50 01 00 	mov    %r13,0x150(%rsp)
    4396:	00 
    4397:	e9 8d 00 00 00       	jmpq   4429 <try_place+0xea9>
    439c:	0f 1f 40 00          	nopl   0x0(%rax)
    43a0:	4c 63 a8 90 00 00 00 	movslq 0x90(%rax),%r13
    43a7:	4e 8d 7c ad 00       	lea    0x0(%rbp,%r13,4),%r15
    43ac:	41 8b 07             	mov    (%r15),%eax
    43af:	85 c0                	test   %eax,%eax
    43b1:	0f 8e 8e 2f 00 00    	jle    7345 <try_place+0x3dc5>
    43b7:	8d 78 ff             	lea    -0x1(%rax),%edi
    43ba:	e8 00 00 00 00       	callq  43bf <try_place+0xe3f>
    43bf:	4b 8b 0c ec          	mov    (%r12,%r13,8),%rcx
    43c3:	48 98                	cltq   
    43c5:	48 8d 04 40          	lea    (%rax,%rax,2),%rax
    43c9:	48 8d 04 81          	lea    (%rcx,%rax,4),%rax
    43cd:	48 63 50 04          	movslq 0x4(%rax),%rdx
    43d1:	4c 63 00             	movslq (%rax),%r8
    43d4:	48 8d 3c 52          	lea    (%rdx,%rdx,2),%rdi
    43d8:	48 8b 15 00 00 00 00 	mov    0x0(%rip),%rdx        # 43df <try_place+0xe5f>
    43df:	4a 8b 14 c2          	mov    (%rdx,%r8,8),%rdx
    43e3:	4c 63 40 08          	movslq 0x8(%rax),%r8
    43e7:	48 8d 14 fa          	lea    (%rdx,%rdi,8),%rdx
    43eb:	48 8b 7a 10          	mov    0x10(%rdx),%rdi
    43ef:	42 89 1c 87          	mov    %ebx,(%rdi,%r8,4)
    43f3:	83 42 0c 01          	addl   $0x1,0xc(%rdx)
    43f7:	49 63 17             	movslq (%r15),%rdx
    43fa:	48 8d 54 52 fd       	lea    -0x3(%rdx,%rdx,2),%rdx
    43ff:	48 8d 14 91          	lea    (%rcx,%rdx,4),%rdx
    4403:	48 8b 0a             	mov    (%rdx),%rcx
    4406:	48 89 08             	mov    %rcx,(%rax)
    4409:	8b 52 08             	mov    0x8(%rdx),%edx
    440c:	89 50 08             	mov    %edx,0x8(%rax)
    440f:	41 83 2f 01          	subl   $0x1,(%r15)
    4413:	8b 15 00 00 00 00    	mov    0x0(%rip),%edx        # 4419 <try_place+0xe99>
    4419:	41 8d 46 01          	lea    0x1(%r14),%eax
    441d:	49 83 c6 01          	add    $0x1,%r14
    4421:	39 d0                	cmp    %edx,%eax
    4423:	0f 8d 94 00 00 00    	jge    44bd <try_place+0xf3d>
    4429:	4c 8b 3d 00 00 00 00 	mov    0x0(%rip),%r15        # 4430 <try_place+0xeb0>
    4430:	4b 8d 04 b6          	lea    (%r14,%r14,4),%rax
    4434:	44 89 f3             	mov    %r14d,%ebx
    4437:	49 8d 04 c7          	lea    (%r15,%rax,8),%rax
    443b:	48 8b 40 08          	mov    0x8(%rax),%rax
    443f:	48 3b 05 00 00 00 00 	cmp    0x0(%rip),%rax        # 4446 <try_place+0xec6>
    4446:	0f 85 54 ff ff ff    	jne    43a0 <try_place+0xe20>
    444c:	83 bc 24 00 02 00 00 	cmpl   $0x2,0x200(%rsp)
    4453:	02 
    4454:	0f 85 46 ff ff ff    	jne    43a0 <try_place+0xe20>
    445a:	eb bd                	jmp    4419 <try_place+0xe99>
    445c:	48 63 3d 00 00 00 00 	movslq 0x0(%rip),%rdi        # 4463 <try_place+0xee3>
    4463:	be 08 00 00 00       	mov    $0x8,%esi
    4468:	44 89 8c 24 b0 00 00 	mov    %r9d,0xb0(%rsp)
    446f:	00 
    4470:	e8 00 00 00 00       	callq  4475 <try_place+0xef5>
    4475:	4c 8b 05 00 00 00 00 	mov    0x0(%rip),%r8        # 447c <try_place+0xefc>
    447c:	48 89 05 00 00 00 00 	mov    %rax,0x0(%rip)        # 4483 <try_place+0xf03>
    4483:	44 8b 8c 24 b0 00 00 	mov    0xb0(%rsp),%r9d
    448a:	00 
    448b:	4d 01 f8             	add    %r15,%r8
    448e:	e9 38 f8 ff ff       	jmpq   3ccb <try_place+0x74b>
    4493:	85 f6                	test   %esi,%esi
    4495:	0f 88 b5 f8 ff ff    	js     3d50 <try_place+0x7d0>
    449b:	31 c0                	xor    %eax,%eax
    449d:	0f 1f 00             	nopl   (%rax)
    44a0:	49 63 12             	movslq (%r10),%rdx
    44a3:	83 c0 01             	add    $0x1,%eax
    44a6:	49 83 c2 04          	add    $0x4,%r10
    44aa:	41 c7 04 94 00 00 00 	movl   $0x0,(%r12,%rdx,4)
    44b1:	00 
    44b2:	41 3b 40 08          	cmp    0x8(%r8),%eax
    44b6:	7e e8                	jle    44a0 <try_place+0xf20>
    44b8:	e9 93 f8 ff ff       	jmpq   3d50 <try_place+0x7d0>
    44bd:	8b 9c 24 40 01 00 00 	mov    0x140(%rsp),%ebx
    44c4:	4c 8b ac 24 50 01 00 	mov    0x150(%rsp),%r13
    44cb:	00 
    44cc:	83 bc 24 00 02 00 00 	cmpl   $0x2,0x200(%rsp)
    44d3:	02 
    44d4:	0f 84 5c 12 00 00    	je     5736 <try_place+0x21b6>
    44da:	8b 05 00 00 00 00    	mov    0x0(%rip),%eax        # 44e0 <try_place+0xf60>
    44e0:	83 f8 ff             	cmp    $0xffffffff,%eax
    44e3:	0f 8c a6 00 00 00    	jl     458f <try_place+0x100f>
    44e9:	44 8b 3d 00 00 00 00 	mov    0x0(%rip),%r15d        # 44f0 <try_place+0xf70>
    44f0:	48 8b 15 00 00 00 00 	mov    0x0(%rip),%rdx        # 44f7 <try_place+0xf77>
    44f7:	83 c0 01             	add    $0x1,%eax
    44fa:	4c 8b 1d 00 00 00 00 	mov    0x0(%rip),%r11        # 4501 <try_place+0xf81>
    4501:	45 31 f6             	xor    %r14d,%r14d
    4504:	89 84 24 40 01 00 00 	mov    %eax,0x140(%rsp)
    450b:	41 8d 7f 01          	lea    0x1(%r15),%edi
    450f:	48 89 94 24 38 01 00 	mov    %rdx,0x138(%rsp)
    4516:	00 
    4517:	41 83 ff ff          	cmp    $0xffffffff,%r15d
    451b:	45 89 f1             	mov    %r14d,%r9d
    451e:	7c 61                	jl     4581 <try_place+0x1001>
    4520:	48 8b b4 24 38 01 00 	mov    0x138(%rsp),%rsi
    4527:	00 
    4528:	45 31 c0             	xor    %r8d,%r8d
    452b:	4e 8b 14 f6          	mov    (%rsi,%r14,8),%r10
    452f:	90                   	nop
    4530:	49 8b 02             	mov    (%r10),%rax
    4533:	8b 48 0c             	mov    0xc(%rax),%ecx
    4536:	85 c9                	test   %ecx,%ecx
    4538:	7e 3a                	jle    4574 <try_place+0xff4>
    453a:	49 8b 72 10          	mov    0x10(%r10),%rsi
    453e:	48 85 f6             	test   %rsi,%rsi
    4541:	0f 84 c1 11 00 00    	je     5708 <try_place+0x2188>
    4547:	31 c0                	xor    %eax,%eax
    4549:	0f 1f 80 00 00 00 00 	nopl   0x0(%rax)
    4550:	48 63 14 86          	movslq (%rsi,%rax,4),%rdx
    4554:	83 fa ff             	cmp    $0xffffffff,%edx
    4557:	74 13                	je     456c <try_place+0xfec>
    4559:	48 8d 14 92          	lea    (%rdx,%rdx,4),%rdx
    455d:	49 8d 14 d3          	lea    (%r11,%rdx,8),%rdx
    4561:	44 89 4a 18          	mov    %r9d,0x18(%rdx)
    4565:	44 89 42 1c          	mov    %r8d,0x1c(%rdx)
    4569:	89 42 20             	mov    %eax,0x20(%rdx)
    456c:	48 83 c0 01          	add    $0x1,%rax
    4570:	39 c1                	cmp    %eax,%ecx
    4572:	7f dc                	jg     4550 <try_place+0xfd0>
    4574:	41 83 c0 01          	add    $0x1,%r8d
    4578:	49 83 c2 18          	add    $0x18,%r10
    457c:	41 39 f8             	cmp    %edi,%r8d
    457f:	7e af                	jle    4530 <try_place+0xfb0>
    4581:	49 83 c6 01          	add    $0x1,%r14
    4585:	44 39 b4 24 40 01 00 	cmp    %r14d,0x140(%rsp)
    458c:	00 
    458d:	7d 88                	jge    4517 <try_place+0xf97>
    458f:	44 8b 35 00 00 00 00 	mov    0x0(%rip),%r14d        # 4596 <try_place+0x1016>
    4596:	45 85 f6             	test   %r14d,%r14d
    4599:	7e 1f                	jle    45ba <try_place+0x103a>
    459b:	4d 89 e7             	mov    %r12,%r15
    459e:	45 31 f6             	xor    %r14d,%r14d
    45a1:	49 8b 3f             	mov    (%r15),%rdi
    45a4:	41 83 c6 01          	add    $0x1,%r14d
    45a8:	49 83 c7 08          	add    $0x8,%r15
    45ac:	e8 00 00 00 00       	callq  45b1 <try_place+0x1031>
    45b1:	44 3b 35 00 00 00 00 	cmp    0x0(%rip),%r14d        # 45b8 <try_place+0x1038>
    45b8:	7c e7                	jl     45a1 <try_place+0x1021>
    45ba:	4c 89 e7             	mov    %r12,%rdi
    45bd:	e8 00 00 00 00       	callq  45c2 <try_place+0x1042>
    45c2:	4c 89 ef             	mov    %r13,%rdi
    45c5:	e8 00 00 00 00       	callq  45ca <try_place+0x104a>
    45ca:	48 89 ef             	mov    %rbp,%rdi
    45cd:	e8 00 00 00 00       	callq  45d2 <try_place+0x1052>
    45d2:	f3 0f 2a 84 24 2c 02 	cvtsi2ssl 0x22c(%rsp),%xmm0
    45d9:	00 00 
    45db:	e8 00 00 00 00       	callq  45e0 <try_place+0x1060>
    45e0:	31 ff                	xor    %edi,%edi
    45e2:	83 bc 24 64 01 00 00 	cmpl   $0x1,0x164(%rsp)
    45e9:	01 
    45ea:	89 da                	mov    %ebx,%edx
    45ec:	8b b4 24 60 01 00 00 	mov    0x160(%rsp),%esi
    45f3:	0f 86 bc 28 00 00    	jbe    6eb5 <try_place+0x3935>
    45f9:	e8 a2 ea ff ff       	callq  30a0 <comp_bb_cost>
    45fe:	f3 0f 11 84 24 80 02 	movss  %xmm0,0x280(%rsp)
    4605:	00 00 
    4607:	48 8d b4 24 90 02 00 	lea    0x290(%rsp),%rsi
    460e:	00 
    460f:	48 8d 84 24 70 02 00 	lea    0x270(%rsp),%rax
    4616:	00 
    4617:	f3 0f 11 84 24 60 02 	movss  %xmm0,0x260(%rsp)
    461e:	00 00 
    4620:	0f 57 c0             	xorps  %xmm0,%xmm0
    4623:	c7 84 24 28 02 00 00 	movl   $0x0,0x228(%rsp)
    462a:	00 00 00 00 
    462e:	c7 84 24 04 02 00 00 	movl   $0x0,0x204(%rsp)
    4635:	00 00 00 00 
    4639:	f3 0f 11 84 24 70 02 	movss  %xmm0,0x270(%rsp)
    4640:	00 00 
    4642:	48 89 b4 24 10 02 00 	mov    %rsi,0x210(%rsp)
    4649:	00 
    464a:	48 89 84 24 50 01 00 	mov    %rax,0x150(%rsp)
    4651:	00 
    4652:	f3 0f 11 84 24 90 02 	movss  %xmm0,0x290(%rsp)
    4659:	00 00 
    465b:	f3 0f 11 84 24 e0 01 	movss  %xmm0,0x1e0(%rsp)
    4662:	00 00 
    4664:	f3 0f 11 84 24 d0 01 	movss  %xmm0,0x1d0(%rsp)
    466b:	00 00 
    466d:	f3 0f 11 84 24 70 01 	movss  %xmm0,0x170(%rsp)
    4674:	00 00 
    4676:	f3 0f 11 84 24 dc 01 	movss  %xmm0,0x1dc(%rsp)
    467d:	00 00 
    467f:	f3 0f 11 84 24 d8 01 	movss  %xmm0,0x1d8(%rsp)
    4686:	00 00 
    4688:	f3 0f 10 05 00 00 00 	movss  0x0(%rip),%xmm0        # 4690 <try_place+0x1110>
    468f:	00 
    4690:	f3 0f 11 84 24 d4 01 	movss  %xmm0,0x1d4(%rsp)
    4697:	00 00 
    4699:	f3 0f 10 9c 24 7c 04 	movss  0x47c(%rsp),%xmm3
    46a0:	00 00 
    46a2:	f2 0f 10 0d 00 00 00 	movsd  0x0(%rip),%xmm1        # 46aa <try_place+0x112a>
    46a9:	00 
    46aa:	f2 0f 2a 05 00 00 00 	cvtsi2sdl 0x0(%rip),%xmm0        # 46b2 <try_place+0x1132>
    46b1:	00 
    46b2:	0f 5a db             	cvtps2pd %xmm3,%xmm3
    46b5:	f2 0f 11 9c 24 38 01 	movsd  %xmm3,0x138(%rsp)
    46bc:	00 00 
    46be:	e8 00 00 00 00       	callq  46c3 <try_place+0x1143>
    46c3:	f2 0f 59 84 24 38 01 	mulsd  0x138(%rsp),%xmm0
    46ca:	00 00 
    46cc:	44 8b 8c 24 f8 01 00 	mov    0x1f8(%rsp),%r9d
    46d3:	00 
    46d4:	45 85 c9             	test   %r9d,%r9d
    46d7:	f2 0f 2c e8          	cvttsd2si %xmm0,%ebp
    46db:	8d 45 01             	lea    0x1(%rbp),%eax
    46de:	89 84 24 ec 01 00 00 	mov    %eax,0x1ec(%rsp)
    46e5:	74 2a                	je     4711 <try_place+0x1191>
    46e7:	f3 0f 2a c5          	cvtsi2ss %ebp,%xmm0
    46eb:	f3 0f 2a 8c 24 f8 01 	cvtsi2ssl 0x1f8(%rsp),%xmm1
    46f2:	00 00 
    46f4:	f3 0f 5e c1          	divss  %xmm1,%xmm0
    46f8:	0f 14 c0             	unpcklps %xmm0,%xmm0
    46fb:	0f 5a c0             	cvtps2pd %xmm0,%xmm0
    46fe:	f2 0f 58 05 00 00 00 	addsd  0x0(%rip),%xmm0        # 4706 <try_place+0x1186>
    4705:	00 
    4706:	f2 0f 2c d0          	cvttsd2si %xmm0,%edx
    470a:	89 94 24 ec 01 00 00 	mov    %edx,0x1ec(%rsp)
    4711:	85 ed                	test   %ebp,%ebp
    4713:	b8 01 00 00 00       	mov    $0x1,%eax
    4718:	8b 15 00 00 00 00    	mov    0x0(%rip),%edx        # 471e <try_place+0x119e>
    471e:	0f 4e e8             	cmovle %eax,%ebp
    4721:	48 63 05 00 00 00 00 	movslq 0x0(%rip),%rax        # 4728 <try_place+0x11a8>
    4728:	39 d0                	cmp    %edx,%eax
    472a:	0f 8e f1 0f 00 00    	jle    5721 <try_place+0x21a1>
    4730:	f3 0f 2a c0          	cvtsi2ss %eax,%xmm0
    4734:	f3 0f 11 84 24 38 01 	movss  %xmm0,0x138(%rsp)
    473b:	00 00 
    473d:	f3 0f 5c 84 24 d4 01 	subss  0x1d4(%rsp),%xmm0
    4744:	00 00 
    4746:	f3 0f 10 9c 24 d4 01 	movss  0x1d4(%rsp),%xmm3
    474d:	00 00 
    474f:	44 8b 84 24 00 02 00 	mov    0x200(%rsp),%r8d
    4756:	00 
    4757:	48 8d 3c 85 00 00 00 	lea    0x0(,%rax,4),%rdi
    475e:	00 
    475f:	45 31 f6             	xor    %r14d,%r14d
    4762:	f3 0f 10 a4 24 80 04 	movss  0x480(%rsp),%xmm4
    4769:	00 00 
    476b:	f3 0f 11 a4 24 40 01 	movss  %xmm4,0x140(%rsp)
    4772:	00 00 
    4774:	45 85 c0             	test   %r8d,%r8d
    4777:	41 0f 95 c6          	setne  %r14b
    477b:	f3 0f 5e d8          	divss  %xmm0,%xmm3
    477f:	f3 0f 11 9c 24 48 02 	movss  %xmm3,0x248(%rsp)
    4786:	00 00 
    4788:	e8 00 00 00 00       	callq  478d <try_place+0x120d>
    478d:	83 bc 24 08 02 00 00 	cmpl   $0x1,0x208(%rsp)
    4794:	01 
    4795:	48 89 84 24 78 01 00 	mov    %rax,0x178(%rsp)
    479c:	00 
    479d:	0f 84 e8 26 00 00    	je     6e8b <try_place+0x390b>
    47a3:	44 8b 2d 00 00 00 00 	mov    0x0(%rip),%r13d        # 47aa <try_place+0x122a>
    47aa:	44 39 ed             	cmp    %r13d,%ebp
    47ad:	44 0f 4e ed          	cmovle %ebp,%r13d
    47b1:	45 85 ed             	test   %r13d,%r13d
    47b4:	0f 8e e6 15 00 00    	jle    5da0 <try_place+0x2820>
    47ba:	66 0f 57 c0          	xorpd  %xmm0,%xmm0
    47be:	48 8d 84 24 60 02 00 	lea    0x260(%rsp),%rax
    47c5:	00 
    47c6:	45 31 d2             	xor    %r10d,%r10d
    47c9:	45 31 e4             	xor    %r12d,%r12d
    47cc:	4c 8d bc 24 80 02 00 	lea    0x280(%rsp),%r15
    47d3:	00 
    47d4:	48 89 84 24 90 01 00 	mov    %rax,0x190(%rsp)
    47db:	00 
    47dc:	f2 0f 11 84 24 a8 01 	movsd  %xmm0,0x1a8(%rsp)
    47e3:	00 00 
    47e5:	66 0f 28 e8          	movapd %xmm0,%xmm5
    47e9:	66 0f 28 f0          	movapd %xmm0,%xmm6
    47ed:	eb 0d                	jmp    47fc <try_place+0x127c>
    47ef:	41 83 c2 01          	add    $0x1,%r10d
    47f3:	45 39 ea             	cmp    %r13d,%r10d
    47f6:	0f 84 f7 00 00 00    	je     48f3 <try_place+0x1373>
    47fc:	48 8b 84 24 78 01 00 	mov    0x178(%rsp),%rax
    4803:	00 
    4804:	48 8b b4 24 10 02 00 	mov    0x210(%rsp),%rsi
    480b:	00 
    480c:	f2 0f 11 ac 24 f0 00 	movsd  %xmm5,0xf0(%rsp)
    4813:	00 00 
    4815:	4c 8b 8c 24 88 01 00 	mov    0x188(%rsp),%r9
    481c:	00 
    481d:	4c 8b 84 24 80 01 00 	mov    0x180(%rsp),%r8
    4824:	00 
    4825:	f2 0f 11 b4 24 10 01 	movsd  %xmm6,0x110(%rsp)
    482c:	00 00 
    482e:	8b 8c 24 60 01 00 00 	mov    0x160(%rsp),%ecx
    4835:	48 89 44 24 20       	mov    %rax,0x20(%rsp)
    483a:	8b 84 24 18 02 00 00 	mov    0x218(%rsp),%eax
    4841:	48 8b 94 24 50 01 00 	mov    0x150(%rsp),%rdx
    4848:	00 
    4849:	48 8b bc 24 90 01 00 	mov    0x190(%rsp),%rdi
    4850:	00 
    4851:	48 89 74 24 18       	mov    %rsi,0x18(%rsp)
    4856:	4c 89 fe             	mov    %r15,%rsi
    4859:	44 89 74 24 08       	mov    %r14d,0x8(%rsp)
    485e:	89 1c 24             	mov    %ebx,(%rsp)
    4861:	89 44 24 10          	mov    %eax,0x10(%rsp)
    4865:	f3 0f 10 a4 24 d0 01 	movss  0x1d0(%rsp),%xmm4
    486c:	00 00 
    486e:	f3 0f 10 9c 24 70 01 	movss  0x170(%rsp),%xmm3
    4875:	00 00 
    4877:	44 89 94 24 28 01 00 	mov    %r10d,0x128(%rsp)
    487e:	00 
    487f:	f3 0f 10 94 24 58 01 	movss  0x158(%rsp),%xmm2
    4886:	00 00 
    4888:	f3 0f 10 8c 24 38 01 	movss  0x138(%rsp),%xmm1
    488f:	00 00 
    4891:	f3 0f 10 05 00 00 00 	movss  0x0(%rip),%xmm0        # 4899 <try_place+0x1319>
    4898:	00 
    4899:	e8 82 c3 ff ff       	callq  c20 <try_swap>
    489e:	83 f8 01             	cmp    $0x1,%eax
    48a1:	f2 0f 10 ac 24 f0 00 	movsd  0xf0(%rsp),%xmm5
    48a8:	00 00 
    48aa:	f2 0f 10 b4 24 10 01 	movsd  0x110(%rsp),%xmm6
    48b1:	00 00 
    48b3:	44 8b 94 24 28 01 00 	mov    0x128(%rsp),%r10d
    48ba:	00 
    48bb:	0f 85 2e ff ff ff    	jne    47ef <try_place+0x126f>
    48c1:	f3 0f 10 84 24 60 02 	movss  0x260(%rsp),%xmm0
    48c8:	00 00 
    48ca:	41 83 c2 01          	add    $0x1,%r10d
    48ce:	0f 14 c0             	unpcklps %xmm0,%xmm0
    48d1:	41 83 c4 01          	add    $0x1,%r12d
    48d5:	45 39 ea             	cmp    %r13d,%r10d
    48d8:	0f 5a c8             	cvtps2pd %xmm0,%xmm1
    48db:	f3 0f 59 c0          	mulss  %xmm0,%xmm0
    48df:	f2 0f 58 f1          	addsd  %xmm1,%xmm6
    48e3:	0f 14 c0             	unpcklps %xmm0,%xmm0
    48e6:	0f 5a c0             	cvtps2pd %xmm0,%xmm0
    48e9:	f2 0f 58 e8          	addsd  %xmm0,%xmm5
    48ed:	0f 85 09 ff ff ff    	jne    47fc <try_place+0x127c>
    48f3:	45 85 e4             	test   %r12d,%r12d
    48f6:	44 89 e0             	mov    %r12d,%eax
    48f9:	0f 84 c8 14 00 00    	je     5dc7 <try_place+0x2847>
    48ff:	f2 41 0f 2a c4       	cvtsi2sd %r12d,%xmm0
    4904:	41 83 fc 01          	cmp    $0x1,%r12d
    4908:	f2 0f 5e f0          	divsd  %xmm0,%xmm6
    490c:	0f 84 b5 14 00 00    	je     5dc7 <try_place+0x2847>
    4912:	f2 0f 59 c6          	mulsd  %xmm6,%xmm0
    4916:	66 0f 28 cd          	movapd %xmm5,%xmm1
    491a:	41 8d 44 24 ff       	lea    -0x1(%r12),%eax
    491f:	f2 0f 59 c6          	mulsd  %xmm6,%xmm0
    4923:	f2 0f 5c c8          	subsd  %xmm0,%xmm1
    4927:	f2 0f 2a c0          	cvtsi2sd %eax,%xmm0
    492b:	f2 0f 5e c8          	divsd  %xmm0,%xmm1
    492f:	66 0f 2e 8c 24 a8 01 	ucomisd 0x1a8(%rsp),%xmm1
    4936:	00 00 
    4938:	0f 86 44 25 00 00    	jbe    6e82 <try_place+0x3902>
    493e:	f2 0f 51 c1          	sqrtsd %xmm1,%xmm0
    4942:	66 0f 2e c0          	ucomisd %xmm0,%xmm0
    4946:	0f 8a 28 25 00 00    	jp     6e74 <try_place+0x38f4>
    494c:	45 39 e5             	cmp    %r12d,%r13d
    494f:	74 24                	je     4975 <try_place+0x13f5>
    4951:	44 89 ea             	mov    %r13d,%edx
    4954:	44 89 e6             	mov    %r12d,%esi
    4957:	bf 00 00 00 00       	mov    $0x0,%edi
    495c:	31 c0                	xor    %eax,%eax
    495e:	f2 0f 11 84 24 10 01 	movsd  %xmm0,0x110(%rsp)
    4965:	00 00 
    4967:	e8 00 00 00 00       	callq  496c <try_place+0x13ec>
    496c:	f2 0f 10 84 24 10 01 	movsd  0x110(%rsp),%xmm0
    4973:	00 00 
    4975:	48 8b bc 24 78 01 00 	mov    0x178(%rsp),%rdi
    497c:	00 
    497d:	f2 0f 11 84 24 10 01 	movsd  %xmm0,0x110(%rsp)
    4984:	00 00 
    4986:	e8 00 00 00 00       	callq  498b <try_place+0x140b>
    498b:	f2 0f 10 84 24 10 01 	movsd  0x110(%rsp),%xmm0
    4992:	00 00 
    4994:	f2 0f 59 05 00 00 00 	mulsd  0x0(%rip),%xmm0        # 499c <try_place+0x141c>
    499b:	00 
    499c:	66 0f 14 c0          	unpcklpd %xmm0,%xmm0
    49a0:	66 0f 5a c0          	cvtpd2ps %xmm0,%xmm0
    49a4:	f3 0f 11 84 24 40 01 	movss  %xmm0,0x140(%rsp)
    49ab:	00 00 
    49ad:	f3 0f 10 84 24 60 02 	movss  0x260(%rsp),%xmm0
    49b4:	00 00 
    49b6:	f3 0f 10 9c 24 90 02 	movss  0x290(%rsp),%xmm3
    49bd:	00 00 
    49bf:	bf 00 00 00 00       	mov    $0x0,%edi
    49c4:	f3 0f 10 94 24 70 02 	movss  0x270(%rsp),%xmm2
    49cb:	00 00 
    49cd:	f3 0f 10 8c 24 80 02 	movss  0x280(%rsp),%xmm1
    49d4:	00 00 
    49d6:	b8 04 00 00 00       	mov    $0x4,%eax
    49db:	0f 5a c0             	cvtps2pd %xmm0,%xmm0
    49de:	0f 5a db             	cvtps2pd %xmm3,%xmm3
    49e1:	0f 5a d2             	cvtps2pd %xmm2,%xmm2
    49e4:	0f 5a c9             	cvtps2pd %xmm1,%xmm1
    49e7:	e8 00 00 00 00       	callq  49ec <try_place+0x146c>
    49ec:	41 b9 00 00 00 00    	mov    $0x0,%r9d
    49f2:	41 b8 00 00 00 00    	mov    $0x0,%r8d
    49f8:	b9 00 00 00 00       	mov    $0x0,%ecx
    49fd:	ba 00 00 00 00       	mov    $0x0,%edx
    4a02:	be 00 00 00 00       	mov    $0x0,%esi
    4a07:	bf 00 00 00 00       	mov    $0x0,%edi
    4a0c:	48 c7 44 24 38 00 00 	movq   $0x0,0x38(%rsp)
    4a13:	00 00 
    4a15:	48 c7 44 24 30 00 00 	movq   $0x0,0x30(%rsp)
    4a1c:	00 00 
    4a1e:	31 c0                	xor    %eax,%eax
    4a20:	48 c7 44 24 28 00 00 	movq   $0x0,0x28(%rsp)
    4a27:	00 00 
    4a29:	48 c7 44 24 20 00 00 	movq   $0x0,0x20(%rsp)
    4a30:	00 00 
    4a32:	48 c7 44 24 18 00 00 	movq   $0x0,0x18(%rsp)
    4a39:	00 00 
    4a3b:	48 c7 44 24 10 00 00 	movq   $0x0,0x10(%rsp)
    4a42:	00 00 
    4a44:	48 c7 44 24 08 00 00 	movq   $0x0,0x8(%rsp)
    4a4b:	00 00 
    4a4d:	48 c7 04 24 00 00 00 	movq   $0x0,(%rsp)
    4a54:	00 
    4a55:	e8 00 00 00 00       	callq  4a5a <try_place+0x14da>
    4a5a:	41 b8 00 00 00 00    	mov    $0x0,%r8d
    4a60:	41 b9 00 00 00 00    	mov    $0x0,%r9d
    4a66:	ba 00 00 00 00       	mov    $0x0,%edx
    4a6b:	4c 89 c1             	mov    %r8,%rcx
    4a6e:	be 00 00 00 00       	mov    $0x0,%esi
    4a73:	bf 00 00 00 00       	mov    $0x0,%edi
    4a78:	48 c7 44 24 38 00 00 	movq   $0x0,0x38(%rsp)
    4a7f:	00 00 
    4a81:	48 c7 44 24 30 00 00 	movq   $0x0,0x30(%rsp)
    4a88:	00 00 
    4a8a:	31 c0                	xor    %eax,%eax
    4a8c:	48 c7 44 24 28 00 00 	movq   $0x0,0x28(%rsp)
    4a93:	00 00 
    4a95:	48 c7 44 24 20 00 00 	movq   $0x0,0x20(%rsp)
    4a9c:	00 00 
    4a9e:	48 c7 44 24 18 00 00 	movq   $0x0,0x18(%rsp)
    4aa5:	00 00 
    4aa7:	48 c7 44 24 10 00 00 	movq   $0x0,0x10(%rsp)
    4aae:	00 00 
    4ab0:	48 c7 44 24 08 00 00 	movq   $0x0,0x8(%rsp)
    4ab7:	00 00 
    4ab9:	48 c7 04 24 00 00 00 	movq   $0x0,(%rsp)
    4ac0:	00 
    4ac1:	e8 00 00 00 00       	callq  4ac6 <try_place+0x1546>
    4ac6:	f3 0f 10 84 24 60 02 	movss  0x260(%rsp),%xmm0
    4acd:	00 00 
    4acf:	f3 0f 10 a4 24 d8 01 	movss  0x1d8(%rsp),%xmm4
    4ad6:	00 00 
    4ad8:	8b 94 24 2c 02 00 00 	mov    0x22c(%rsp),%edx
    4adf:	f3 0f 10 9c 24 90 02 	movss  0x290(%rsp),%xmm3
    4ae6:	00 00 
    4ae8:	f3 0f 10 94 24 70 02 	movss  0x270(%rsp),%xmm2
    4aef:	00 00 
    4af1:	48 8d bc 24 c0 02 00 	lea    0x2c0(%rsp),%rdi
    4af8:	00 
    4af9:	f3 0f 10 8c 24 80 02 	movss  0x280(%rsp),%xmm1
    4b00:	00 00 
    4b02:	0f 5a c0             	cvtps2pd %xmm0,%xmm0
    4b05:	be 00 00 00 00       	mov    $0x0,%esi
    4b0a:	b8 05 00 00 00       	mov    $0x5,%eax
    4b0f:	0f 5a e4             	cvtps2pd %xmm4,%xmm4
    4b12:	0f 5a db             	cvtps2pd %xmm3,%xmm3
    4b15:	0f 5a d2             	cvtps2pd %xmm2,%xmm2
    4b18:	0f 5a c9             	cvtps2pd %xmm1,%xmm1
    4b1b:	e8 00 00 00 00       	callq  4b20 <try_place+0x15a0>
    4b20:	48 8d b4 24 c0 02 00 	lea    0x2c0(%rsp),%rsi
    4b27:	00 
    4b28:	ba 01 00 00 00       	mov    $0x1,%edx
    4b2d:	31 c9                	xor    %ecx,%ecx
    4b2f:	bf 01 00 00 00       	mov    $0x1,%edi
    4b34:	e8 00 00 00 00       	callq  4b39 <try_place+0x15b9>
    4b39:	8d 53 ff             	lea    -0x1(%rbx),%edx
    4b3c:	f3 0f 10 84 24 88 04 	movss  0x488(%rsp),%xmm0
    4b43:	00 00 
    4b45:	44 8b a4 24 18 02 00 	mov    0x218(%rsp),%r12d
    4b4c:	00 
    4b4d:	4c 8b ac 24 10 02 00 	mov    0x210(%rsp),%r13
    4b54:	00 
    4b55:	f3 0f 11 84 24 4c 02 	movss  %xmm0,0x24c(%rsp)
    4b5c:	00 00 
    4b5e:	89 d0                	mov    %edx,%eax
    4b60:	89 94 24 f0 01 00 00 	mov    %edx,0x1f0(%rsp)
    4b67:	c7 84 24 e4 01 00 00 	movl   $0x0,0x1e4(%rsp)
    4b6e:	00 00 00 00 
    4b72:	48 8d 70 01          	lea    0x1(%rax),%rsi
    4b76:	48 c1 e0 04          	shl    $0x4,%rax
    4b7a:	c7 84 24 e8 01 00 00 	movl   $0x0,0x1e8(%rsp)
    4b81:	00 00 00 00 
    4b85:	48 89 84 24 40 02 00 	mov    %rax,0x240(%rsp)
    4b8c:	00 
    4b8d:	8d 45 ff             	lea    -0x1(%rbp),%eax
    4b90:	4c 89 bc 24 78 01 00 	mov    %r15,0x178(%rsp)
    4b97:	00 
    4b98:	48 c1 e6 04          	shl    $0x4,%rsi
    4b9c:	48 89 b4 24 38 02 00 	mov    %rsi,0x238(%rsp)
    4ba3:	00 
    4ba4:	89 84 24 1c 02 00 00 	mov    %eax,0x21c(%rsp)
    4bab:	83 bc 24 08 02 00 00 	cmpl   $0x1,0x208(%rsp)
    4bb2:	01 
    4bb3:	f3 0f 10 84 24 60 02 	movss  0x260(%rsp),%xmm0
    4bba:	00 00 
    4bbc:	0f 84 16 12 00 00    	je     5dd8 <try_place+0x2858>
    4bc2:	0f 14 c0             	unpcklps %xmm0,%xmm0
    4bc5:	f2 0f 2a 15 00 00 00 	cvtsi2sdl 0x0(%rip),%xmm2        # 4bcd <try_place+0x164d>
    4bcc:	00 
    4bcd:	f3 0f 10 8c 24 40 01 	movss  0x140(%rsp),%xmm1
    4bd4:	00 00 
    4bd6:	0f 5a c9             	cvtps2pd %xmm1,%xmm1
    4bd9:	0f 5a c0             	cvtps2pd %xmm0,%xmm0
    4bdc:	f2 0f 59 05 00 00 00 	mulsd  0x0(%rip),%xmm0        # 4be4 <try_place+0x1664>
    4be3:	00 
    4be4:	f2 0f 5e c2          	divsd  %xmm2,%xmm0
    4be8:	66 0f 2e c1          	ucomisd %xmm1,%xmm0
    4bec:	0f 86 fd 11 00 00    	jbe    5def <try_place+0x286f>
    4bf2:	83 bc 24 64 01 00 00 	cmpl   $0x1,0x164(%rsp)
    4bf9:	01 
    4bfa:	4c 8b bc 24 78 01 00 	mov    0x178(%rsp),%r15
    4c01:	00 
    4c02:	0f 86 8c 20 00 00    	jbe    6c94 <try_place+0x3714>
    4c08:	f2 0f 10 a4 24 a8 01 	movsd  0x1a8(%rsp),%xmm4
    4c0f:	00 00 
    4c11:	8d 45 ff             	lea    -0x1(%rbp),%eax
    4c14:	41 bb 01 00 00 00    	mov    $0x1,%r11d
    4c1a:	45 31 ed             	xor    %r13d,%r13d
    4c1d:	45 31 e4             	xor    %r12d,%r12d
    4c20:	f2 0f 11 a4 24 98 01 	movsd  %xmm4,0x198(%rsp)
    4c27:	00 00 
    4c29:	89 84 24 b0 01 00 00 	mov    %eax,0x1b0(%rsp)
    4c30:	f2 0f 11 a4 24 68 01 	movsd  %xmm4,0x168(%rsp)
    4c37:	00 00 
    4c39:	f2 0f 11 a4 24 48 01 	movsd  %xmm4,0x148(%rsp)
    4c40:	00 00 
    4c42:	f2 0f 11 a4 24 78 01 	movsd  %xmm4,0x178(%rsp)
    4c49:	00 00 
    4c4b:	f2 0f 11 a4 24 40 01 	movsd  %xmm4,0x140(%rsp)
    4c52:	00 00 
    4c54:	eb 17                	jmp    4c6d <try_place+0x16ed>
    4c56:	66 2e 0f 1f 84 00 00 	nopw   %cs:0x0(%rax,%rax,1)
    4c5d:	00 00 00 
    4c60:	41 83 c4 01          	add    $0x1,%r12d
    4c64:	44 39 e5             	cmp    %r12d,%ebp
    4c67:	0f 8e f4 02 00 00    	jle    4f61 <try_place+0x19e1>
    4c6d:	48 8b 84 24 a0 01 00 	mov    0x1a0(%rsp),%rax
    4c74:	00 
    4c75:	48 8b b4 24 10 02 00 	mov    0x210(%rsp),%rsi
    4c7c:	00 
    4c7d:	4c 8b 8c 24 88 01 00 	mov    0x188(%rsp),%r9
    4c84:	00 
    4c85:	4c 8b 84 24 80 01 00 	mov    0x180(%rsp),%r8
    4c8c:	00 
    4c8d:	8b 8c 24 60 01 00 00 	mov    0x160(%rsp),%ecx
    4c94:	48 8b 94 24 50 01 00 	mov    0x150(%rsp),%rdx
    4c9b:	00 
    4c9c:	48 89 44 24 20       	mov    %rax,0x20(%rsp)
    4ca1:	8b 84 24 18 02 00 00 	mov    0x218(%rsp),%eax
    4ca8:	48 8b bc 24 90 01 00 	mov    0x190(%rsp),%rdi
    4caf:	00 
    4cb0:	0f 57 c0             	xorps  %xmm0,%xmm0
    4cb3:	48 89 74 24 18       	mov    %rsi,0x18(%rsp)
    4cb8:	44 89 74 24 08       	mov    %r14d,0x8(%rsp)
    4cbd:	4c 89 fe             	mov    %r15,%rsi
    4cc0:	89 44 24 10          	mov    %eax,0x10(%rsp)
    4cc4:	89 1c 24             	mov    %ebx,(%rsp)
    4cc7:	f3 0f 10 a4 24 d0 01 	movss  0x1d0(%rsp),%xmm4
    4cce:	00 00 
    4cd0:	44 89 9c 24 b8 00 00 	mov    %r11d,0xb8(%rsp)
    4cd7:	00 
    4cd8:	f3 0f 10 9c 24 70 01 	movss  0x170(%rsp),%xmm3
    4cdf:	00 00 
    4ce1:	f3 0f 10 94 24 58 01 	movss  0x158(%rsp),%xmm2
    4ce8:	00 00 
    4cea:	f3 0f 10 8c 24 38 01 	movss  0x138(%rsp),%xmm1
    4cf1:	00 00 
    4cf3:	e8 28 bf ff ff       	callq  c20 <try_swap>
    4cf8:	83 f8 01             	cmp    $0x1,%eax
    4cfb:	44 8b 9c 24 b8 00 00 	mov    0xb8(%rsp),%r11d
    4d02:	00 
    4d03:	0f 85 57 ff ff ff    	jne    4c60 <try_place+0x16e0>
    4d09:	f3 0f 10 84 24 60 02 	movss  0x260(%rsp),%xmm0
    4d10:	00 00 
    4d12:	41 83 c5 01          	add    $0x1,%r13d
    4d16:	0f 14 c0             	unpcklps %xmm0,%xmm0
    4d19:	83 bc 24 64 01 00 00 	cmpl   $0x1,0x164(%rsp)
    4d20:	01 
    4d21:	0f 5a c8             	cvtps2pd %xmm0,%xmm1
    4d24:	f3 0f 59 c0          	mulss  %xmm0,%xmm0
    4d28:	f2 0f 58 8c 24 40 01 	addsd  0x140(%rsp),%xmm1
    4d2f:	00 00 
    4d31:	0f 14 c0             	unpcklps %xmm0,%xmm0
    4d34:	0f 5a c0             	cvtps2pd %xmm0,%xmm0
    4d37:	f2 0f 11 8c 24 40 01 	movsd  %xmm1,0x140(%rsp)
    4d3e:	00 00 
    4d40:	f3 0f 10 8c 24 80 02 	movss  0x280(%rsp),%xmm1
    4d47:	00 00 
    4d49:	f2 0f 58 84 24 98 01 	addsd  0x198(%rsp),%xmm0
    4d50:	00 00 
    4d52:	0f 5a c9             	cvtps2pd %xmm1,%xmm1
    4d55:	f2 0f 58 8c 24 78 01 	addsd  0x178(%rsp),%xmm1
    4d5c:	00 00 
    4d5e:	f2 0f 11 84 24 98 01 	movsd  %xmm0,0x198(%rsp)
    4d65:	00 00 
    4d67:	f2 0f 11 8c 24 78 01 	movsd  %xmm1,0x178(%rsp)
    4d6e:	00 00 
    4d70:	f3 0f 10 8c 24 90 02 	movss  0x290(%rsp),%xmm1
    4d77:	00 00 
    4d79:	0f 14 c9             	unpcklps %xmm1,%xmm1
    4d7c:	0f 5a d1             	cvtps2pd %xmm1,%xmm2
    4d7f:	f2 0f 58 94 24 68 01 	addsd  0x168(%rsp),%xmm2
    4d86:	00 00 
    4d88:	f2 0f 11 94 24 68 01 	movsd  %xmm2,0x168(%rsp)
    4d8f:	00 00 
    4d91:	f3 0f 10 94 24 70 02 	movss  0x270(%rsp),%xmm2
    4d98:	00 00 
    4d9a:	0f 5a d2             	cvtps2pd %xmm2,%xmm2
    4d9d:	f2 0f 58 94 24 48 01 	addsd  0x148(%rsp),%xmm2
    4da4:	00 00 
    4da6:	f2 0f 11 94 24 48 01 	movsd  %xmm2,0x148(%rsp)
    4dad:	00 00 
    4daf:	0f 87 ab fe ff ff    	ja     4c60 <try_place+0x16e0>
    4db5:	44 39 9c 24 ec 01 00 	cmp    %r11d,0x1ec(%rsp)
    4dbc:	00 
    4dbd:	0f 8f e8 1c 00 00    	jg     6aab <try_place+0x352b>
    4dc3:	44 39 a4 24 b0 01 00 	cmp    %r12d,0x1b0(%rsp)
    4dca:	00 
    4dcb:	0f 84 da 1c 00 00    	je     6aab <try_place+0x352b>
    4dd1:	83 bc 24 18 02 00 00 	cmpl   $0x1,0x218(%rsp)
    4dd8:	01 
    4dd9:	75 26                	jne    4e01 <try_place+0x1881>
    4ddb:	f3 0f 2a 84 24 04 02 	cvtsi2ssl 0x204(%rsp),%xmm0
    4de2:	00 00 
    4de4:	f3 0f 5e c8          	divss  %xmm0,%xmm1
    4de8:	48 8b bc 24 b0 02 00 	mov    0x2b0(%rsp),%rdi
    4def:	00 
    4df0:	0f 28 c1             	movaps %xmm1,%xmm0
    4df3:	f3 0f 11 8c 24 dc 01 	movss  %xmm1,0x1dc(%rsp)
    4dfa:	00 00 
    4dfc:	e8 00 00 00 00       	callq  4e01 <try_place+0x1881>
    4e01:	48 8b bc 24 b0 02 00 	mov    0x2b0(%rsp),%rdi
    4e08:	00 
    4e09:	41 83 c4 01          	add    $0x1,%r12d
    4e0d:	e8 00 00 00 00       	callq  4e12 <try_place+0x1892>
    4e12:	48 8b bc 24 b8 02 00 	mov    0x2b8(%rsp),%rdi
    4e19:	00 
    4e1a:	0f 57 c0             	xorps  %xmm0,%xmm0
    4e1d:	e8 00 00 00 00       	callq  4e22 <try_place+0x18a2>
    4e22:	8b 84 24 60 01 00 00 	mov    0x160(%rsp),%eax
    4e29:	8b 94 24 18 02 00 00 	mov    0x218(%rsp),%edx
    4e30:	f3 0f 11 84 24 d8 01 	movss  %xmm0,0x1d8(%rsp)
    4e37:	00 00 
    4e39:	f3 0f 10 84 24 58 01 	movss  0x158(%rsp),%xmm0
    4e40:	00 00 
    4e42:	8b b4 24 0c 02 00 00 	mov    0x20c(%rsp),%esi
    4e49:	f3 0f 11 84 24 34 04 	movss  %xmm0,0x434(%rsp)
    4e50:	00 00 
    4e52:	89 9c 24 5c 04 00 00 	mov    %ebx,0x45c(%rsp)
    4e59:	89 84 24 3c 04 00 00 	mov    %eax,0x43c(%rsp)
    4e60:	8b 84 24 fc 01 00 00 	mov    0x1fc(%rsp),%eax
    4e67:	89 94 24 30 04 00 00 	mov    %edx,0x430(%rsp)
    4e6e:	8b 94 24 00 02 00 00 	mov    0x200(%rsp),%edx
    4e75:	89 b4 24 60 04 00 00 	mov    %esi,0x460(%rsp)
    4e7c:	89 84 24 64 04 00 00 	mov    %eax,0x464(%rsp)
    4e83:	48 8b 84 24 30 04 00 	mov    0x430(%rsp),%rax
    4e8a:	00 
    4e8b:	f3 0f 10 84 24 f4 01 	movss  0x1f4(%rsp),%xmm0
    4e92:	00 00 
    4e94:	89 94 24 48 04 00 00 	mov    %edx,0x448(%rsp)
    4e9b:	8b 94 24 f8 01 00 00 	mov    0x1f8(%rsp),%edx
    4ea2:	f3 0f 11 84 24 6c 04 	movss  %xmm0,0x46c(%rsp)
    4ea9:	00 00 
    4eab:	48 89 04 24          	mov    %rax,(%rsp)
    4eaf:	48 8b 84 24 38 04 00 	mov    0x438(%rsp),%rax
    4eb6:	00 
    4eb7:	89 94 24 68 04 00 00 	mov    %edx,0x468(%rsp)
    4ebe:	48 89 44 24 08       	mov    %rax,0x8(%rsp)
    4ec3:	48 8b 84 24 40 04 00 	mov    0x440(%rsp),%rax
    4eca:	00 
    4ecb:	48 89 44 24 10       	mov    %rax,0x10(%rsp)
    4ed0:	48 8b 84 24 48 04 00 	mov    0x448(%rsp),%rax
    4ed7:	00 
    4ed8:	48 89 44 24 18       	mov    %rax,0x18(%rsp)
    4edd:	48 8b 84 24 50 04 00 	mov    0x450(%rsp),%rax
    4ee4:	00 
    4ee5:	48 89 44 24 20       	mov    %rax,0x20(%rsp)
    4eea:	48 8b 84 24 58 04 00 	mov    0x458(%rsp),%rax
    4ef1:	00 
