
OBJ/place.o:     file format elf64-x86-64


Disassembly of section .text:

0000000000000000 <try_place>:
       0:	55                   	push   %rbp
       1:	48 89 e5             	mov    %rsp,%rbp
       4:	41 57                	push   %r15
       6:	41 56                	push   %r14
       8:	41 55                	push   %r13
       a:	41 54                	push   %r12
       c:	53                   	push   %rbx
       d:	48 81 ec 18 03 00 00 	sub    $0x318,%rsp
      14:	48 89 bd a8 fd ff ff 	mov    %rdi,-0x258(%rbp)
      1b:	f3 0f 11 85 7c fd ff 	movss  %xmm0,-0x284(%rbp)
      22:	ff 
      23:	8b 85 7c fd ff ff    	mov    -0x284(%rbp),%eax
      29:	48 89 95 90 fd ff ff 	mov    %rdx,-0x270(%rbp)
      30:	48 89 8d 88 fd ff ff 	mov    %rcx,-0x278(%rbp)
      37:	48 89 b5 98 fd ff ff 	mov    %rsi,-0x268(%rbp)
      3e:	89 85 a0 fd ff ff    	mov    %eax,-0x260(%rbp)
      44:	48 8b 05 00 00 00 00 	mov    0x0(%rip),%rax        # 4b <try_place+0x4b>
      4b:	48 83 c0 01          	add    $0x1,%rax
      4f:	48 89 05 00 00 00 00 	mov    %rax,0x0(%rip)        # 56 <try_place+0x56>
      56:	8b 05 00 00 00 00    	mov    0x0(%rip),%eax        # 5c <try_place+0x5c>
      5c:	48 98                	cltq   
      5e:	48 c1 e0 02          	shl    $0x2,%rax
      62:	48 89 c7             	mov    %rax,%rdi
      65:	e8 00 00 00 00       	callq  6a <try_place+0x6a>
      6a:	48 89 85 50 ff ff ff 	mov    %rax,-0xb0(%rbp)
      71:	48 8b 05 00 00 00 00 	mov    0x0(%rip),%rax        # 78 <try_place+0x78>
      78:	48 83 c0 01          	add    $0x1,%rax
      7c:	48 89 05 00 00 00 00 	mov    %rax,0x0(%rip)        # 83 <try_place+0x83>
      83:	48 c7 85 58 ff ff ff 	movq   $0x0,-0xa8(%rbp)
      8a:	00 00 00 00 
      8e:	8b 45 10             	mov    0x10(%rbp),%eax
      91:	83 f8 01             	cmp    $0x1,%eax
      94:	74 37                	je     cd <try_place+0xcd>
      96:	48 8b 05 00 00 00 00 	mov    0x0(%rip),%rax        # 9d <try_place+0x9d>
      9d:	48 83 c0 01          	add    $0x1,%rax
      a1:	48 89 05 00 00 00 00 	mov    %rax,0x0(%rip)        # a8 <try_place+0xa8>
      a8:	8b 45 10             	mov    0x10(%rbp),%eax
      ab:	83 f8 02             	cmp    $0x2,%eax
      ae:	74 1d                	je     cd <try_place+0xcd>
      b0:	48 8b 05 00 00 00 00 	mov    0x0(%rip),%rax        # b7 <try_place+0xb7>
      b7:	48 83 c0 01          	add    $0x1,%rax
      bb:	48 89 05 00 00 00 00 	mov    %rax,0x0(%rip)        # c2 <try_place+0xc2>
      c2:	8b 45 44             	mov    0x44(%rbp),%eax
      c5:	85 c0                	test   %eax,%eax
      c7:	0f 84 57 01 00 00    	je     224 <try_place+0x224>
      cd:	48 8d 8d b8 fd ff ff 	lea    -0x248(%rbp),%rcx
      d4:	48 8d 95 b0 fd ff ff 	lea    -0x250(%rbp),%rdx
      db:	48 8b b5 98 fd ff ff 	mov    -0x268(%rbp),%rsi
      e2:	8b bd a0 fd ff ff    	mov    -0x260(%rbp),%edi
      e8:	4c 8b 85 a8 fd ff ff 	mov    -0x258(%rbp),%r8
      ef:	48 8b 85 90 fd ff ff 	mov    -0x270(%rbp),%rax
      f6:	4c 8b 08             	mov    (%rax),%r9
      f9:	4c 89 8c 24 90 00 00 	mov    %r9,0x90(%rsp)
     100:	00 
     101:	4c 8b 48 08          	mov    0x8(%rax),%r9
     105:	4c 89 8c 24 98 00 00 	mov    %r9,0x98(%rsp)
     10c:	00 
     10d:	48 8b 40 10          	mov    0x10(%rax),%rax
     111:	48 89 84 24 a0 00 00 	mov    %rax,0xa0(%rsp)
     118:	00 
     119:	48 8b 85 e0 00 00 00 	mov    0xe0(%rbp),%rax
     120:	48 89 44 24 70       	mov    %rax,0x70(%rsp)
     125:	48 8b 85 e8 00 00 00 	mov    0xe8(%rbp),%rax
     12c:	48 89 44 24 78       	mov    %rax,0x78(%rsp)
     131:	48 8b 85 f0 00 00 00 	mov    0xf0(%rbp),%rax
     138:	48 89 84 24 80 00 00 	mov    %rax,0x80(%rsp)
     13f:	00 
     140:	48 8b 85 f8 00 00 00 	mov    0xf8(%rbp),%rax
     147:	48 89 84 24 88 00 00 	mov    %rax,0x88(%rsp)
     14e:	00 
     14f:	48 8b 85 a0 00 00 00 	mov    0xa0(%rbp),%rax
     156:	48 89 44 24 30       	mov    %rax,0x30(%rsp)
     15b:	48 8b 85 a8 00 00 00 	mov    0xa8(%rbp),%rax
     162:	48 89 44 24 38       	mov    %rax,0x38(%rsp)
     167:	48 8b 85 b0 00 00 00 	mov    0xb0(%rbp),%rax
     16e:	48 89 44 24 40       	mov    %rax,0x40(%rsp)
     173:	48 8b 85 b8 00 00 00 	mov    0xb8(%rbp),%rax
     17a:	48 89 44 24 48       	mov    %rax,0x48(%rsp)
     17f:	48 8b 85 c0 00 00 00 	mov    0xc0(%rbp),%rax
     186:	48 89 44 24 50       	mov    %rax,0x50(%rsp)
     18b:	48 8b 85 c8 00 00 00 	mov    0xc8(%rbp),%rax
     192:	48 89 44 24 58       	mov    %rax,0x58(%rsp)
     197:	48 8b 85 d0 00 00 00 	mov    0xd0(%rbp),%rax
     19e:	48 89 44 24 60       	mov    %rax,0x60(%rsp)
     1a3:	48 8b 85 d8 00 00 00 	mov    0xd8(%rbp),%rax
     1aa:	48 89 44 24 68       	mov    %rax,0x68(%rsp)
     1af:	48 8b 45 70          	mov    0x70(%rbp),%rax
     1b3:	48 89 04 24          	mov    %rax,(%rsp)
     1b7:	48 8b 45 78          	mov    0x78(%rbp),%rax
     1bb:	48 89 44 24 08       	mov    %rax,0x8(%rsp)
     1c0:	48 8b 85 80 00 00 00 	mov    0x80(%rbp),%rax
     1c7:	48 89 44 24 10       	mov    %rax,0x10(%rsp)
     1cc:	48 8b 85 88 00 00 00 	mov    0x88(%rbp),%rax
     1d3:	48 89 44 24 18       	mov    %rax,0x18(%rsp)
     1d8:	48 8b 85 90 00 00 00 	mov    0x90(%rbp),%rax
     1df:	48 89 44 24 20       	mov    %rax,0x20(%rsp)
     1e4:	8b 85 98 00 00 00    	mov    0x98(%rbp),%eax
     1ea:	89 44 24 28          	mov    %eax,0x28(%rsp)
     1ee:	89 bd 7c fd ff ff    	mov    %edi,-0x284(%rbp)
     1f4:	f3 0f 10 85 7c fd ff 	movss  -0x284(%rbp),%xmm0
     1fb:	ff 
     1fc:	4c 89 c7             	mov    %r8,%rdi
     1ff:	e8 00 00 00 00       	callq  204 <try_place+0x204>
     204:	48 8b 85 b0 fd ff ff 	mov    -0x250(%rbp),%rax
     20b:	48 89 85 58 ff ff ff 	mov    %rax,-0xa8(%rbp)
     212:	48 8b 05 00 00 00 00 	mov    0x0(%rip),%rax        # 219 <try_place+0x219>
     219:	48 83 c0 01          	add    $0x1,%rax
     21d:	48 89 05 00 00 00 00 	mov    %rax,0x0(%rip)        # 224 <try_place+0x224>
     224:	8b 45 24             	mov    0x24(%rbp),%eax
     227:	89 85 4c ff ff ff    	mov    %eax,-0xb4(%rbp)
     22d:	8b 45 28             	mov    0x28(%rbp),%eax
     230:	85 c0                	test   %eax,%eax
     232:	75 1e                	jne    252 <try_place+0x252>
     234:	c7 85 7c ff ff ff 00 	movl   $0x0,-0x84(%rbp)
     23b:	00 00 00 
     23e:	48 8b 05 00 00 00 00 	mov    0x0(%rip),%rax        # 245 <try_place+0x245>
     245:	48 83 c0 01          	add    $0x1,%rax
     249:	48 89 05 00 00 00 00 	mov    %rax,0x0(%rip)        # 250 <try_place+0x250>
     250:	eb 1c                	jmp    26e <try_place+0x26e>
     252:	c7 85 7c ff ff ff 01 	movl   $0x1,-0x84(%rbp)
     259:	00 00 00 
     25c:	48 8b 05 00 00 00 00 	mov    0x0(%rip),%rax        # 263 <try_place+0x263>
     263:	48 83 c0 01          	add    $0x1,%rax
     267:	48 89 05 00 00 00 00 	mov    %rax,0x0(%rip)        # 26e <try_place+0x26e>
     26e:	8b 85 4c ff ff ff    	mov    -0xb4(%rbp),%eax
     274:	48 8b 55 70          	mov    0x70(%rbp),%rdx
     278:	48 89 14 24          	mov    %rdx,(%rsp)
     27c:	48 8b 55 78          	mov    0x78(%rbp),%rdx
     280:	48 89 54 24 08       	mov    %rdx,0x8(%rsp)
     285:	48 8b 95 80 00 00 00 	mov    0x80(%rbp),%rdx
     28c:	48 89 54 24 10       	mov    %rdx,0x10(%rsp)
     291:	48 8b 95 88 00 00 00 	mov    0x88(%rbp),%rdx
     298:	48 89 54 24 18       	mov    %rdx,0x18(%rsp)
     29d:	48 8b 95 90 00 00 00 	mov    0x90(%rbp),%rdx
     2a4:	48 89 54 24 20       	mov    %rdx,0x20(%rsp)
     2a9:	8b 95 98 00 00 00    	mov    0x98(%rbp),%edx
     2af:	89 54 24 28          	mov    %edx,0x28(%rsp)
     2b3:	89 c7                	mov    %eax,%edi
     2b5:	e8 00 00 00 00       	callq  2ba <try_place+0x2ba>
     2ba:	48 8b 05 00 00 00 00 	mov    0x0(%rip),%rax        # 2c1 <try_place+0x2c1>
     2c1:	48 83 c0 01          	add    $0x1,%rax
     2c5:	48 89 05 00 00 00 00 	mov    %rax,0x0(%rip)        # 2cc <try_place+0x2cc>
     2cc:	8b 45 20             	mov    0x20(%rbp),%eax
     2cf:	8b 75 3c             	mov    0x3c(%rbp),%esi
     2d2:	8b 55 1c             	mov    0x1c(%rbp),%edx
     2d5:	89 d7                	mov    %edx,%edi
     2d7:	48 8d 8d f8 fe ff ff 	lea    -0x108(%rbp),%rcx
     2de:	48 8d 95 00 ff ff ff 	lea    -0x100(%rbp),%rdx
     2e5:	4c 8b 45 10          	mov    0x10(%rbp),%r8
     2e9:	4c 89 04 24          	mov    %r8,(%rsp)
     2ed:	4c 8b 45 18          	mov    0x18(%rbp),%r8
     2f1:	4c 89 44 24 08       	mov    %r8,0x8(%rsp)
     2f6:	4c 8b 45 20          	mov    0x20(%rbp),%r8
     2fa:	4c 89 44 24 10       	mov    %r8,0x10(%rsp)
     2ff:	4c 8b 45 28          	mov    0x28(%rbp),%r8
     303:	4c 89 44 24 18       	mov    %r8,0x18(%rsp)
     308:	4c 8b 45 30          	mov    0x30(%rbp),%r8
     30c:	4c 89 44 24 20       	mov    %r8,0x20(%rsp)
     311:	4c 8b 45 38          	mov    0x38(%rbp),%r8
     315:	4c 89 44 24 28       	mov    %r8,0x28(%rsp)
     31a:	4c 8b 45 40          	mov    0x40(%rbp),%r8
     31e:	4c 89 44 24 30       	mov    %r8,0x30(%rsp)
     323:	4c 8b 45 48          	mov    0x48(%rbp),%r8
     327:	4c 89 44 24 38       	mov    %r8,0x38(%rsp)
     32c:	4c 8b 45 50          	mov    0x50(%rbp),%r8
     330:	4c 89 44 24 40       	mov    %r8,0x40(%rsp)
     335:	89 85 7c fd ff ff    	mov    %eax,-0x284(%rbp)
     33b:	f3 0f 10 85 7c fd ff 	movss  -0x284(%rbp),%xmm0
     342:	ff 
     343:	e8 6d 7c 00 00       	callq  7fb5 <alloc_and_load_placement_structs>
     348:	48 8b 05 00 00 00 00 	mov    0x0(%rip),%rax        # 34f <try_place+0x34f>
     34f:	48 83 c0 01          	add    $0x1,%rax
     353:	48 89 05 00 00 00 00 	mov    %rax,0x0(%rip)        # 35a <try_place+0x35a>
     35a:	48 8b 55 30          	mov    0x30(%rbp),%rdx
     35e:	8b 45 28             	mov    0x28(%rbp),%eax
     361:	48 89 d6             	mov    %rdx,%rsi
     364:	89 c7                	mov    %eax,%edi
     366:	e8 85 a6 00 00       	callq  a9f0 <initial_placement>
     36b:	48 8b 05 00 00 00 00 	mov    0x0(%rip),%rax        # 372 <try_place+0x372>
     372:	48 83 c0 01          	add    $0x1,%rax
     376:	48 89 05 00 00 00 00 	mov    %rax,0x0(%rip)        # 37d <try_place+0x37d>
     37d:	f3 0f 2a 85 4c ff ff 	cvtsi2ssl -0xb4(%rbp),%xmm0
     384:	ff 
     385:	e8 00 00 00 00       	callq  38a <try_place+0x38a>
     38a:	48 8b 05 00 00 00 00 	mov    0x0(%rip),%rax        # 391 <try_place+0x391>
     391:	48 83 c0 01          	add    $0x1,%rax
     395:	48 89 05 00 00 00 00 	mov    %rax,0x0(%rip)        # 39c <try_place+0x39c>
     39c:	8b 45 10             	mov    0x10(%rbp),%eax
     39f:	83 f8 01             	cmp    $0x1,%eax
     3a2:	74 1e                	je     3c2 <try_place+0x3c2>
     3a4:	48 8b 05 00 00 00 00 	mov    0x0(%rip),%rax        # 3ab <try_place+0x3ab>
     3ab:	48 83 c0 01          	add    $0x1,%rax
     3af:	48 89 05 00 00 00 00 	mov    %rax,0x0(%rip)        # 3b6 <try_place+0x3b6>
     3b6:	8b 45 10             	mov    0x10(%rbp),%eax
     3b9:	83 f8 02             	cmp    $0x2,%eax
     3bc:	0f 85 7c 03 00 00    	jne    73e <try_place+0x73e>
     3c2:	8b 55 3c             	mov    0x3c(%rbp),%edx
     3c5:	8b 45 1c             	mov    0x1c(%rbp),%eax
     3c8:	89 c6                	mov    %eax,%esi
     3ca:	bf 00 00 00 00       	mov    $0x0,%edi
     3cf:	e8 b3 6a 00 00       	callq  6e87 <comp_bb_cost>
     3d4:	f3 0f 11 85 7c fd ff 	movss  %xmm0,-0x284(%rbp)
     3db:	ff 
     3dc:	8b 85 7c fd ff ff    	mov    -0x284(%rbp),%eax
     3e2:	48 8b 15 00 00 00 00 	mov    0x0(%rip),%rdx        # 3e9 <try_place+0x3e9>
     3e9:	48 83 c2 01          	add    $0x1,%rdx
     3ed:	48 89 15 00 00 00 00 	mov    %rdx,0x0(%rip)        # 3f4 <try_place+0x3f4>
     3f4:	89 85 14 ff ff ff    	mov    %eax,-0xec(%rbp)
     3fa:	8b 45 4c             	mov    0x4c(%rbp),%eax
     3fd:	89 85 60 ff ff ff    	mov    %eax,-0xa0(%rbp)
     403:	e8 22 25 00 00       	callq  292a <compute_net_pin_index_values>
     408:	48 8b 05 00 00 00 00 	mov    0x0(%rip),%rax        # 40f <try_place+0x40f>
     40f:	48 83 c0 01          	add    $0x1,%rax
     413:	48 89 05 00 00 00 00 	mov    %rax,0x0(%rip)        # 41a <try_place+0x41a>
     41a:	e8 5d 24 00 00       	callq  287c <count_connections>
     41f:	89 85 78 ff ff ff    	mov    %eax,-0x88(%rbp)
     425:	48 8b 05 00 00 00 00 	mov    0x0(%rip),%rax        # 42c <try_place+0x42c>
     42c:	48 83 c0 01          	add    $0x1,%rax
     430:	48 89 05 00 00 00 00 	mov    %rax,0x0(%rip)        # 437 <try_place+0x437>
     437:	8b 85 78 ff ff ff    	mov    -0x88(%rbp),%eax
     43d:	89 c6                	mov    %eax,%esi
     43f:	bf 00 00 00 00       	mov    $0x0,%edi
     444:	b8 00 00 00 00       	mov    $0x0,%eax
     449:	e8 00 00 00 00       	callq  44e <try_place+0x44e>
     44e:	8b 45 10             	mov    0x10(%rbp),%eax
     451:	83 f8 01             	cmp    $0x1,%eax
     454:	0f 85 3b 01 00 00    	jne    595 <try_place+0x595>
     45a:	c7 85 74 ff ff ff 00 	movl   $0x0,-0x8c(%rbp)
     461:	00 00 00 
     464:	e9 9c 00 00 00       	jmpq   505 <try_place+0x505>
     469:	48 8b 05 00 00 00 00 	mov    0x0(%rip),%rax        # 470 <try_place+0x470>
     470:	48 83 c0 01          	add    $0x1,%rax
     474:	48 89 05 00 00 00 00 	mov    %rax,0x0(%rip)        # 47b <try_place+0x47b>
     47b:	c7 85 70 ff ff ff 01 	movl   $0x1,-0x90(%rbp)
     482:	00 00 00 
     485:	eb 4b                	jmp    4d2 <try_place+0x4d2>
     487:	48 8b 05 00 00 00 00 	mov    0x0(%rip),%rax        # 48e <try_place+0x48e>
     48e:	48 83 c0 01          	add    $0x1,%rax
     492:	48 89 05 00 00 00 00 	mov    %rax,0x0(%rip)        # 499 <try_place+0x499>
     499:	48 8b 05 00 00 00 00 	mov    0x0(%rip),%rax        # 4a0 <try_place+0x4a0>
     4a0:	8b 95 74 ff ff ff    	mov    -0x8c(%rbp),%edx
     4a6:	48 63 d2             	movslq %edx,%rdx
     4a9:	48 c1 e2 03          	shl    $0x3,%rdx
     4ad:	48 01 d0             	add    %rdx,%rax
     4b0:	48 8b 00             	mov    (%rax),%rax
     4b3:	8b 95 70 ff ff ff    	mov    -0x90(%rbp),%edx
     4b9:	48 63 d2             	movslq %edx,%rdx
     4bc:	48 c1 e2 02          	shl    $0x2,%rdx
     4c0:	48 01 c2             	add    %rax,%rdx
     4c3:	8b 05 00 00 00 00    	mov    0x0(%rip),%eax        # 4c9 <try_place+0x4c9>
     4c9:	89 02                	mov    %eax,(%rdx)
     4cb:	83 85 70 ff ff ff 01 	addl   $0x1,-0x90(%rbp)
     4d2:	48 8b 0d 00 00 00 00 	mov    0x0(%rip),%rcx        # 4d9 <try_place+0x4d9>
     4d9:	8b 85 74 ff ff ff    	mov    -0x8c(%rbp),%eax
     4df:	48 63 d0             	movslq %eax,%rdx
     4e2:	48 89 d0             	mov    %rdx,%rax
     4e5:	48 c1 e0 02          	shl    $0x2,%rax
     4e9:	48 01 d0             	add    %rdx,%rax
     4ec:	48 c1 e0 03          	shl    $0x3,%rax
     4f0:	48 01 c8             	add    %rcx,%rax
     4f3:	8b 40 08             	mov    0x8(%rax),%eax
     4f6:	3b 85 70 ff ff ff    	cmp    -0x90(%rbp),%eax
     4fc:	7d 89                	jge    487 <try_place+0x487>
     4fe:	83 85 74 ff ff ff 01 	addl   $0x1,-0x8c(%rbp)
     505:	8b 05 00 00 00 00    	mov    0x0(%rip),%eax        # 50b <try_place+0x50b>
     50b:	39 85 74 ff ff ff    	cmp    %eax,-0x8c(%rbp)
     511:	0f 8c 52 ff ff ff    	jl     469 <try_place+0x469>
     517:	48 8b 05 00 00 00 00 	mov    0x0(%rip),%rax        # 51e <try_place+0x51e>
     51e:	48 83 c0 01          	add    $0x1,%rax
     522:	48 89 05 00 00 00 00 	mov    %rax,0x0(%rip)        # 529 <try_place+0x529>
     529:	48 8d 95 0c ff ff ff 	lea    -0xf4(%rbp),%rdx
     530:	48 8d 85 18 ff ff ff 	lea    -0xe8(%rbp),%rax
     537:	48 89 d6             	mov    %rdx,%rsi
     53a:	48 89 c7             	mov    %rax,%rdi
     53d:	e8 1f 67 00 00       	callq  6c61 <comp_td_costs>
     542:	48 8b 05 00 00 00 00 	mov    0x0(%rip),%rax        # 549 <try_place+0x549>
     549:	48 83 c0 01          	add    $0x1,%rax
     54d:	48 89 05 00 00 00 00 	mov    %rax,0x0(%rip)        # 554 <try_place+0x554>
     554:	f3 0f 10 8d 0c ff ff 	movss  -0xf4(%rbp),%xmm1
     55b:	ff 
     55c:	f3 0f 2a 85 78 ff ff 	cvtsi2ssl -0x88(%rbp),%xmm0
     563:	ff 
     564:	0f 28 d1             	movaps %xmm1,%xmm2
     567:	f3 0f 5e d0          	divss  %xmm0,%xmm2
     56b:	0f 28 c2             	movaps %xmm2,%xmm0
     56e:	f3 0f 11 45 b4       	movss  %xmm0,-0x4c(%rbp)
     573:	48 8b 95 b0 fd ff ff 	mov    -0x250(%rbp),%rdx
     57a:	8b 45 b4             	mov    -0x4c(%rbp),%eax
     57d:	89 85 7c fd ff ff    	mov    %eax,-0x284(%rbp)
     583:	f3 0f 10 85 7c fd ff 	movss  -0x284(%rbp),%xmm0
     58a:	ff 
     58b:	48 89 d7             	mov    %rdx,%rdi
     58e:	e8 00 00 00 00       	callq  593 <try_place+0x593>
     593:	eb 1b                	jmp    5b0 <try_place+0x5b0>
     595:	8b 05 00 00 00 00    	mov    0x0(%rip),%eax        # 59b <try_place+0x59b>
     59b:	89 45 b4             	mov    %eax,-0x4c(%rbp)
     59e:	48 8b 05 00 00 00 00 	mov    0x0(%rip),%rax        # 5a5 <try_place+0x5a5>
     5a5:	48 83 c0 01          	add    $0x1,%rax
     5a9:	48 89 05 00 00 00 00 	mov    %rax,0x0(%rip)        # 5b0 <try_place+0x5b0>
     5b0:	8b 45 10             	mov    0x10(%rbp),%eax
     5b3:	83 f8 02             	cmp    $0x2,%eax
     5b6:	74 14                	je     5cc <try_place+0x5cc>
     5b8:	48 8b 05 00 00 00 00 	mov    0x0(%rip),%rax        # 5bf <try_place+0x5bf>
     5bf:	48 83 c0 01          	add    $0x1,%rax
     5c3:	48 89 05 00 00 00 00 	mov    %rax,0x0(%rip)        # 5ca <try_place+0x5ca>
     5ca:	eb 20                	jmp    5ec <try_place+0x5ec>
     5cc:	48 8b 05 00 00 00 00 	mov    0x0(%rip),%rax        # 5d3 <try_place+0x5d3>
     5d3:	48 89 85 b0 fd ff ff 	mov    %rax,-0x250(%rbp)
     5da:	48 8b 05 00 00 00 00 	mov    0x0(%rip),%rax        # 5e1 <try_place+0x5e1>
     5e1:	48 83 c0 01          	add    $0x1,%rax
     5e5:	48 89 05 00 00 00 00 	mov    %rax,0x0(%rip)        # 5ec <try_place+0x5ec>
     5ec:	48 8b 85 b0 fd ff ff 	mov    -0x250(%rbp),%rax
     5f3:	48 89 c7             	mov    %rax,%rdi
     5f6:	e8 00 00 00 00       	callq  5fb <try_place+0x5fb>
     5fb:	48 8b 05 00 00 00 00 	mov    0x0(%rip),%rax        # 602 <try_place+0x602>
     602:	48 83 c0 01          	add    $0x1,%rax
     606:	48 89 05 00 00 00 00 	mov    %rax,0x0(%rip)        # 60d <try_place+0x60d>
     60d:	48 8b 85 b8 fd ff ff 	mov    -0x248(%rbp),%rax
     614:	0f 57 c0             	xorps  %xmm0,%xmm0
     617:	48 89 c7             	mov    %rax,%rdi
     61a:	e8 00 00 00 00       	callq  61f <try_place+0x61f>
     61f:	f3 0f 11 85 7c fd ff 	movss  %xmm0,-0x284(%rbp)
     626:	ff 
     627:	8b 85 7c fd ff ff    	mov    -0x284(%rbp),%eax
     62d:	89 45 b8             	mov    %eax,-0x48(%rbp)
     630:	48 8b 05 00 00 00 00 	mov    0x0(%rip),%rax        # 637 <try_place+0x637>
     637:	48 83 c0 01          	add    $0x1,%rax
     63b:	48 89 05 00 00 00 00 	mov    %rax,0x0(%rip)        # 642 <try_place+0x642>
     642:	48 8b 8d b8 fd ff ff 	mov    -0x248(%rbp),%rcx
     649:	8b 95 60 ff ff ff    	mov    -0xa0(%rbp),%edx
     64f:	8b 45 b8             	mov    -0x48(%rbp),%eax
     652:	48 8b 75 10          	mov    0x10(%rbp),%rsi
     656:	48 89 34 24          	mov    %rsi,(%rsp)
     65a:	48 8b 75 18          	mov    0x18(%rbp),%rsi
     65e:	48 89 74 24 08       	mov    %rsi,0x8(%rsp)
     663:	48 8b 75 20          	mov    0x20(%rbp),%rsi
     667:	48 89 74 24 10       	mov    %rsi,0x10(%rsp)
     66c:	48 8b 75 28          	mov    0x28(%rbp),%rsi
     670:	48 89 74 24 18       	mov    %rsi,0x18(%rsp)
     675:	48 8b 75 30          	mov    0x30(%rbp),%rsi
     679:	48 89 74 24 20       	mov    %rsi,0x20(%rsp)
     67e:	48 8b 75 38          	mov    0x38(%rbp),%rsi
     682:	48 89 74 24 28       	mov    %rsi,0x28(%rsp)
     687:	48 8b 75 40          	mov    0x40(%rbp),%rsi
     68b:	48 89 74 24 30       	mov    %rsi,0x30(%rsp)
     690:	48 8b 75 48          	mov    0x48(%rbp),%rsi
     694:	48 89 74 24 38       	mov    %rsi,0x38(%rsp)
     699:	48 8b 75 50          	mov    0x50(%rbp),%rsi
     69d:	48 89 74 24 40       	mov    %rsi,0x40(%rsp)
     6a2:	89 95 7c fd ff ff    	mov    %edx,-0x284(%rbp)
     6a8:	f3 0f 10 8d 7c fd ff 	movss  -0x284(%rbp),%xmm1
     6af:	ff 
     6b0:	89 85 7c fd ff ff    	mov    %eax,-0x284(%rbp)
     6b6:	f3 0f 10 85 7c fd ff 	movss  -0x284(%rbp),%xmm0
     6bd:	ff 
     6be:	48 89 cf             	mov    %rcx,%rdi
     6c1:	e8 00 00 00 00       	callq  6c6 <try_place+0x6c6>
     6c6:	48 8b 05 00 00 00 00 	mov    0x0(%rip),%rax        # 6cd <try_place+0x6cd>
     6cd:	48 83 c0 01          	add    $0x1,%rax
     6d1:	48 89 05 00 00 00 00 	mov    %rax,0x0(%rip)        # 6d8 <try_place+0x6d8>
     6d8:	c7 85 6c ff ff ff 01 	movl   $0x1,-0x94(%rbp)
     6df:	00 00 00 
     6e2:	48 8d 95 0c ff ff ff 	lea    -0xf4(%rbp),%rdx
     6e9:	48 8d 85 18 ff ff ff 	lea    -0xe8(%rbp),%rax
     6f0:	48 89 d6             	mov    %rdx,%rsi
     6f3:	48 89 c7             	mov    %rax,%rdi
     6f6:	e8 66 65 00 00       	callq  6c61 <comp_td_costs>
     6fb:	f3 0f 10 8d 18 ff ff 	movss  -0xe8(%rbp),%xmm1
     702:	ff 
     703:	f3 0f 10 05 00 00 00 	movss  0x0(%rip),%xmm0        # 70b <try_place+0x70b>
     70a:	00 
     70b:	f3 0f 5e c1          	divss  %xmm1,%xmm0
     70f:	f3 0f 11 45 ac       	movss  %xmm0,-0x54(%rbp)
     714:	f3 0f 10 8d 14 ff ff 	movss  -0xec(%rbp),%xmm1
     71b:	ff 
     71c:	f3 0f 10 05 00 00 00 	movss  0x0(%rip),%xmm0        # 724 <try_place+0x724>
     723:	00 
     724:	f3 0f 5e c1          	divss  %xmm1,%xmm0
     728:	f3 0f 11 45 b0       	movss  %xmm0,-0x50(%rbp)
     72d:	8b 05 00 00 00 00    	mov    0x0(%rip),%eax        # 733 <try_place+0x733>
     733:	89 85 1c ff ff ff    	mov    %eax,-0xe4(%rbp)
     739:	e9 b2 00 00 00       	jmpq   7f0 <try_place+0x7f0>
     73e:	48 8b 05 00 00 00 00 	mov    0x0(%rip),%rax        # 745 <try_place+0x745>
     745:	48 83 c0 01          	add    $0x1,%rax
     749:	48 89 05 00 00 00 00 	mov    %rax,0x0(%rip)        # 750 <try_place+0x750>
     750:	8b 55 3c             	mov    0x3c(%rbp),%edx
     753:	8b 45 1c             	mov    0x1c(%rbp),%eax
     756:	89 c6                	mov    %eax,%esi
     758:	bf 00 00 00 00       	mov    $0x0,%edi
     75d:	e8 25 67 00 00       	callq  6e87 <comp_bb_cost>
     762:	f3 0f 11 85 7c fd ff 	movss  %xmm0,-0x284(%rbp)
     769:	ff 
     76a:	8b 85 7c fd ff ff    	mov    -0x284(%rbp),%eax
     770:	89 85 14 ff ff ff    	mov    %eax,-0xec(%rbp)
     776:	8b 85 14 ff ff ff    	mov    -0xec(%rbp),%eax
     77c:	89 85 1c ff ff ff    	mov    %eax,-0xe4(%rbp)
     782:	8b 05 00 00 00 00    	mov    0x0(%rip),%eax        # 788 <try_place+0x788>
     788:	89 85 18 ff ff ff    	mov    %eax,-0xe8(%rbp)
     78e:	8b 05 00 00 00 00    	mov    0x0(%rip),%eax        # 794 <try_place+0x794>
     794:	89 85 0c ff ff ff    	mov    %eax,-0xf4(%rbp)
     79a:	8b 05 00 00 00 00    	mov    0x0(%rip),%eax        # 7a0 <try_place+0x7a0>
     7a0:	89 45 b4             	mov    %eax,-0x4c(%rbp)
     7a3:	c7 85 6c ff ff ff 00 	movl   $0x0,-0x94(%rbp)
     7aa:	00 00 00 
     7ad:	c7 85 78 ff ff ff 00 	movl   $0x0,-0x88(%rbp)
     7b4:	00 00 00 
     7b7:	8b 05 00 00 00 00    	mov    0x0(%rip),%eax        # 7bd <try_place+0x7bd>
     7bd:	89 45 b8             	mov    %eax,-0x48(%rbp)
     7c0:	8b 05 00 00 00 00    	mov    0x0(%rip),%eax        # 7c6 <try_place+0x7c6>
     7c6:	89 85 60 ff ff ff    	mov    %eax,-0xa0(%rbp)
     7cc:	8b 05 00 00 00 00    	mov    0x0(%rip),%eax        # 7d2 <try_place+0x7d2>
     7d2:	89 45 ac             	mov    %eax,-0x54(%rbp)
     7d5:	8b 05 00 00 00 00    	mov    0x0(%rip),%eax        # 7db <try_place+0x7db>
     7db:	89 45 b0             	mov    %eax,-0x50(%rbp)
     7de:	48 8b 05 00 00 00 00 	mov    0x0(%rip),%rax        # 7e5 <try_place+0x7e5>
     7e5:	48 83 c0 01          	add    $0x1,%rax
     7e9:	48 89 05 00 00 00 00 	mov    %rax,0x0(%rip)        # 7f0 <try_place+0x7f0>
     7f0:	f3 0f 10 45 5c       	movss  0x5c(%rbp),%xmm0
     7f5:	0f 14 c0             	unpcklps %xmm0,%xmm0
     7f8:	0f 5a c0             	cvtps2pd %xmm0,%xmm0
     7fb:	f2 0f 11 85 80 fd ff 	movsd  %xmm0,-0x280(%rbp)
     802:	ff 
     803:	8b 05 00 00 00 00    	mov    0x0(%rip),%eax        # 809 <try_place+0x809>
     809:	f2 0f 2a c0          	cvtsi2sd %eax,%xmm0
     80d:	48 b8 da 1b 7c 61 32 	movabs $0x3ff55532617c1bda,%rax
     814:	55 f5 3f 
     817:	48 89 85 70 fd ff ff 	mov    %rax,-0x290(%rbp)
     81e:	f2 0f 10 8d 70 fd ff 	movsd  -0x290(%rbp),%xmm1
     825:	ff 
     826:	e8 00 00 00 00       	callq  82b <try_place+0x82b>
     82b:	f2 0f 59 85 80 fd ff 	mulsd  -0x280(%rbp),%xmm0
     832:	ff 
     833:	f2 0f 2c c0          	cvttsd2si %xmm0,%eax
     837:	89 45 c0             	mov    %eax,-0x40(%rbp)
     83a:	8b 45 48             	mov    0x48(%rbp),%eax
     83d:	85 c0                	test   %eax,%eax
     83f:	74 2e                	je     86f <try_place+0x86f>
     841:	f3 0f 2a 45 c0       	cvtsi2ssl -0x40(%rbp),%xmm0
     846:	8b 45 48             	mov    0x48(%rbp),%eax
     849:	f3 0f 2a c8          	cvtsi2ss %eax,%xmm1
     84d:	f3 0f 5e c1          	divss  %xmm1,%xmm0
     851:	0f 14 c0             	unpcklps %xmm0,%xmm0
     854:	0f 5a c0             	cvtps2pd %xmm0,%xmm0
     857:	f2 0f 10 0d 00 00 00 	movsd  0x0(%rip),%xmm1        # 85f <try_place+0x85f>
     85e:	00 
     85f:	f2 0f 58 c1          	addsd  %xmm1,%xmm0
     863:	f2 0f 2c c0          	cvttsd2si %xmm0,%eax
     867:	89 85 64 ff ff ff    	mov    %eax,-0x9c(%rbp)
     86d:	eb 1e                	jmp    88d <try_place+0x88d>
     86f:	8b 45 c0             	mov    -0x40(%rbp),%eax
     872:	83 c0 01             	add    $0x1,%eax
     875:	89 85 64 ff ff ff    	mov    %eax,-0x9c(%rbp)
     87b:	48 8b 05 00 00 00 00 	mov    0x0(%rip),%rax        # 882 <try_place+0x882>
     882:	48 83 c0 01          	add    $0x1,%rax
     886:	48 89 05 00 00 00 00 	mov    %rax,0x0(%rip)        # 88d <try_place+0x88d>
     88d:	83 7d c0 00          	cmpl   $0x0,-0x40(%rbp)
     891:	7f 19                	jg     8ac <try_place+0x8ac>
     893:	c7 45 c0 01 00 00 00 	movl   $0x1,-0x40(%rbp)
     89a:	48 8b 05 00 00 00 00 	mov    0x0(%rip),%rax        # 8a1 <try_place+0x8a1>
     8a1:	48 83 c0 01          	add    $0x1,%rax
     8a5:	48 89 05 00 00 00 00 	mov    %rax,0x0(%rip)        # 8ac <try_place+0x8ac>
     8ac:	8b 15 00 00 00 00    	mov    0x0(%rip),%edx        # 8b2 <try_place+0x8b2>
     8b2:	8b 05 00 00 00 00    	mov    0x0(%rip),%eax        # 8b8 <try_place+0x8b8>
     8b8:	39 c2                	cmp    %eax,%edx
     8ba:	7e 1e                	jle    8da <try_place+0x8da>
     8bc:	8b 05 00 00 00 00    	mov    0x0(%rip),%eax        # 8c2 <try_place+0x8c2>
     8c2:	f3 0f 2a c0          	cvtsi2ss %eax,%xmm0
     8c6:	48 8b 05 00 00 00 00 	mov    0x0(%rip),%rax        # 8cd <try_place+0x8cd>
     8cd:	48 83 c0 01          	add    $0x1,%rax
     8d1:	48 89 05 00 00 00 00 	mov    %rax,0x0(%rip)        # 8d8 <try_place+0x8d8>
     8d8:	eb 1c                	jmp    8f6 <try_place+0x8f6>
     8da:	8b 05 00 00 00 00    	mov    0x0(%rip),%eax        # 8e0 <try_place+0x8e0>
     8e0:	f3 0f 2a c0          	cvtsi2ss %eax,%xmm0
     8e4:	48 8b 05 00 00 00 00 	mov    0x0(%rip),%rax        # 8eb <try_place+0x8eb>
     8eb:	48 83 c0 01          	add    $0x1,%rax
     8ef:	48 89 05 00 00 00 00 	mov    %rax,0x0(%rip)        # 8f6 <try_place+0x8f6>
     8f6:	f3 0f 11 85 20 ff ff 	movss  %xmm0,-0xe0(%rbp)
     8fd:	ff 
     8fe:	8b 85 20 ff ff ff    	mov    -0xe0(%rbp),%eax
     904:	89 85 48 ff ff ff    	mov    %eax,-0xb8(%rbp)
     90a:	8b 05 00 00 00 00    	mov    0x0(%rip),%eax        # 910 <try_place+0x910>
     910:	89 85 44 ff ff ff    	mov    %eax,-0xbc(%rbp)
     916:	f3 0f 10 85 48 ff ff 	movss  -0xb8(%rbp),%xmm0
     91d:	ff 
     91e:	f3 0f 5c 85 44 ff ff 	subss  -0xbc(%rbp),%xmm0
     925:	ff 
     926:	f3 0f 10 0d 00 00 00 	movss  0x0(%rip),%xmm1        # 92e <try_place+0x92e>
     92d:	00 
     92e:	0f 28 d1             	movaps %xmm1,%xmm2
     931:	f3 0f 5e d0          	divss  %xmm0,%xmm2
     935:	0f 28 c2             	movaps %xmm2,%xmm0
     938:	f3 0f 11 85 40 ff ff 	movss  %xmm0,-0xc0(%rbp)
     93f:	ff 
     940:	8b 55 14             	mov    0x14(%rbp),%edx
     943:	44 8b 4d 10          	mov    0x10(%rbp),%r9d
     947:	8b 85 20 ff ff ff    	mov    -0xe0(%rbp),%eax
     94d:	44 8b 45 3c          	mov    0x3c(%rbp),%r8d
     951:	4c 8b b5 f8 fe ff ff 	mov    -0x108(%rbp),%r14
     958:	4c 8b ad 00 ff ff ff 	mov    -0x100(%rbp),%r13
     95f:	8b 4d 1c             	mov    0x1c(%rbp),%ecx
     962:	89 cb                	mov    %ecx,%ebx
     964:	8b 75 ac             	mov    -0x54(%rbp),%esi
     967:	8b 4d b0             	mov    -0x50(%rbp),%ecx
     96a:	4c 8d 9d 18 ff ff ff 	lea    -0xe8(%rbp),%r11
     971:	4c 8d 95 14 ff ff ff 	lea    -0xec(%rbp),%r10
     978:	48 8d bd 1c ff ff ff 	lea    -0xe4(%rbp),%rdi
     97f:	4c 8d a5 0c ff ff ff 	lea    -0xf4(%rbp),%r12
     986:	4c 89 64 24 38       	mov    %r12,0x38(%rsp)
     98b:	44 89 4c 24 30       	mov    %r9d,0x30(%rsp)
     990:	44 8b 4d c0          	mov    -0x40(%rbp),%r9d
     994:	44 89 4c 24 28       	mov    %r9d,0x28(%rsp)
     999:	4c 8b 4d 58          	mov    0x58(%rbp),%r9
     99d:	4c 89 4c 24 10       	mov    %r9,0x10(%rsp)
     9a2:	4c 8b 4d 60          	mov    0x60(%rbp),%r9
     9a6:	4c 89 4c 24 18       	mov    %r9,0x18(%rsp)
     9ab:	44 8b 4d 68          	mov    0x68(%rbp),%r9d
     9af:	44 89 4c 24 20       	mov    %r9d,0x20(%rsp)
     9b4:	44 8b 8d 7c ff ff ff 	mov    -0x84(%rbp),%r9d
     9bb:	44 89 4c 24 08       	mov    %r9d,0x8(%rsp)
     9c0:	44 89 04 24          	mov    %r8d,(%rsp)
     9c4:	89 b5 7c fd ff ff    	mov    %esi,-0x284(%rbp)
     9ca:	f3 0f 10 9d 7c fd ff 	movss  -0x284(%rbp),%xmm3
     9d1:	ff 
     9d2:	89 8d 7c fd ff ff    	mov    %ecx,-0x284(%rbp)
     9d8:	f3 0f 10 95 7c fd ff 	movss  -0x284(%rbp),%xmm2
     9df:	ff 
     9e0:	89 95 7c fd ff ff    	mov    %edx,-0x284(%rbp)
     9e6:	f3 0f 10 8d 7c fd ff 	movss  -0x284(%rbp),%xmm1
     9ed:	ff 
     9ee:	89 85 7c fd ff ff    	mov    %eax,-0x284(%rbp)
     9f4:	f3 0f 10 85 7c fd ff 	movss  -0x284(%rbp),%xmm0
     9fb:	ff 
     9fc:	4d 89 f1             	mov    %r14,%r9
     9ff:	4d 89 e8             	mov    %r13,%r8
     a02:	89 d9                	mov    %ebx,%ecx
     a04:	4c 89 da             	mov    %r11,%rdx
     a07:	4c 89 d6             	mov    %r10,%rsi
     a0a:	e8 37 25 00 00       	callq  2f46 <starting_t>
     a0f:	f3 0f 11 85 7c fd ff 	movss  %xmm0,-0x284(%rbp)
     a16:	ff 
     a17:	8b 85 7c fd ff ff    	mov    -0x284(%rbp),%eax
     a1d:	48 8b 15 00 00 00 00 	mov    0x0(%rip),%rdx        # a24 <try_place+0xa24>
     a24:	48 83 c2 01          	add    $0x1,%rdx
     a28:	48 89 15 00 00 00 00 	mov    %rdx,0x0(%rip)        # a2f <try_place+0xa2f>
     a2f:	89 85 24 ff ff ff    	mov    %eax,-0xdc(%rbp)
     a35:	c7 45 cc 00 00 00 00 	movl   $0x0,-0x34(%rbp)
     a3c:	c7 45 bc 00 00 00 00 	movl   $0x0,-0x44(%rbp)
     a43:	f3 0f 10 85 0c ff ff 	movss  -0xf4(%rbp),%xmm0
     a4a:	ff 
     a4b:	0f 14 c0             	unpcklps %xmm0,%xmm0
     a4e:	0f 5a d8             	cvtps2pd %xmm0,%xmm3
     a51:	f3 0f 10 85 18 ff ff 	movss  -0xe8(%rbp),%xmm0
     a58:	ff 
     a59:	0f 14 c0             	unpcklps %xmm0,%xmm0
     a5c:	0f 5a d0             	cvtps2pd %xmm0,%xmm2
     a5f:	f3 0f 10 85 14 ff ff 	movss  -0xec(%rbp),%xmm0
     a66:	ff 
     a67:	0f 14 c0             	unpcklps %xmm0,%xmm0
     a6a:	0f 5a c8             	cvtps2pd %xmm0,%xmm1
     a6d:	f3 0f 10 85 1c ff ff 	movss  -0xe4(%rbp),%xmm0
     a74:	ff 
     a75:	0f 14 c0             	unpcklps %xmm0,%xmm0
     a78:	0f 5a c0             	cvtps2pd %xmm0,%xmm0
     a7b:	bf 00 00 00 00       	mov    $0x0,%edi
     a80:	b8 04 00 00 00       	mov    $0x4,%eax
     a85:	e8 00 00 00 00       	callq  a8a <try_place+0xa8a>
     a8a:	48 8b 05 00 00 00 00 	mov    0x0(%rip),%rax        # a91 <try_place+0xa91>
     a91:	48 83 c0 01          	add    $0x1,%rax
     a95:	48 89 05 00 00 00 00 	mov    %rax,0x0(%rip)        # a9c <try_place+0xa9c>
     a9c:	48 c7 44 24 38 00 00 	movq   $0x0,0x38(%rsp)
     aa3:	00 00 
     aa5:	48 c7 44 24 30 00 00 	movq   $0x0,0x30(%rsp)
     aac:	00 00 
     aae:	48 c7 44 24 28 00 00 	movq   $0x0,0x28(%rsp)
     ab5:	00 00 
     ab7:	48 c7 44 24 20 00 00 	movq   $0x0,0x20(%rsp)
     abe:	00 00 
     ac0:	48 c7 44 24 18 00 00 	movq   $0x0,0x18(%rsp)
     ac7:	00 00 
     ac9:	48 c7 44 24 10 00 00 	movq   $0x0,0x10(%rsp)
     ad0:	00 00 
     ad2:	48 c7 44 24 08 00 00 	movq   $0x0,0x8(%rsp)
     ad9:	00 00 
     adb:	48 c7 04 24 00 00 00 	movq   $0x0,(%rsp)
     ae2:	00 
     ae3:	41 b9 00 00 00 00    	mov    $0x0,%r9d
     ae9:	41 b8 00 00 00 00    	mov    $0x0,%r8d
     aef:	b9 00 00 00 00       	mov    $0x0,%ecx
     af4:	ba 00 00 00 00       	mov    $0x0,%edx
     af9:	be 00 00 00 00       	mov    $0x0,%esi
     afe:	bf 00 00 00 00       	mov    $0x0,%edi
     b03:	b8 00 00 00 00       	mov    $0x0,%eax
     b08:	e8 00 00 00 00       	callq  b0d <try_place+0xb0d>
     b0d:	48 8b 05 00 00 00 00 	mov    0x0(%rip),%rax        # b14 <try_place+0xb14>
     b14:	48 83 c0 01          	add    $0x1,%rax
     b18:	48 89 05 00 00 00 00 	mov    %rax,0x0(%rip)        # b1f <try_place+0xb1f>
     b1f:	48 c7 44 24 38 00 00 	movq   $0x0,0x38(%rsp)
     b26:	00 00 
     b28:	48 c7 44 24 30 00 00 	movq   $0x0,0x30(%rsp)
     b2f:	00 00 
     b31:	48 c7 44 24 28 00 00 	movq   $0x0,0x28(%rsp)
     b38:	00 00 
     b3a:	48 c7 44 24 20 00 00 	movq   $0x0,0x20(%rsp)
     b41:	00 00 
     b43:	48 c7 44 24 18 00 00 	movq   $0x0,0x18(%rsp)
     b4a:	00 00 
     b4c:	48 c7 44 24 10 00 00 	movq   $0x0,0x10(%rsp)
     b53:	00 00 
     b55:	48 c7 44 24 08 00 00 	movq   $0x0,0x8(%rsp)
     b5c:	00 00 
     b5e:	48 c7 04 24 00 00 00 	movq   $0x0,(%rsp)
     b65:	00 
     b66:	41 b9 00 00 00 00    	mov    $0x0,%r9d
     b6c:	41 b8 00 00 00 00    	mov    $0x0,%r8d
     b72:	b9 00 00 00 00       	mov    $0x0,%ecx
     b77:	ba 00 00 00 00       	mov    $0x0,%edx
     b7c:	be 00 00 00 00       	mov    $0x0,%esi
     b81:	bf 00 00 00 00       	mov    $0x0,%edi
     b86:	b8 00 00 00 00       	mov    $0x0,%eax
     b8b:	e8 00 00 00 00       	callq  b90 <try_place+0xb90>
     b90:	48 8b 05 00 00 00 00 	mov    0x0(%rip),%rax        # b97 <try_place+0xb97>
     b97:	48 83 c0 01          	add    $0x1,%rax
     b9b:	48 89 05 00 00 00 00 	mov    %rax,0x0(%rip)        # ba2 <try_place+0xba2>
     ba2:	f3 0f 10 65 b8       	movss  -0x48(%rbp),%xmm4
     ba7:	0f 5a e4             	cvtps2pd %xmm4,%xmm4
     baa:	f3 0f 10 85 0c ff ff 	movss  -0xf4(%rbp),%xmm0
     bb1:	ff 
     bb2:	0f 14 c0             	unpcklps %xmm0,%xmm0
     bb5:	0f 5a d8             	cvtps2pd %xmm0,%xmm3
     bb8:	f3 0f 10 85 18 ff ff 	movss  -0xe8(%rbp),%xmm0
     bbf:	ff 
     bc0:	0f 14 c0             	unpcklps %xmm0,%xmm0
     bc3:	0f 5a d0             	cvtps2pd %xmm0,%xmm2
     bc6:	f3 0f 10 85 14 ff ff 	movss  -0xec(%rbp),%xmm0
     bcd:	ff 
     bce:	0f 14 c0             	unpcklps %xmm0,%xmm0
     bd1:	0f 5a c8             	cvtps2pd %xmm0,%xmm1
     bd4:	f3 0f 10 85 1c ff ff 	movss  -0xe4(%rbp),%xmm0
     bdb:	ff 
     bdc:	0f 14 c0             	unpcklps %xmm0,%xmm0
     bdf:	0f 5a c0             	cvtps2pd %xmm0,%xmm0
     be2:	8b 95 4c ff ff ff    	mov    -0xb4(%rbp),%edx
     be8:	48 8d 85 c0 fd ff ff 	lea    -0x240(%rbp),%rax
     bef:	be 00 00 00 00       	mov    $0x0,%esi
     bf4:	48 89 c7             	mov    %rax,%rdi
     bf7:	b8 05 00 00 00       	mov    $0x5,%eax
     bfc:	e8 00 00 00 00       	callq  c01 <try_place+0xc01>
     c01:	48 8d 85 c0 fd ff ff 	lea    -0x240(%rbp),%rax
     c08:	b9 00 00 00 00       	mov    $0x0,%ecx
     c0d:	ba 01 00 00 00       	mov    $0x1,%edx
     c12:	48 89 c6             	mov    %rax,%rsi
     c15:	bf 01 00 00 00       	mov    $0x1,%edi
     c1a:	e8 00 00 00 00       	callq  c1f <try_place+0xc1f>
     c1f:	90                   	nop
     c20:	48 8b 05 00 00 00 00 	mov    0x0(%rip),%rax        # c27 <try_place+0xc27>
     c27:	48 83 c0 01          	add    $0x1,%rax
     c2b:	48 89 05 00 00 00 00 	mov    %rax,0x0(%rip)        # c32 <try_place+0xc32>
     c32:	e9 7e 0d 00 00       	jmpq   19b5 <try_place+0x19b5>
     c37:	48 8b 05 00 00 00 00 	mov    0x0(%rip),%rax        # c3e <try_place+0xc3e>
     c3e:	48 83 c0 01          	add    $0x1,%rax
     c42:	48 89 05 00 00 00 00 	mov    %rax,0x0(%rip)        # c49 <try_place+0xc49>
     c49:	8b 45 10             	mov    0x10(%rbp),%eax
     c4c:	83 f8 01             	cmp    $0x1,%eax
     c4f:	74 1a                	je     c6b <try_place+0xc6b>
     c51:	48 8b 05 00 00 00 00 	mov    0x0(%rip),%rax        # c58 <try_place+0xc58>
     c58:	48 83 c0 01          	add    $0x1,%rax
     c5c:	48 89 05 00 00 00 00 	mov    %rax,0x0(%rip)        # c63 <try_place+0xc63>
     c63:	8b 45 10             	mov    0x10(%rbp),%eax
     c66:	83 f8 02             	cmp    $0x2,%eax
     c69:	75 1e                	jne    c89 <try_place+0xc89>
     c6b:	8b 05 00 00 00 00    	mov    0x0(%rip),%eax        # c71 <try_place+0xc71>
     c71:	89 85 1c ff ff ff    	mov    %eax,-0xe4(%rbp)
     c77:	48 8b 05 00 00 00 00 	mov    0x0(%rip),%rax        # c7e <try_place+0xc7e>
     c7e:	48 83 c0 01          	add    $0x1,%rax
     c82:	48 89 05 00 00 00 00 	mov    %rax,0x0(%rip)        # c89 <try_place+0xc89>
     c89:	b8 00 00 00 00       	mov    $0x0,%eax
     c8e:	48 89 45 a0          	mov    %rax,-0x60(%rbp)
     c92:	b8 00 00 00 00       	mov    $0x0,%eax
     c97:	48 89 45 98          	mov    %rax,-0x68(%rbp)
     c9b:	b8 00 00 00 00       	mov    $0x0,%eax
     ca0:	48 89 45 88          	mov    %rax,-0x78(%rbp)
     ca4:	b8 00 00 00 00       	mov    $0x0,%eax
     ca9:	48 89 45 90          	mov    %rax,-0x70(%rbp)
     cad:	b8 00 00 00 00       	mov    $0x0,%eax
     cb2:	48 89 45 80          	mov    %rax,-0x80(%rbp)
     cb6:	c7 45 c4 00 00 00 00 	movl   $0x0,-0x3c(%rbp)
     cbd:	8b 45 10             	mov    0x10(%rbp),%eax
     cc0:	83 f8 01             	cmp    $0x1,%eax
     cc3:	74 1e                	je     ce3 <try_place+0xce3>
     cc5:	48 8b 05 00 00 00 00 	mov    0x0(%rip),%rax        # ccc <try_place+0xccc>
     ccc:	48 83 c0 01          	add    $0x1,%rax
     cd0:	48 89 05 00 00 00 00 	mov    %rax,0x0(%rip)        # cd7 <try_place+0xcd7>
     cd7:	8b 45 10             	mov    0x10(%rbp),%eax
     cda:	83 f8 02             	cmp    $0x2,%eax
     cdd:	0f 85 ff 01 00 00    	jne    ee2 <try_place+0xee2>
     ce3:	8b 45 40             	mov    0x40(%rbp),%eax
     ce6:	3b 85 6c ff ff ff    	cmp    -0x94(%rbp),%eax
     cec:	7e 1d                	jle    d0b <try_place+0xd0b>
     cee:	48 8b 05 00 00 00 00 	mov    0x0(%rip),%rax        # cf5 <try_place+0xcf5>
     cf5:	48 83 c0 01          	add    $0x1,%rax
     cf9:	48 89 05 00 00 00 00 	mov    %rax,0x0(%rip)        # d00 <try_place+0xd00>
     d00:	8b 45 48             	mov    0x48(%rbp),%eax
     d03:	85 c0                	test   %eax,%eax
     d05:	0f 84 8c 01 00 00    	je     e97 <try_place+0xe97>
     d0b:	f3 0f 10 8d 0c ff ff 	movss  -0xf4(%rbp),%xmm1
     d12:	ff 
     d13:	f3 0f 2a 85 78 ff ff 	cvtsi2ssl -0x88(%rbp),%xmm0
     d1a:	ff 
     d1b:	0f 28 d1             	movaps %xmm1,%xmm2
     d1e:	f3 0f 5e d0          	divss  %xmm0,%xmm2
     d22:	0f 28 c2             	movaps %xmm2,%xmm0
     d25:	f3 0f 11 45 b4       	movss  %xmm0,-0x4c(%rbp)
     d2a:	8b 45 10             	mov    0x10(%rbp),%eax
     d2d:	83 f8 01             	cmp    $0x1,%eax
     d30:	75 44                	jne    d76 <try_place+0xd76>
     d32:	48 8b 05 00 00 00 00 	mov    0x0(%rip),%rax        # d39 <try_place+0xd39>
     d39:	48 83 c0 01          	add    $0x1,%rax
     d3d:	48 89 05 00 00 00 00 	mov    %rax,0x0(%rip)        # d44 <try_place+0xd44>
     d44:	48 8b 95 b0 fd ff ff 	mov    -0x250(%rbp),%rdx
     d4b:	8b 45 b4             	mov    -0x4c(%rbp),%eax
     d4e:	89 85 7c fd ff ff    	mov    %eax,-0x284(%rbp)
     d54:	f3 0f 10 85 7c fd ff 	movss  -0x284(%rbp),%xmm0
     d5b:	ff 
     d5c:	48 89 d7             	mov    %rdx,%rdi
     d5f:	e8 00 00 00 00       	callq  d64 <try_place+0xd64>
     d64:	48 8b 05 00 00 00 00 	mov    0x0(%rip),%rax        # d6b <try_place+0xd6b>
     d6b:	48 83 c0 01          	add    $0x1,%rax
     d6f:	48 89 05 00 00 00 00 	mov    %rax,0x0(%rip)        # d76 <try_place+0xd76>
     d76:	48 8b 85 b0 fd ff ff 	mov    -0x250(%rbp),%rax
     d7d:	48 89 c7             	mov    %rax,%rdi
     d80:	e8 00 00 00 00       	callq  d85 <try_place+0xd85>
     d85:	48 8b 05 00 00 00 00 	mov    0x0(%rip),%rax        # d8c <try_place+0xd8c>
     d8c:	48 83 c0 01          	add    $0x1,%rax
     d90:	48 89 05 00 00 00 00 	mov    %rax,0x0(%rip)        # d97 <try_place+0xd97>
     d97:	48 8b 85 b8 fd ff ff 	mov    -0x248(%rbp),%rax
     d9e:	0f 57 c0             	xorps  %xmm0,%xmm0
     da1:	48 89 c7             	mov    %rax,%rdi
     da4:	e8 00 00 00 00       	callq  da9 <try_place+0xda9>
     da9:	f3 0f 11 85 7c fd ff 	movss  %xmm0,-0x284(%rbp)
     db0:	ff 
     db1:	8b 85 7c fd ff ff    	mov    -0x284(%rbp),%eax
     db7:	89 45 b8             	mov    %eax,-0x48(%rbp)
     dba:	48 8b 05 00 00 00 00 	mov    0x0(%rip),%rax        # dc1 <try_place+0xdc1>
     dc1:	48 83 c0 01          	add    $0x1,%rax
     dc5:	48 89 05 00 00 00 00 	mov    %rax,0x0(%rip)        # dcc <try_place+0xdcc>
     dcc:	48 8b 8d b8 fd ff ff 	mov    -0x248(%rbp),%rcx
     dd3:	8b 95 60 ff ff ff    	mov    -0xa0(%rbp),%edx
     dd9:	8b 45 b8             	mov    -0x48(%rbp),%eax
     ddc:	48 8b 75 10          	mov    0x10(%rbp),%rsi
     de0:	48 89 34 24          	mov    %rsi,(%rsp)
     de4:	48 8b 75 18          	mov    0x18(%rbp),%rsi
     de8:	48 89 74 24 08       	mov    %rsi,0x8(%rsp)
     ded:	48 8b 75 20          	mov    0x20(%rbp),%rsi
     df1:	48 89 74 24 10       	mov    %rsi,0x10(%rsp)
     df6:	48 8b 75 28          	mov    0x28(%rbp),%rsi
     dfa:	48 89 74 24 18       	mov    %rsi,0x18(%rsp)
     dff:	48 8b 75 30          	mov    0x30(%rbp),%rsi
     e03:	48 89 74 24 20       	mov    %rsi,0x20(%rsp)
     e08:	48 8b 75 38          	mov    0x38(%rbp),%rsi
     e0c:	48 89 74 24 28       	mov    %rsi,0x28(%rsp)
     e11:	48 8b 75 40          	mov    0x40(%rbp),%rsi
     e15:	48 89 74 24 30       	mov    %rsi,0x30(%rsp)
     e1a:	48 8b 75 48          	mov    0x48(%rbp),%rsi
     e1e:	48 89 74 24 38       	mov    %rsi,0x38(%rsp)
     e23:	48 8b 75 50          	mov    0x50(%rbp),%rsi
     e27:	48 89 74 24 40       	mov    %rsi,0x40(%rsp)
     e2c:	89 95 7c fd ff ff    	mov    %edx,-0x284(%rbp)
     e32:	f3 0f 10 8d 7c fd ff 	movss  -0x284(%rbp),%xmm1
     e39:	ff 
     e3a:	89 85 7c fd ff ff    	mov    %eax,-0x284(%rbp)
     e40:	f3 0f 10 85 7c fd ff 	movss  -0x284(%rbp),%xmm0
     e47:	ff 
     e48:	48 89 cf             	mov    %rcx,%rdi
     e4b:	e8 00 00 00 00       	callq  e50 <try_place+0xe50>
     e50:	48 8b 05 00 00 00 00 	mov    0x0(%rip),%rax        # e57 <try_place+0xe57>
     e57:	48 83 c0 01          	add    $0x1,%rax
     e5b:	48 89 05 00 00 00 00 	mov    %rax,0x0(%rip)        # e62 <try_place+0xe62>
     e62:	48 8d 95 0c ff ff ff 	lea    -0xf4(%rbp),%rdx
     e69:	48 8d 85 18 ff ff ff 	lea    -0xe8(%rbp),%rax
     e70:	48 89 d6             	mov    %rdx,%rsi
     e73:	48 89 c7             	mov    %rax,%rdi
     e76:	e8 e6 5d 00 00       	callq  6c61 <comp_td_costs>
     e7b:	c7 85 6c ff ff ff 00 	movl   $0x0,-0x94(%rbp)
     e82:	00 00 00 
     e85:	48 8b 05 00 00 00 00 	mov    0x0(%rip),%rax        # e8c <try_place+0xe8c>
     e8c:	48 83 c0 01          	add    $0x1,%rax
     e90:	48 89 05 00 00 00 00 	mov    %rax,0x0(%rip)        # e97 <try_place+0xe97>
     e97:	83 85 6c ff ff ff 01 	addl   $0x1,-0x94(%rbp)
     e9e:	f3 0f 10 8d 14 ff ff 	movss  -0xec(%rbp),%xmm1
     ea5:	ff 
     ea6:	f3 0f 10 05 00 00 00 	movss  0x0(%rip),%xmm0        # eae <try_place+0xeae>
     ead:	00 
     eae:	f3 0f 5e c1          	divss  %xmm1,%xmm0
     eb2:	f3 0f 11 45 b0       	movss  %xmm0,-0x50(%rbp)
     eb7:	f3 0f 10 8d 18 ff ff 	movss  -0xe8(%rbp),%xmm1
     ebe:	ff 
     ebf:	f3 0f 10 05 00 00 00 	movss  0x0(%rip),%xmm0        # ec7 <try_place+0xec7>
     ec6:	00 
     ec7:	f3 0f 5e c1          	divss  %xmm1,%xmm0
     ecb:	f3 0f 11 45 ac       	movss  %xmm0,-0x54(%rbp)
     ed0:	48 8b 05 00 00 00 00 	mov    0x0(%rip),%rax        # ed7 <try_place+0xed7>
     ed7:	48 83 c0 01          	add    $0x1,%rax
     edb:	48 89 05 00 00 00 00 	mov    %rax,0x0(%rip)        # ee2 <try_place+0xee2>
     ee2:	c7 85 68 ff ff ff 01 	movl   $0x1,-0x98(%rbp)
     ee9:	00 00 00 
     eec:	c7 45 c8 00 00 00 00 	movl   $0x0,-0x38(%rbp)
     ef3:	e9 bf 03 00 00       	jmpq   12b7 <try_place+0x12b7>
     ef8:	48 8b 05 00 00 00 00 	mov    0x0(%rip),%rax        # eff <try_place+0xeff>
     eff:	48 83 c0 01          	add    $0x1,%rax
     f03:	48 89 05 00 00 00 00 	mov    %rax,0x0(%rip)        # f0a <try_place+0xf0a>
     f0a:	8b 4d 14             	mov    0x14(%rbp),%ecx
     f0d:	44 8b 4d 10          	mov    0x10(%rbp),%r9d
     f11:	44 8b 45 3c          	mov    0x3c(%rbp),%r8d
     f15:	4c 8b bd f8 fe ff ff 	mov    -0x108(%rbp),%r15
     f1c:	4c 8b b5 00 ff ff ff 	mov    -0x100(%rbp),%r14
     f23:	8b 45 1c             	mov    0x1c(%rbp),%eax
     f26:	41 89 c4             	mov    %eax,%r12d
     f29:	8b 95 20 ff ff ff    	mov    -0xe0(%rbp),%edx
     f2f:	8b 85 24 ff ff ff    	mov    -0xdc(%rbp),%eax
     f35:	8b 7d ac             	mov    -0x54(%rbp),%edi
     f38:	8b 75 b0             	mov    -0x50(%rbp),%esi
     f3b:	48 8d 9d 18 ff ff ff 	lea    -0xe8(%rbp),%rbx
     f42:	4c 8d 9d 14 ff ff ff 	lea    -0xec(%rbp),%r11
     f49:	4c 8d 95 1c ff ff ff 	lea    -0xe4(%rbp),%r10
     f50:	4c 8b ad 50 ff ff ff 	mov    -0xb0(%rbp),%r13
     f57:	4c 89 6c 24 20       	mov    %r13,0x20(%rsp)
     f5c:	4c 8d ad 0c ff ff ff 	lea    -0xf4(%rbp),%r13
     f63:	4c 89 6c 24 18       	mov    %r13,0x18(%rsp)
     f68:	44 89 4c 24 10       	mov    %r9d,0x10(%rsp)
     f6d:	44 8b 8d 7c ff ff ff 	mov    -0x84(%rbp),%r9d
     f74:	44 89 4c 24 08       	mov    %r9d,0x8(%rsp)
     f79:	44 89 04 24          	mov    %r8d,(%rsp)
     f7d:	89 bd 7c fd ff ff    	mov    %edi,-0x284(%rbp)
     f83:	f3 0f 10 a5 7c fd ff 	movss  -0x284(%rbp),%xmm4
     f8a:	ff 
     f8b:	89 b5 7c fd ff ff    	mov    %esi,-0x284(%rbp)
     f91:	f3 0f 10 9d 7c fd ff 	movss  -0x284(%rbp),%xmm3
     f98:	ff 
     f99:	89 8d 7c fd ff ff    	mov    %ecx,-0x284(%rbp)
     f9f:	f3 0f 10 95 7c fd ff 	movss  -0x284(%rbp),%xmm2
     fa6:	ff 
     fa7:	4d 89 f9             	mov    %r15,%r9
     faa:	4d 89 f0             	mov    %r14,%r8
     fad:	44 89 e1             	mov    %r12d,%ecx
     fb0:	89 95 7c fd ff ff    	mov    %edx,-0x284(%rbp)
     fb6:	f3 0f 10 8d 7c fd ff 	movss  -0x284(%rbp),%xmm1
     fbd:	ff 
     fbe:	48 89 da             	mov    %rbx,%rdx
     fc1:	4c 89 de             	mov    %r11,%rsi
     fc4:	4c 89 d7             	mov    %r10,%rdi
     fc7:	89 85 7c fd ff ff    	mov    %eax,-0x284(%rbp)
     fcd:	f3 0f 10 85 7c fd ff 	movss  -0x284(%rbp),%xmm0
     fd4:	ff 
     fd5:	e8 69 22 00 00       	callq  3243 <try_swap>
     fda:	48 8b 15 00 00 00 00 	mov    0x0(%rip),%rdx        # fe1 <try_place+0xfe1>
     fe1:	48 83 c2 01          	add    $0x1,%rdx
     fe5:	48 89 15 00 00 00 00 	mov    %rdx,0x0(%rip)        # fec <try_place+0xfec>
     fec:	83 f8 01             	cmp    $0x1,%eax
     fef:	0f 85 ae 00 00 00    	jne    10a3 <try_place+0x10a3>
     ff5:	83 45 c4 01          	addl   $0x1,-0x3c(%rbp)
     ff9:	f3 0f 10 85 1c ff ff 	movss  -0xe4(%rbp),%xmm0
    1000:	ff 
    1001:	0f 14 c0             	unpcklps %xmm0,%xmm0
    1004:	0f 5a c0             	cvtps2pd %xmm0,%xmm0
    1007:	f2 0f 10 4d a0       	movsd  -0x60(%rbp),%xmm1
    100c:	f2 0f 58 c1          	addsd  %xmm1,%xmm0
    1010:	f2 0f 11 45 a0       	movsd  %xmm0,-0x60(%rbp)
    1015:	f3 0f 10 85 14 ff ff 	movss  -0xec(%rbp),%xmm0
    101c:	ff 
    101d:	0f 14 c0             	unpcklps %xmm0,%xmm0
    1020:	0f 5a c0             	cvtps2pd %xmm0,%xmm0
    1023:	f2 0f 10 4d 98       	movsd  -0x68(%rbp),%xmm1
    1028:	f2 0f 58 c1          	addsd  %xmm1,%xmm0
    102c:	f2 0f 11 45 98       	movsd  %xmm0,-0x68(%rbp)
    1031:	f3 0f 10 85 18 ff ff 	movss  -0xe8(%rbp),%xmm0
    1038:	ff 
    1039:	0f 14 c0             	unpcklps %xmm0,%xmm0
    103c:	0f 5a c0             	cvtps2pd %xmm0,%xmm0
    103f:	f2 0f 10 4d 90       	movsd  -0x70(%rbp),%xmm1
    1044:	f2 0f 58 c1          	addsd  %xmm1,%xmm0
    1048:	f2 0f 11 45 90       	movsd  %xmm0,-0x70(%rbp)
    104d:	f3 0f 10 85 0c ff ff 	movss  -0xf4(%rbp),%xmm0
    1054:	ff 
    1055:	0f 14 c0             	unpcklps %xmm0,%xmm0
    1058:	0f 5a c0             	cvtps2pd %xmm0,%xmm0
    105b:	f2 0f 10 4d 88       	movsd  -0x78(%rbp),%xmm1
    1060:	f2 0f 58 c1          	addsd  %xmm1,%xmm0
    1064:	f2 0f 11 45 88       	movsd  %xmm0,-0x78(%rbp)
    1069:	f3 0f 10 8d 1c ff ff 	movss  -0xe4(%rbp),%xmm1
    1070:	ff 
    1071:	f3 0f 10 85 1c ff ff 	movss  -0xe4(%rbp),%xmm0
    1078:	ff 
    1079:	f3 0f 59 c1          	mulss  %xmm1,%xmm0
    107d:	0f 14 c0             	unpcklps %xmm0,%xmm0
    1080:	0f 5a c0             	cvtps2pd %xmm0,%xmm0
    1083:	f2 0f 10 4d 80       	movsd  -0x80(%rbp),%xmm1
    1088:	f2 0f 58 c1          	addsd  %xmm1,%xmm0
    108c:	f2 0f 11 45 80       	movsd  %xmm0,-0x80(%rbp)
    1091:	48 8b 05 00 00 00 00 	mov    0x0(%rip),%rax        # 1098 <try_place+0x1098>
    1098:	48 83 c0 01          	add    $0x1,%rax
    109c:	48 89 05 00 00 00 00 	mov    %rax,0x0(%rip)        # 10a3 <try_place+0x10a3>
    10a3:	8b 45 10             	mov    0x10(%rbp),%eax
    10a6:	83 f8 01             	cmp    $0x1,%eax
    10a9:	74 1e                	je     10c9 <try_place+0x10c9>
    10ab:	48 8b 05 00 00 00 00 	mov    0x0(%rip),%rax        # 10b2 <try_place+0x10b2>
    10b2:	48 83 c0 01          	add    $0x1,%rax
    10b6:	48 89 05 00 00 00 00 	mov    %rax,0x0(%rip)        # 10bd <try_place+0x10bd>
    10bd:	8b 45 10             	mov    0x10(%rbp),%eax
    10c0:	83 f8 02             	cmp    $0x2,%eax
    10c3:	0f 85 d8 01 00 00    	jne    12a1 <try_place+0x12a1>
    10c9:	8b 85 68 ff ff ff    	mov    -0x98(%rbp),%eax
    10cf:	3b 85 64 ff ff ff    	cmp    -0x9c(%rbp),%eax
    10d5:	0f 8c ad 01 00 00    	jl     1288 <try_place+0x1288>
    10db:	48 8b 05 00 00 00 00 	mov    0x0(%rip),%rax        # 10e2 <try_place+0x10e2>
    10e2:	48 83 c0 01          	add    $0x1,%rax
    10e6:	48 89 05 00 00 00 00 	mov    %rax,0x0(%rip)        # 10ed <try_place+0x10ed>
    10ed:	8b 45 c0             	mov    -0x40(%rbp),%eax
    10f0:	83 e8 01             	sub    $0x1,%eax
    10f3:	3b 45 c8             	cmp    -0x38(%rbp),%eax
    10f6:	0f 84 8c 01 00 00    	je     1288 <try_place+0x1288>
    10fc:	48 8b 05 00 00 00 00 	mov    0x0(%rip),%rax        # 1103 <try_place+0x1103>
    1103:	48 83 c0 01          	add    $0x1,%rax
    1107:	48 89 05 00 00 00 00 	mov    %rax,0x0(%rip)        # 110e <try_place+0x110e>
    110e:	c7 85 68 ff ff ff 00 	movl   $0x0,-0x98(%rbp)
    1115:	00 00 00 
    1118:	8b 45 10             	mov    0x10(%rbp),%eax
    111b:	83 f8 01             	cmp    $0x1,%eax
    111e:	75 63                	jne    1183 <try_place+0x1183>
    1120:	48 8b 05 00 00 00 00 	mov    0x0(%rip),%rax        # 1127 <try_place+0x1127>
    1127:	48 83 c0 01          	add    $0x1,%rax
    112b:	48 89 05 00 00 00 00 	mov    %rax,0x0(%rip)        # 1132 <try_place+0x1132>
    1132:	f3 0f 10 8d 0c ff ff 	movss  -0xf4(%rbp),%xmm1
    1139:	ff 
    113a:	f3 0f 2a 85 78 ff ff 	cvtsi2ssl -0x88(%rbp),%xmm0
    1141:	ff 
    1142:	0f 28 d1             	movaps %xmm1,%xmm2
    1145:	f3 0f 5e d0          	divss  %xmm0,%xmm2
    1149:	0f 28 c2             	movaps %xmm2,%xmm0
    114c:	f3 0f 11 45 b4       	movss  %xmm0,-0x4c(%rbp)
    1151:	48 8b 95 b0 fd ff ff 	mov    -0x250(%rbp),%rdx
    1158:	8b 45 b4             	mov    -0x4c(%rbp),%eax
    115b:	89 85 7c fd ff ff    	mov    %eax,-0x284(%rbp)
    1161:	f3 0f 10 85 7c fd ff 	movss  -0x284(%rbp),%xmm0
    1168:	ff 
    1169:	48 89 d7             	mov    %rdx,%rdi
    116c:	e8 00 00 00 00       	callq  1171 <try_place+0x1171>
    1171:	48 8b 05 00 00 00 00 	mov    0x0(%rip),%rax        # 1178 <try_place+0x1178>
    1178:	48 83 c0 01          	add    $0x1,%rax
    117c:	48 89 05 00 00 00 00 	mov    %rax,0x0(%rip)        # 1183 <try_place+0x1183>
    1183:	48 8b 85 b0 fd ff ff 	mov    -0x250(%rbp),%rax
    118a:	48 89 c7             	mov    %rax,%rdi
    118d:	e8 00 00 00 00       	callq  1192 <try_place+0x1192>
    1192:	48 8b 05 00 00 00 00 	mov    0x0(%rip),%rax        # 1199 <try_place+0x1199>
    1199:	48 83 c0 01          	add    $0x1,%rax
    119d:	48 89 05 00 00 00 00 	mov    %rax,0x0(%rip)        # 11a4 <try_place+0x11a4>
    11a4:	48 8b 85 b8 fd ff ff 	mov    -0x248(%rbp),%rax
    11ab:	0f 57 c0             	xorps  %xmm0,%xmm0
    11ae:	48 89 c7             	mov    %rax,%rdi
    11b1:	e8 00 00 00 00       	callq  11b6 <try_place+0x11b6>
    11b6:	f3 0f 11 85 7c fd ff 	movss  %xmm0,-0x284(%rbp)
    11bd:	ff 
    11be:	8b 85 7c fd ff ff    	mov    -0x284(%rbp),%eax
    11c4:	89 45 b8             	mov    %eax,-0x48(%rbp)
    11c7:	48 8b 05 00 00 00 00 	mov    0x0(%rip),%rax        # 11ce <try_place+0x11ce>
    11ce:	48 83 c0 01          	add    $0x1,%rax
    11d2:	48 89 05 00 00 00 00 	mov    %rax,0x0(%rip)        # 11d9 <try_place+0x11d9>
    11d9:	48 8b 8d b8 fd ff ff 	mov    -0x248(%rbp),%rcx
    11e0:	8b 95 60 ff ff ff    	mov    -0xa0(%rbp),%edx
    11e6:	8b 45 b8             	mov    -0x48(%rbp),%eax
    11e9:	48 8b 75 10          	mov    0x10(%rbp),%rsi
    11ed:	48 89 34 24          	mov    %rsi,(%rsp)
    11f1:	48 8b 75 18          	mov    0x18(%rbp),%rsi
    11f5:	48 89 74 24 08       	mov    %rsi,0x8(%rsp)
    11fa:	48 8b 75 20          	mov    0x20(%rbp),%rsi
    11fe:	48 89 74 24 10       	mov    %rsi,0x10(%rsp)
    1203:	48 8b 75 28          	mov    0x28(%rbp),%rsi
    1207:	48 89 74 24 18       	mov    %rsi,0x18(%rsp)
    120c:	48 8b 75 30          	mov    0x30(%rbp),%rsi
    1210:	48 89 74 24 20       	mov    %rsi,0x20(%rsp)
    1215:	48 8b 75 38          	mov    0x38(%rbp),%rsi
    1219:	48 89 74 24 28       	mov    %rsi,0x28(%rsp)
    121e:	48 8b 75 40          	mov    0x40(%rbp),%rsi
    1222:	48 89 74 24 30       	mov    %rsi,0x30(%rsp)
    1227:	48 8b 75 48          	mov    0x48(%rbp),%rsi
    122b:	48 89 74 24 38       	mov    %rsi,0x38(%rsp)
    1230:	48 8b 75 50          	mov    0x50(%rbp),%rsi
    1234:	48 89 74 24 40       	mov    %rsi,0x40(%rsp)
    1239:	89 95 7c fd ff ff    	mov    %edx,-0x284(%rbp)
    123f:	f3 0f 10 8d 7c fd ff 	movss  -0x284(%rbp),%xmm1
    1246:	ff 
    1247:	89 85 7c fd ff ff    	mov    %eax,-0x284(%rbp)
    124d:	f3 0f 10 85 7c fd ff 	movss  -0x284(%rbp),%xmm0
    1254:	ff 
    1255:	48 89 cf             	mov    %rcx,%rdi
    1258:	e8 00 00 00 00       	callq  125d <try_place+0x125d>
    125d:	48 8b 05 00 00 00 00 	mov    0x0(%rip),%rax        # 1264 <try_place+0x1264>
    1264:	48 83 c0 01          	add    $0x1,%rax
    1268:	48 89 05 00 00 00 00 	mov    %rax,0x0(%rip)        # 126f <try_place+0x126f>
    126f:	48 8d 95 0c ff ff ff 	lea    -0xf4(%rbp),%rdx
    1276:	48 8d 85 18 ff ff ff 	lea    -0xe8(%rbp),%rax
    127d:	48 89 d6             	mov    %rdx,%rsi
    1280:	48 89 c7             	mov    %rax,%rdi
    1283:	e8 d9 59 00 00       	callq  6c61 <comp_td_costs>
    1288:	83 85 68 ff ff ff 01 	addl   $0x1,-0x98(%rbp)
    128f:	48 8b 05 00 00 00 00 	mov    0x0(%rip),%rax        # 1296 <try_place+0x1296>
    1296:	48 83 c0 01          	add    $0x1,%rax
    129a:	48 89 05 00 00 00 00 	mov    %rax,0x0(%rip)        # 12a1 <try_place+0x12a1>
    12a1:	83 45 c8 01          	addl   $0x1,-0x38(%rbp)
    12a5:	48 8b 05 00 00 00 00 	mov    0x0(%rip),%rax        # 12ac <try_place+0x12ac>
    12ac:	48 83 c0 01          	add    $0x1,%rax
    12b0:	48 89 05 00 00 00 00 	mov    %rax,0x0(%rip)        # 12b7 <try_place+0x12b7>
    12b7:	8b 45 c8             	mov    -0x38(%rbp),%eax
    12ba:	3b 45 c0             	cmp    -0x40(%rbp),%eax
    12bd:	0f 8c 35 fc ff ff    	jl     ef8 <try_place+0xef8>
    12c3:	8b 45 c0             	mov    -0x40(%rbp),%eax
    12c6:	01 45 bc             	add    %eax,-0x44(%rbp)
    12c9:	81 7d bc 50 c3 00 00 	cmpl   $0xc350,-0x44(%rbp)
    12d0:	0f 8e c5 02 00 00    	jle    159b <try_place+0x159b>
    12d6:	48 8b 05 00 00 00 00 	mov    0x0(%rip),%rax        # 12dd <try_place+0x12dd>
    12dd:	48 83 c0 01          	add    $0x1,%rax
    12e1:	48 89 05 00 00 00 00 	mov    %rax,0x0(%rip)        # 12e8 <try_place+0x12e8>
    12e8:	8b 55 3c             	mov    0x3c(%rbp),%edx
    12eb:	8b 45 1c             	mov    0x1c(%rbp),%eax
    12ee:	89 d6                	mov    %edx,%esi
    12f0:	89 c7                	mov    %eax,%edi
    12f2:	e8 67 42 00 00       	callq  555e <recompute_bb_cost>
    12f7:	f3 0f 11 85 7c fd ff 	movss  %xmm0,-0x284(%rbp)
    12fe:	ff 
    12ff:	8b 85 7c fd ff ff    	mov    -0x284(%rbp),%eax
    1305:	89 85 3c ff ff ff    	mov    %eax,-0xc4(%rbp)
    130b:	f3 0f 10 8d 14 ff ff 	movss  -0xec(%rbp),%xmm1
    1312:	ff 
    1313:	f3 0f 10 85 3c ff ff 	movss  -0xc4(%rbp),%xmm0
    131a:	ff 
    131b:	f3 0f 5c c1          	subss  %xmm1,%xmm0
    131f:	f3 0f 10 0d 00 00 00 	movss  0x0(%rip),%xmm1        # 1327 <try_place+0x1327>
    1326:	00 
    1327:	0f 54 c1             	andps  %xmm1,%xmm0
    132a:	0f 14 c0             	unpcklps %xmm0,%xmm0
    132d:	0f 5a c0             	cvtps2pd %xmm0,%xmm0
    1330:	f3 0f 10 8d 14 ff ff 	movss  -0xec(%rbp),%xmm1
    1337:	ff 
    1338:	0f 14 c9             	unpcklps %xmm1,%xmm1
    133b:	0f 5a c9             	cvtps2pd %xmm1,%xmm1
    133e:	f2 0f 10 15 00 00 00 	movsd  0x0(%rip),%xmm2        # 1346 <try_place+0x1346>
    1345:	00 
    1346:	f2 0f 59 ca          	mulsd  %xmm2,%xmm1
    134a:	66 0f 2e c1          	ucomisd %xmm1,%xmm0
    134e:	76 56                	jbe    13a6 <try_place+0x13a6>
    1350:	48 8b 05 00 00 00 00 	mov    0x0(%rip),%rax        # 1357 <try_place+0x1357>
    1357:	48 83 c0 01          	add    $0x1,%rax
    135b:	48 89 05 00 00 00 00 	mov    %rax,0x0(%rip)        # 1362 <try_place+0x1362>
    1362:	f3 0f 10 85 14 ff ff 	movss  -0xec(%rbp),%xmm0
    1369:	ff 
    136a:	0f 14 c0             	unpcklps %xmm0,%xmm0
    136d:	0f 5a c8             	cvtps2pd %xmm0,%xmm1
    1370:	f3 0f 10 85 3c ff ff 	movss  -0xc4(%rbp),%xmm0
    1377:	ff 
    1378:	0f 5a c0             	cvtps2pd %xmm0,%xmm0
    137b:	bf 00 00 00 00       	mov    $0x0,%edi
    1380:	b8 02 00 00 00       	mov    $0x2,%eax
    1385:	e8 00 00 00 00       	callq  138a <try_place+0x138a>
    138a:	48 8b 05 00 00 00 00 	mov    0x0(%rip),%rax        # 1391 <try_place+0x1391>
    1391:	48 83 c0 01          	add    $0x1,%rax
    1395:	48 89 05 00 00 00 00 	mov    %rax,0x0(%rip)        # 139c <try_place+0x139c>
    139c:	bf 01 00 00 00       	mov    $0x1,%edi
    13a1:	e8 00 00 00 00       	callq  13a6 <try_place+0x13a6>
    13a6:	48 8b 05 00 00 00 00 	mov    0x0(%rip),%rax        # 13ad <try_place+0x13ad>
    13ad:	48 83 c0 01          	add    $0x1,%rax
    13b1:	48 89 05 00 00 00 00 	mov    %rax,0x0(%rip)        # 13b8 <try_place+0x13b8>
    13b8:	8b 85 3c ff ff ff    	mov    -0xc4(%rbp),%eax
    13be:	89 85 14 ff ff ff    	mov    %eax,-0xec(%rbp)
    13c4:	8b 45 10             	mov    0x10(%rbp),%eax
    13c7:	83 f8 01             	cmp    $0x1,%eax
    13ca:	74 1e                	je     13ea <try_place+0x13ea>
    13cc:	48 8b 05 00 00 00 00 	mov    0x0(%rip),%rax        # 13d3 <try_place+0x13d3>
    13d3:	48 83 c0 01          	add    $0x1,%rax
    13d7:	48 89 05 00 00 00 00 	mov    %rax,0x0(%rip)        # 13de <try_place+0x13de>
    13de:	8b 45 10             	mov    0x10(%rbp),%eax
    13e1:	83 f8 02             	cmp    $0x2,%eax
    13e4:	0f 85 73 01 00 00    	jne    155d <try_place+0x155d>
    13ea:	48 8d 95 08 ff ff ff 	lea    -0xf8(%rbp),%rdx
    13f1:	48 8d 85 10 ff ff ff 	lea    -0xf0(%rbp),%rax
    13f8:	48 89 d6             	mov    %rdx,%rsi
    13fb:	48 89 c7             	mov    %rax,%rdi
    13fe:	e8 5e 58 00 00       	callq  6c61 <comp_td_costs>
    1403:	f3 0f 10 85 10 ff ff 	movss  -0xf0(%rbp),%xmm0
    140a:	ff 
    140b:	f3 0f 10 8d 18 ff ff 	movss  -0xe8(%rbp),%xmm1
    1412:	ff 
    1413:	f3 0f 5c c1          	subss  %xmm1,%xmm0
    1417:	f3 0f 10 0d 00 00 00 	movss  0x0(%rip),%xmm1        # 141f <try_place+0x141f>
    141e:	00 
    141f:	0f 54 c1             	andps  %xmm1,%xmm0
    1422:	0f 14 c0             	unpcklps %xmm0,%xmm0
    1425:	0f 5a c0             	cvtps2pd %xmm0,%xmm0
    1428:	f3 0f 10 8d 18 ff ff 	movss  -0xe8(%rbp),%xmm1
    142f:	ff 
    1430:	0f 14 c9             	unpcklps %xmm1,%xmm1
    1433:	0f 5a c9             	cvtps2pd %xmm1,%xmm1
    1436:	f2 0f 10 15 00 00 00 	movsd  0x0(%rip),%xmm2        # 143e <try_place+0x143e>
    143d:	00 
    143e:	f2 0f 59 ca          	mulsd  %xmm2,%xmm1
    1442:	66 0f 2e c1          	ucomisd %xmm1,%xmm0
    1446:	76 59                	jbe    14a1 <try_place+0x14a1>
    1448:	48 8b 05 00 00 00 00 	mov    0x0(%rip),%rax        # 144f <try_place+0x144f>
    144f:	48 83 c0 01          	add    $0x1,%rax
    1453:	48 89 05 00 00 00 00 	mov    %rax,0x0(%rip)        # 145a <try_place+0x145a>
    145a:	f3 0f 10 85 18 ff ff 	movss  -0xe8(%rbp),%xmm0
    1461:	ff 
    1462:	0f 14 c0             	unpcklps %xmm0,%xmm0
    1465:	0f 5a c8             	cvtps2pd %xmm0,%xmm1
    1468:	f3 0f 10 85 10 ff ff 	movss  -0xf0(%rbp),%xmm0
    146f:	ff 
    1470:	0f 14 c0             	unpcklps %xmm0,%xmm0
    1473:	0f 5a c0             	cvtps2pd %xmm0,%xmm0
    1476:	bf 00 00 00 00       	mov    $0x0,%edi
    147b:	b8 02 00 00 00       	mov    $0x2,%eax
    1480:	e8 00 00 00 00       	callq  1485 <try_place+0x1485>
    1485:	48 8b 05 00 00 00 00 	mov    0x0(%rip),%rax        # 148c <try_place+0x148c>
    148c:	48 83 c0 01          	add    $0x1,%rax
    1490:	48 89 05 00 00 00 00 	mov    %rax,0x0(%rip)        # 1497 <try_place+0x1497>
    1497:	bf 01 00 00 00       	mov    $0x1,%edi
    149c:	e8 00 00 00 00       	callq  14a1 <try_place+0x14a1>
    14a1:	f3 0f 10 85 08 ff ff 	movss  -0xf8(%rbp),%xmm0
    14a8:	ff 
    14a9:	f3 0f 10 8d 0c ff ff 	movss  -0xf4(%rbp),%xmm1
    14b0:	ff 
    14b1:	f3 0f 5c c1          	subss  %xmm1,%xmm0
    14b5:	f3 0f 10 0d 00 00 00 	movss  0x0(%rip),%xmm1        # 14bd <try_place+0x14bd>
    14bc:	00 
    14bd:	0f 54 c1             	andps  %xmm1,%xmm0
    14c0:	0f 14 c0             	unpcklps %xmm0,%xmm0
    14c3:	0f 5a c0             	cvtps2pd %xmm0,%xmm0
    14c6:	f3 0f 10 8d 0c ff ff 	movss  -0xf4(%rbp),%xmm1
    14cd:	ff 
    14ce:	0f 14 c9             	unpcklps %xmm1,%xmm1
    14d1:	0f 5a c9             	cvtps2pd %xmm1,%xmm1
    14d4:	f2 0f 10 15 00 00 00 	movsd  0x0(%rip),%xmm2        # 14dc <try_place+0x14dc>
    14db:	00 
    14dc:	f2 0f 59 ca          	mulsd  %xmm2,%xmm1
    14e0:	66 0f 2e c1          	ucomisd %xmm1,%xmm0
    14e4:	76 59                	jbe    153f <try_place+0x153f>
    14e6:	48 8b 05 00 00 00 00 	mov    0x0(%rip),%rax        # 14ed <try_place+0x14ed>
    14ed:	48 83 c0 01          	add    $0x1,%rax
    14f1:	48 89 05 00 00 00 00 	mov    %rax,0x0(%rip)        # 14f8 <try_place+0x14f8>
    14f8:	f3 0f 10 85 0c ff ff 	movss  -0xf4(%rbp),%xmm0
    14ff:	ff 
    1500:	0f 14 c0             	unpcklps %xmm0,%xmm0
    1503:	0f 5a c8             	cvtps2pd %xmm0,%xmm1
    1506:	f3 0f 10 85 08 ff ff 	movss  -0xf8(%rbp),%xmm0
    150d:	ff 
    150e:	0f 14 c0             	unpcklps %xmm0,%xmm0
    1511:	0f 5a c0             	cvtps2pd %xmm0,%xmm0
    1514:	bf 00 00 00 00       	mov    $0x0,%edi
    1519:	b8 02 00 00 00       	mov    $0x2,%eax
    151e:	e8 00 00 00 00       	callq  1523 <try_place+0x1523>
    1523:	48 8b 05 00 00 00 00 	mov    0x0(%rip),%rax        # 152a <try_place+0x152a>
    152a:	48 83 c0 01          	add    $0x1,%rax
    152e:	48 89 05 00 00 00 00 	mov    %rax,0x0(%rip)        # 1535 <try_place+0x1535>
    1535:	bf 01 00 00 00       	mov    $0x1,%edi
    153a:	e8 00 00 00 00       	callq  153f <try_place+0x153f>
    153f:	8b 85 10 ff ff ff    	mov    -0xf0(%rbp),%eax
    1545:	89 85 18 ff ff ff    	mov    %eax,-0xe8(%rbp)
    154b:	48 8b 05 00 00 00 00 	mov    0x0(%rip),%rax        # 1552 <try_place+0x1552>
    1552:	48 83 c0 01          	add    $0x1,%rax
    1556:	48 89 05 00 00 00 00 	mov    %rax,0x0(%rip)        # 155d <try_place+0x155d>
    155d:	8b 45 10             	mov    0x10(%rbp),%eax
    1560:	85 c0                	test   %eax,%eax
    1562:	75 1e                	jne    1582 <try_place+0x1582>
    1564:	8b 85 3c ff ff ff    	mov    -0xc4(%rbp),%eax
    156a:	89 85 1c ff ff ff    	mov    %eax,-0xe4(%rbp)
    1570:	48 8b 05 00 00 00 00 	mov    0x0(%rip),%rax        # 1577 <try_place+0x1577>
    1577:	48 83 c0 01          	add    $0x1,%rax
    157b:	48 89 05 00 00 00 00 	mov    %rax,0x0(%rip)        # 1582 <try_place+0x1582>
    1582:	c7 45 bc 00 00 00 00 	movl   $0x0,-0x44(%rbp)
    1589:	48 8b 05 00 00 00 00 	mov    0x0(%rip),%rax        # 1590 <try_place+0x1590>
    1590:	48 83 c0 01          	add    $0x1,%rax
    1594:	48 89 05 00 00 00 00 	mov    %rax,0x0(%rip)        # 159b <try_place+0x159b>
    159b:	8b 45 c0             	mov    -0x40(%rbp),%eax
    159e:	01 45 cc             	add    %eax,-0x34(%rbp)
    15a1:	f3 0f 2a 45 c4       	cvtsi2ssl -0x3c(%rbp),%xmm0
    15a6:	f3 0f 2a 4d c0       	cvtsi2ssl -0x40(%rbp),%xmm1
    15ab:	f3 0f 5e c1          	divss  %xmm1,%xmm0
    15af:	f3 0f 11 85 38 ff ff 	movss  %xmm0,-0xc8(%rbp)
    15b6:	ff 
    15b7:	83 7d c4 00          	cmpl   $0x0,-0x3c(%rbp)
    15bb:	75 60                	jne    161d <try_place+0x161d>
    15bd:	f3 0f 10 85 1c ff ff 	movss  -0xe4(%rbp),%xmm0
    15c4:	ff 
    15c5:	0f 14 c0             	unpcklps %xmm0,%xmm0
    15c8:	0f 5a c0             	cvtps2pd %xmm0,%xmm0
    15cb:	f2 0f 11 45 a0       	movsd  %xmm0,-0x60(%rbp)
    15d0:	f3 0f 10 85 14 ff ff 	movss  -0xec(%rbp),%xmm0
    15d7:	ff 
    15d8:	0f 14 c0             	unpcklps %xmm0,%xmm0
    15db:	0f 5a c0             	cvtps2pd %xmm0,%xmm0
    15de:	f2 0f 11 45 98       	movsd  %xmm0,-0x68(%rbp)
    15e3:	f3 0f 10 85 18 ff ff 	movss  -0xe8(%rbp),%xmm0
    15ea:	ff 
    15eb:	0f 14 c0             	unpcklps %xmm0,%xmm0
    15ee:	0f 5a c0             	cvtps2pd %xmm0,%xmm0
    15f1:	f2 0f 11 45 90       	movsd  %xmm0,-0x70(%rbp)
    15f6:	f3 0f 10 85 0c ff ff 	movss  -0xf4(%rbp),%xmm0
    15fd:	ff 
    15fe:	0f 14 c0             	unpcklps %xmm0,%xmm0
    1601:	0f 5a c0             	cvtps2pd %xmm0,%xmm0
    1604:	f2 0f 11 45 88       	movsd  %xmm0,-0x78(%rbp)
    1609:	48 8b 05 00 00 00 00 	mov    0x0(%rip),%rax        # 1610 <try_place+0x1610>
    1610:	48 83 c0 01          	add    $0x1,%rax
    1614:	48 89 05 00 00 00 00 	mov    %rax,0x0(%rip)        # 161b <try_place+0x161b>
    161b:	eb 7e                	jmp    169b <try_place+0x169b>
    161d:	f2 0f 2a 45 c4       	cvtsi2sdl -0x3c(%rbp),%xmm0
    1622:	f2 0f 10 4d a0       	movsd  -0x60(%rbp),%xmm1
    1627:	66 0f 28 d1          	movapd %xmm1,%xmm2
    162b:	f2 0f 5e d0          	divsd  %xmm0,%xmm2
    162f:	66 0f 28 c2          	movapd %xmm2,%xmm0
    1633:	f2 0f 11 45 a0       	movsd  %xmm0,-0x60(%rbp)
    1638:	f2 0f 2a 45 c4       	cvtsi2sdl -0x3c(%rbp),%xmm0
    163d:	f2 0f 10 4d 98       	movsd  -0x68(%rbp),%xmm1
    1642:	66 0f 28 d1          	movapd %xmm1,%xmm2
    1646:	f2 0f 5e d0          	divsd  %xmm0,%xmm2
    164a:	66 0f 28 c2          	movapd %xmm2,%xmm0
    164e:	f2 0f 11 45 98       	movsd  %xmm0,-0x68(%rbp)
    1653:	f2 0f 2a 45 c4       	cvtsi2sdl -0x3c(%rbp),%xmm0
    1658:	f2 0f 10 4d 90       	movsd  -0x70(%rbp),%xmm1
    165d:	66 0f 28 d1          	movapd %xmm1,%xmm2
    1661:	f2 0f 5e d0          	divsd  %xmm0,%xmm2
    1665:	66 0f 28 c2          	movapd %xmm2,%xmm0
    1669:	f2 0f 11 45 90       	movsd  %xmm0,-0x70(%rbp)
    166e:	f2 0f 2a 45 c4       	cvtsi2sdl -0x3c(%rbp),%xmm0
    1673:	f2 0f 10 4d 88       	movsd  -0x78(%rbp),%xmm1
    1678:	66 0f 28 d1          	movapd %xmm1,%xmm2
    167c:	f2 0f 5e d0          	divsd  %xmm0,%xmm2
    1680:	66 0f 28 c2          	movapd %xmm2,%xmm0
    1684:	f2 0f 11 45 88       	movsd  %xmm0,-0x78(%rbp)
    1689:	48 8b 05 00 00 00 00 	mov    0x0(%rip),%rax        # 1690 <try_place+0x1690>
    1690:	48 83 c0 01          	add    $0x1,%rax
    1694:	48 89 05 00 00 00 00 	mov    %rax,0x0(%rip)        # 169b <try_place+0x169b>
    169b:	48 8b 55 a0          	mov    -0x60(%rbp),%rdx
    169f:	48 8b 45 80          	mov    -0x80(%rbp),%rax
    16a3:	8b 4d c4             	mov    -0x3c(%rbp),%ecx
    16a6:	48 89 95 70 fd ff ff 	mov    %rdx,-0x290(%rbp)
    16ad:	f2 0f 10 8d 70 fd ff 	movsd  -0x290(%rbp),%xmm1
    16b4:	ff 
    16b5:	48 89 85 70 fd ff ff 	mov    %rax,-0x290(%rbp)
    16bc:	f2 0f 10 85 70 fd ff 	movsd  -0x290(%rbp),%xmm0
    16c3:	ff 
    16c4:	89 cf                	mov    %ecx,%edi
    16c6:	e8 6d 14 00 00       	callq  2b38 <get_std_dev>
    16cb:	f2 0f 11 85 70 fd ff 	movsd  %xmm0,-0x290(%rbp)
    16d2:	ff 
    16d3:	48 8b 85 70 fd ff ff 	mov    -0x290(%rbp),%rax
    16da:	48 89 85 30 ff ff ff 	mov    %rax,-0xd0(%rbp)
    16e1:	48 8b 05 00 00 00 00 	mov    0x0(%rip),%rax        # 16e8 <try_place+0x16e8>
    16e8:	48 83 c0 01          	add    $0x1,%rax
    16ec:	48 89 05 00 00 00 00 	mov    %rax,0x0(%rip)        # 16f3 <try_place+0x16f3>
    16f3:	f3 0f 10 ad 60 ff ff 	movss  -0xa0(%rbp),%xmm5
    16fa:	ff 
    16fb:	0f 5a ed             	cvtps2pd %xmm5,%xmm5
    16fe:	f3 0f 10 85 20 ff ff 	movss  -0xe0(%rbp),%xmm0
    1705:	ff 
    1706:	0f 14 c0             	unpcklps %xmm0,%xmm0
    1709:	0f 5a e0             	cvtps2pd %xmm0,%xmm4
    170c:	f3 0f 10 9d 38 ff ff 	movss  -0xc8(%rbp),%xmm3
    1713:	ff 
    1714:	0f 5a db             	cvtps2pd %xmm3,%xmm3
    1717:	f3 0f 10 55 b8       	movss  -0x48(%rbp),%xmm2
    171c:	0f 5a d2             	cvtps2pd %xmm2,%xmm2
    171f:	f3 0f 10 4d b4       	movss  -0x4c(%rbp),%xmm1
    1724:	0f 5a c9             	cvtps2pd %xmm1,%xmm1
    1727:	f3 0f 10 85 24 ff ff 	movss  -0xdc(%rbp),%xmm0
    172e:	ff 
    172f:	0f 14 c0             	unpcklps %xmm0,%xmm0
    1732:	0f 5a c0             	cvtps2pd %xmm0,%xmm0
    1735:	44 8b 45 cc          	mov    -0x34(%rbp),%r8d
    1739:	48 8b 7d 88          	mov    -0x78(%rbp),%rdi
    173d:	48 8b 4d 90          	mov    -0x70(%rbp),%rcx
    1741:	48 8b 55 98          	mov    -0x68(%rbp),%rdx
    1745:	48 8b 45 a0          	mov    -0x60(%rbp),%rax
    1749:	f2 0f 11 6c 24 10    	movsd  %xmm5,0x10(%rsp)
    174f:	f2 0f 11 64 24 08    	movsd  %xmm4,0x8(%rsp)
    1755:	48 8b b5 30 ff ff ff 	mov    -0xd0(%rbp),%rsi
    175c:	48 89 34 24          	mov    %rsi,(%rsp)
    1760:	44 89 c6             	mov    %r8d,%esi
    1763:	66 0f 28 fb          	movapd %xmm3,%xmm7
    1767:	66 0f 28 f2          	movapd %xmm2,%xmm6
    176b:	66 0f 28 e9          	movapd %xmm1,%xmm5
    176f:	48 89 bd 70 fd ff ff 	mov    %rdi,-0x290(%rbp)
    1776:	f2 0f 10 a5 70 fd ff 	movsd  -0x290(%rbp),%xmm4
    177d:	ff 
    177e:	48 89 8d 70 fd ff ff 	mov    %rcx,-0x290(%rbp)
    1785:	f2 0f 10 9d 70 fd ff 	movsd  -0x290(%rbp),%xmm3
    178c:	ff 
    178d:	48 89 95 70 fd ff ff 	mov    %rdx,-0x290(%rbp)
    1794:	f2 0f 10 95 70 fd ff 	movsd  -0x290(%rbp),%xmm2
    179b:	ff 
    179c:	48 89 85 70 fd ff ff 	mov    %rax,-0x290(%rbp)
    17a3:	f2 0f 10 8d 70 fd ff 	movsd  -0x290(%rbp),%xmm1
    17aa:	ff 
    17ab:	bf 00 00 00 00       	mov    $0x0,%edi
    17b0:	b8 08 00 00 00       	mov    $0x8,%eax
    17b5:	e8 00 00 00 00       	callq  17ba <try_place+0x17ba>
    17ba:	48 8b 05 00 00 00 00 	mov    0x0(%rip),%rax        # 17c1 <try_place+0x17c1>
    17c1:	48 83 c0 01          	add    $0x1,%rax
    17c5:	48 89 05 00 00 00 00 	mov    %rax,0x0(%rip)        # 17cc <try_place+0x17cc>
    17cc:	8b 85 24 ff ff ff    	mov    -0xdc(%rbp),%eax
    17d2:	89 85 2c ff ff ff    	mov    %eax,-0xd4(%rbp)
    17d8:	8b 85 20 ff ff ff    	mov    -0xe0(%rbp),%eax
    17de:	f2 0f 10 85 30 ff ff 	movsd  -0xd0(%rbp),%xmm0
    17e5:	ff 
    17e6:	66 0f 5a c0          	cvtpd2ps %xmm0,%xmm0
    17ea:	8b 95 38 ff ff ff    	mov    -0xc8(%rbp),%edx
    17f0:	48 8d 8d 24 ff ff ff 	lea    -0xdc(%rbp),%rcx
    17f7:	48 8b 75 58          	mov    0x58(%rbp),%rsi
    17fb:	48 89 34 24          	mov    %rsi,(%rsp)
    17ff:	48 8b 75 60          	mov    0x60(%rbp),%rsi
    1803:	48 89 74 24 08       	mov    %rsi,0x8(%rsp)
    1808:	8b 75 68             	mov    0x68(%rbp),%esi
    180b:	89 74 24 10          	mov    %esi,0x10(%rsp)
    180f:	89 95 7c fd ff ff    	mov    %edx,-0x284(%rbp)
    1815:	f3 0f 10 95 7c fd ff 	movss  -0x284(%rbp),%xmm2
    181c:	ff 
    181d:	89 85 7c fd ff ff    	mov    %eax,-0x284(%rbp)
    1823:	f3 0f 10 8d 7c fd ff 	movss  -0x284(%rbp),%xmm1
    182a:	ff 
    182b:	48 89 cf             	mov    %rcx,%rdi
    182e:	e8 bd 14 00 00       	callq  2cf0 <update_t>
    1833:	48 8b 05 00 00 00 00 	mov    0x0(%rip),%rax        # 183a <try_place+0x183a>
    183a:	48 83 c0 01          	add    $0x1,%rax
    183e:	48 89 05 00 00 00 00 	mov    %rax,0x0(%rip)        # 1845 <try_place+0x1845>
    1845:	f3 0f 10 85 24 ff ff 	movss  -0xdc(%rbp),%xmm0
    184c:	ff 
    184d:	f3 0f 5e 85 2c ff ff 	divss  -0xd4(%rbp),%xmm0
    1854:	ff 
    1855:	0f 14 c0             	unpcklps %xmm0,%xmm0
    1858:	0f 5a c0             	cvtps2pd %xmm0,%xmm0
    185b:	bf 00 00 00 00       	mov    $0x0,%edi
    1860:	b8 01 00 00 00       	mov    $0x1,%eax
    1865:	e8 00 00 00 00       	callq  186a <try_place+0x186a>
    186a:	48 8b 05 00 00 00 00 	mov    0x0(%rip),%rax        # 1871 <try_place+0x1871>
    1871:	48 83 c0 01          	add    $0x1,%rax
    1875:	48 89 05 00 00 00 00 	mov    %rax,0x0(%rip)        # 187c <try_place+0x187c>
    187c:	f3 0f 10 65 b8       	movss  -0x48(%rbp),%xmm4
    1881:	0f 5a e4             	cvtps2pd %xmm4,%xmm4
    1884:	f3 0f 10 85 24 ff ff 	movss  -0xdc(%rbp),%xmm0
    188b:	ff 
    188c:	0f 14 c0             	unpcklps %xmm0,%xmm0
    188f:	0f 5a d8             	cvtps2pd %xmm0,%xmm3
    1892:	f3 0f 10 85 18 ff ff 	movss  -0xe8(%rbp),%xmm0
    1899:	ff 
    189a:	0f 14 c0             	unpcklps %xmm0,%xmm0
    189d:	0f 5a d0             	cvtps2pd %xmm0,%xmm2
    18a0:	f3 0f 10 85 14 ff ff 	movss  -0xec(%rbp),%xmm0
    18a7:	ff 
    18a8:	0f 14 c0             	unpcklps %xmm0,%xmm0
    18ab:	0f 5a c8             	cvtps2pd %xmm0,%xmm1
    18ae:	f3 0f 10 85 1c ff ff 	movss  -0xe4(%rbp),%xmm0
    18b5:	ff 
    18b6:	0f 14 c0             	unpcklps %xmm0,%xmm0
    18b9:	0f 5a c0             	cvtps2pd %xmm0,%xmm0
    18bc:	48 8d 85 c0 fd ff ff 	lea    -0x240(%rbp),%rax
    18c3:	be 00 00 00 00       	mov    $0x0,%esi
    18c8:	48 89 c7             	mov    %rax,%rdi
    18cb:	b8 05 00 00 00       	mov    $0x5,%eax
    18d0:	e8 00 00 00 00       	callq  18d5 <try_place+0x18d5>
    18d5:	48 8d 85 c0 fd ff ff 	lea    -0x240(%rbp),%rax
    18dc:	b9 00 00 00 00       	mov    $0x0,%ecx
    18e1:	ba 01 00 00 00       	mov    $0x1,%edx
    18e6:	48 89 c6             	mov    %rax,%rsi
    18e9:	bf 00 00 00 00       	mov    $0x0,%edi
    18ee:	e8 00 00 00 00       	callq  18f3 <try_place+0x18f3>
    18f3:	48 8b 05 00 00 00 00 	mov    0x0(%rip),%rax        # 18fa <try_place+0x18fa>
    18fa:	48 83 c0 01          	add    $0x1,%rax
    18fe:	48 89 05 00 00 00 00 	mov    %rax,0x0(%rip)        # 1905 <try_place+0x1905>
    1905:	8b 85 38 ff ff ff    	mov    -0xc8(%rbp),%eax
    190b:	48 8d 95 20 ff ff ff 	lea    -0xe0(%rbp),%rdx
    1912:	89 85 7c fd ff ff    	mov    %eax,-0x284(%rbp)
    1918:	f3 0f 10 85 7c fd ff 	movss  -0x284(%rbp),%xmm0
    191f:	ff 
    1920:	48 89 d7             	mov    %rdx,%rdi
    1923:	e8 e7 12 00 00       	callq  2c0f <update_rlim>
    1928:	48 8b 05 00 00 00 00 	mov    0x0(%rip),%rax        # 192f <try_place+0x192f>
    192f:	48 83 c0 01          	add    $0x1,%rax
    1933:	48 89 05 00 00 00 00 	mov    %rax,0x0(%rip)        # 193a <try_place+0x193a>
    193a:	8b 45 10             	mov    0x10(%rbp),%eax
    193d:	83 f8 01             	cmp    $0x1,%eax
    1940:	74 1a                	je     195c <try_place+0x195c>
    1942:	48 8b 05 00 00 00 00 	mov    0x0(%rip),%rax        # 1949 <try_place+0x1949>
    1949:	48 83 c0 01          	add    $0x1,%rax
    194d:	48 89 05 00 00 00 00 	mov    %rax,0x0(%rip)        # 1954 <try_place+0x1954>
    1954:	8b 45 10             	mov    0x10(%rbp),%eax
    1957:	83 f8 02             	cmp    $0x2,%eax
    195a:	75 59                	jne    19b5 <try_place+0x19b5>
    195c:	f3 0f 10 85 20 ff ff 	movss  -0xe0(%rbp),%xmm0
    1963:	ff 
    1964:	f3 0f 5c 85 44 ff ff 	subss  -0xbc(%rbp),%xmm0
    196b:	ff 
    196c:	f3 0f 59 85 40 ff ff 	mulss  -0xc0(%rbp),%xmm0
    1973:	ff 
    1974:	f3 0f 10 0d 00 00 00 	movss  0x0(%rip),%xmm1        # 197c <try_place+0x197c>
    197b:	00 
    197c:	f3 0f 5c c8          	subss  %xmm0,%xmm1
    1980:	f3 0f 10 45 54       	movss  0x54(%rbp),%xmm0
    1985:	f3 0f 10 55 4c       	movss  0x4c(%rbp),%xmm2
    198a:	f3 0f 5c c2          	subss  %xmm2,%xmm0
    198e:	f3 0f 59 c1          	mulss  %xmm1,%xmm0
    1992:	f3 0f 10 4d 4c       	movss  0x4c(%rbp),%xmm1
    1997:	f3 0f 58 c1          	addss  %xmm1,%xmm0
    199b:	f3 0f 11 85 60 ff ff 	movss  %xmm0,-0xa0(%rbp)
    19a2:	ff 
    19a3:	48 8b 05 00 00 00 00 	mov    0x0(%rip),%rax        # 19aa <try_place+0x19aa>
    19aa:	48 83 c0 01          	add    $0x1,%rax
    19ae:	48 89 05 00 00 00 00 	mov    %rax,0x0(%rip)        # 19b5 <try_place+0x19b5>
    19b5:	8b 95 1c ff ff ff    	mov    -0xe4(%rbp),%edx
    19bb:	8b 85 24 ff ff ff    	mov    -0xdc(%rbp),%eax
    19c1:	48 8b 4d 58          	mov    0x58(%rbp),%rcx
    19c5:	48 89 0c 24          	mov    %rcx,(%rsp)
    19c9:	48 8b 4d 60          	mov    0x60(%rbp),%rcx
    19cd:	48 89 4c 24 08       	mov    %rcx,0x8(%rsp)
    19d2:	8b 4d 68             	mov    0x68(%rbp),%ecx
    19d5:	89 4c 24 10          	mov    %ecx,0x10(%rsp)
    19d9:	89 95 7c fd ff ff    	mov    %edx,-0x284(%rbp)
    19df:	f3 0f 10 8d 7c fd ff 	movss  -0x284(%rbp),%xmm1
    19e6:	ff 
    19e7:	89 85 7c fd ff ff    	mov    %eax,-0x284(%rbp)
    19ed:	f3 0f 10 85 7c fd ff 	movss  -0x284(%rbp),%xmm0
    19f4:	ff 
    19f5:	e8 93 14 00 00       	callq  2e8d <exit_crit>
    19fa:	85 c0                	test   %eax,%eax
    19fc:	0f 84 35 f2 ff ff    	je     c37 <try_place+0xc37>
    1a02:	48 8b 05 00 00 00 00 	mov    0x0(%rip),%rax        # 1a09 <try_place+0x1a09>
    1a09:	48 83 c0 01          	add    $0x1,%rax
    1a0d:	48 89 05 00 00 00 00 	mov    %rax,0x0(%rip)        # 1a14 <try_place+0x1a14>
    1a14:	8b 05 00 00 00 00    	mov    0x0(%rip),%eax        # 1a1a <try_place+0x1a1a>
    1a1a:	89 85 24 ff ff ff    	mov    %eax,-0xdc(%rbp)
    1a20:	b8 00 00 00 00       	mov    $0x0,%eax
    1a25:	48 89 45 a0          	mov    %rax,-0x60(%rbp)
    1a29:	b8 00 00 00 00       	mov    $0x0,%eax
    1a2e:	48 89 45 98          	mov    %rax,-0x68(%rbp)
    1a32:	b8 00 00 00 00       	mov    $0x0,%eax
    1a37:	48 89 45 90          	mov    %rax,-0x70(%rbp)
    1a3b:	b8 00 00 00 00       	mov    $0x0,%eax
    1a40:	48 89 45 80          	mov    %rax,-0x80(%rbp)
    1a44:	b8 00 00 00 00       	mov    $0x0,%eax
    1a49:	48 89 45 88          	mov    %rax,-0x78(%rbp)
    1a4d:	c7 45 c4 00 00 00 00 	movl   $0x0,-0x3c(%rbp)
    1a54:	8b 45 10             	mov    0x10(%rbp),%eax
    1a57:	83 f8 01             	cmp    $0x1,%eax
    1a5a:	74 1e                	je     1a7a <try_place+0x1a7a>
    1a5c:	48 8b 05 00 00 00 00 	mov    0x0(%rip),%rax        # 1a63 <try_place+0x1a63>
    1a63:	48 83 c0 01          	add    $0x1,%rax
    1a67:	48 89 05 00 00 00 00 	mov    %rax,0x0(%rip)        # 1a6e <try_place+0x1a6e>
    1a6e:	8b 45 10             	mov    0x10(%rbp),%eax
    1a71:	83 f8 02             	cmp    $0x2,%eax
    1a74:	0f 85 ff 01 00 00    	jne    1c79 <try_place+0x1c79>
    1a7a:	8b 45 40             	mov    0x40(%rbp),%eax
    1a7d:	3b 85 6c ff ff ff    	cmp    -0x94(%rbp),%eax
    1a83:	7e 1d                	jle    1aa2 <try_place+0x1aa2>
    1a85:	48 8b 05 00 00 00 00 	mov    0x0(%rip),%rax        # 1a8c <try_place+0x1a8c>
    1a8c:	48 83 c0 01          	add    $0x1,%rax
    1a90:	48 89 05 00 00 00 00 	mov    %rax,0x0(%rip)        # 1a97 <try_place+0x1a97>
    1a97:	8b 45 48             	mov    0x48(%rbp),%eax
    1a9a:	85 c0                	test   %eax,%eax
    1a9c:	0f 84 8c 01 00 00    	je     1c2e <try_place+0x1c2e>
    1aa2:	f3 0f 10 8d 0c ff ff 	movss  -0xf4(%rbp),%xmm1
    1aa9:	ff 
    1aaa:	f3 0f 2a 85 78 ff ff 	cvtsi2ssl -0x88(%rbp),%xmm0
    1ab1:	ff 
    1ab2:	0f 28 d1             	movaps %xmm1,%xmm2
    1ab5:	f3 0f 5e d0          	divss  %xmm0,%xmm2
    1ab9:	0f 28 c2             	movaps %xmm2,%xmm0
    1abc:	f3 0f 11 45 b4       	movss  %xmm0,-0x4c(%rbp)
    1ac1:	8b 45 10             	mov    0x10(%rbp),%eax
    1ac4:	83 f8 01             	cmp    $0x1,%eax
    1ac7:	75 44                	jne    1b0d <try_place+0x1b0d>
    1ac9:	48 8b 05 00 00 00 00 	mov    0x0(%rip),%rax        # 1ad0 <try_place+0x1ad0>
    1ad0:	48 83 c0 01          	add    $0x1,%rax
    1ad4:	48 89 05 00 00 00 00 	mov    %rax,0x0(%rip)        # 1adb <try_place+0x1adb>
    1adb:	48 8b 95 b0 fd ff ff 	mov    -0x250(%rbp),%rdx
    1ae2:	8b 45 b4             	mov    -0x4c(%rbp),%eax
    1ae5:	89 85 7c fd ff ff    	mov    %eax,-0x284(%rbp)
    1aeb:	f3 0f 10 85 7c fd ff 	movss  -0x284(%rbp),%xmm0
    1af2:	ff 
    1af3:	48 89 d7             	mov    %rdx,%rdi
    1af6:	e8 00 00 00 00       	callq  1afb <try_place+0x1afb>
    1afb:	48 8b 05 00 00 00 00 	mov    0x0(%rip),%rax        # 1b02 <try_place+0x1b02>
    1b02:	48 83 c0 01          	add    $0x1,%rax
    1b06:	48 89 05 00 00 00 00 	mov    %rax,0x0(%rip)        # 1b0d <try_place+0x1b0d>
    1b0d:	48 8b 85 b0 fd ff ff 	mov    -0x250(%rbp),%rax
    1b14:	48 89 c7             	mov    %rax,%rdi
    1b17:	e8 00 00 00 00       	callq  1b1c <try_place+0x1b1c>
    1b1c:	48 8b 05 00 00 00 00 	mov    0x0(%rip),%rax        # 1b23 <try_place+0x1b23>
    1b23:	48 83 c0 01          	add    $0x1,%rax
    1b27:	48 89 05 00 00 00 00 	mov    %rax,0x0(%rip)        # 1b2e <try_place+0x1b2e>
    1b2e:	48 8b 85 b8 fd ff ff 	mov    -0x248(%rbp),%rax
    1b35:	0f 57 c0             	xorps  %xmm0,%xmm0
    1b38:	48 89 c7             	mov    %rax,%rdi
    1b3b:	e8 00 00 00 00       	callq  1b40 <try_place+0x1b40>
    1b40:	f3 0f 11 85 7c fd ff 	movss  %xmm0,-0x284(%rbp)
    1b47:	ff 
    1b48:	8b 85 7c fd ff ff    	mov    -0x284(%rbp),%eax
    1b4e:	89 45 b8             	mov    %eax,-0x48(%rbp)
    1b51:	48 8b 05 00 00 00 00 	mov    0x0(%rip),%rax        # 1b58 <try_place+0x1b58>
    1b58:	48 83 c0 01          	add    $0x1,%rax
    1b5c:	48 89 05 00 00 00 00 	mov    %rax,0x0(%rip)        # 1b63 <try_place+0x1b63>
    1b63:	48 8b 8d b8 fd ff ff 	mov    -0x248(%rbp),%rcx
    1b6a:	8b 95 60 ff ff ff    	mov    -0xa0(%rbp),%edx
    1b70:	8b 45 b8             	mov    -0x48(%rbp),%eax
    1b73:	48 8b 75 10          	mov    0x10(%rbp),%rsi
    1b77:	48 89 34 24          	mov    %rsi,(%rsp)
    1b7b:	48 8b 75 18          	mov    0x18(%rbp),%rsi
    1b7f:	48 89 74 24 08       	mov    %rsi,0x8(%rsp)
    1b84:	48 8b 75 20          	mov    0x20(%rbp),%rsi
    1b88:	48 89 74 24 10       	mov    %rsi,0x10(%rsp)
    1b8d:	48 8b 75 28          	mov    0x28(%rbp),%rsi
    1b91:	48 89 74 24 18       	mov    %rsi,0x18(%rsp)
    1b96:	48 8b 75 30          	mov    0x30(%rbp),%rsi
    1b9a:	48 89 74 24 20       	mov    %rsi,0x20(%rsp)
    1b9f:	48 8b 75 38          	mov    0x38(%rbp),%rsi
    1ba3:	48 89 74 24 28       	mov    %rsi,0x28(%rsp)
    1ba8:	48 8b 75 40          	mov    0x40(%rbp),%rsi
    1bac:	48 89 74 24 30       	mov    %rsi,0x30(%rsp)
    1bb1:	48 8b 75 48          	mov    0x48(%rbp),%rsi
    1bb5:	48 89 74 24 38       	mov    %rsi,0x38(%rsp)
    1bba:	48 8b 75 50          	mov    0x50(%rbp),%rsi
    1bbe:	48 89 74 24 40       	mov    %rsi,0x40(%rsp)
    1bc3:	89 95 7c fd ff ff    	mov    %edx,-0x284(%rbp)
    1bc9:	f3 0f 10 8d 7c fd ff 	movss  -0x284(%rbp),%xmm1
    1bd0:	ff 
    1bd1:	89 85 7c fd ff ff    	mov    %eax,-0x284(%rbp)
    1bd7:	f3 0f 10 85 7c fd ff 	movss  -0x284(%rbp),%xmm0
    1bde:	ff 
    1bdf:	48 89 cf             	mov    %rcx,%rdi
    1be2:	e8 00 00 00 00       	callq  1be7 <try_place+0x1be7>
    1be7:	48 8b 05 00 00 00 00 	mov    0x0(%rip),%rax        # 1bee <try_place+0x1bee>
    1bee:	48 83 c0 01          	add    $0x1,%rax
    1bf2:	48 89 05 00 00 00 00 	mov    %rax,0x0(%rip)        # 1bf9 <try_place+0x1bf9>
    1bf9:	48 8d 95 0c ff ff ff 	lea    -0xf4(%rbp),%rdx
    1c00:	48 8d 85 18 ff ff ff 	lea    -0xe8(%rbp),%rax
    1c07:	48 89 d6             	mov    %rdx,%rsi
    1c0a:	48 89 c7             	mov    %rax,%rdi
    1c0d:	e8 4f 50 00 00       	callq  6c61 <comp_td_costs>
    1c12:	c7 85 6c ff ff ff 00 	movl   $0x0,-0x94(%rbp)
    1c19:	00 00 00 
    1c1c:	48 8b 05 00 00 00 00 	mov    0x0(%rip),%rax        # 1c23 <try_place+0x1c23>
    1c23:	48 83 c0 01          	add    $0x1,%rax
    1c27:	48 89 05 00 00 00 00 	mov    %rax,0x0(%rip)        # 1c2e <try_place+0x1c2e>
    1c2e:	83 85 6c ff ff ff 01 	addl   $0x1,-0x94(%rbp)
    1c35:	f3 0f 10 8d 14 ff ff 	movss  -0xec(%rbp),%xmm1
    1c3c:	ff 
    1c3d:	f3 0f 10 05 00 00 00 	movss  0x0(%rip),%xmm0        # 1c45 <try_place+0x1c45>
    1c44:	00 
    1c45:	f3 0f 5e c1          	divss  %xmm1,%xmm0
    1c49:	f3 0f 11 45 b0       	movss  %xmm0,-0x50(%rbp)
    1c4e:	f3 0f 10 8d 18 ff ff 	movss  -0xe8(%rbp),%xmm1
    1c55:	ff 
    1c56:	f3 0f 10 05 00 00 00 	movss  0x0(%rip),%xmm0        # 1c5e <try_place+0x1c5e>
    1c5d:	00 
    1c5e:	f3 0f 5e c1          	divss  %xmm1,%xmm0
    1c62:	f3 0f 11 45 ac       	movss  %xmm0,-0x54(%rbp)
    1c67:	48 8b 05 00 00 00 00 	mov    0x0(%rip),%rax        # 1c6e <try_place+0x1c6e>
    1c6e:	48 83 c0 01          	add    $0x1,%rax
    1c72:	48 89 05 00 00 00 00 	mov    %rax,0x0(%rip)        # 1c79 <try_place+0x1c79>
    1c79:	c7 85 68 ff ff ff 01 	movl   $0x1,-0x98(%rbp)
    1c80:	00 00 00 
    1c83:	c7 45 c8 00 00 00 00 	movl   $0x0,-0x38(%rbp)
    1c8a:	e9 bf 03 00 00       	jmpq   204e <try_place+0x204e>
    1c8f:	48 8b 05 00 00 00 00 	mov    0x0(%rip),%rax        # 1c96 <try_place+0x1c96>
    1c96:	48 83 c0 01          	add    $0x1,%rax
    1c9a:	48 89 05 00 00 00 00 	mov    %rax,0x0(%rip)        # 1ca1 <try_place+0x1ca1>
    1ca1:	8b 4d 14             	mov    0x14(%rbp),%ecx
    1ca4:	44 8b 4d 10          	mov    0x10(%rbp),%r9d
    1ca8:	44 8b 45 3c          	mov    0x3c(%rbp),%r8d
    1cac:	4c 8b bd f8 fe ff ff 	mov    -0x108(%rbp),%r15
    1cb3:	4c 8b b5 00 ff ff ff 	mov    -0x100(%rbp),%r14
    1cba:	8b 45 1c             	mov    0x1c(%rbp),%eax
    1cbd:	41 89 c4             	mov    %eax,%r12d
    1cc0:	8b 95 20 ff ff ff    	mov    -0xe0(%rbp),%edx
    1cc6:	8b 85 24 ff ff ff    	mov    -0xdc(%rbp),%eax
    1ccc:	8b 7d ac             	mov    -0x54(%rbp),%edi
    1ccf:	8b 75 b0             	mov    -0x50(%rbp),%esi
    1cd2:	48 8d 9d 18 ff ff ff 	lea    -0xe8(%rbp),%rbx
    1cd9:	4c 8d 9d 14 ff ff ff 	lea    -0xec(%rbp),%r11
    1ce0:	4c 8d 95 1c ff ff ff 	lea    -0xe4(%rbp),%r10
    1ce7:	4c 8b ad 50 ff ff ff 	mov    -0xb0(%rbp),%r13
    1cee:	4c 89 6c 24 20       	mov    %r13,0x20(%rsp)
    1cf3:	4c 8d ad 0c ff ff ff 	lea    -0xf4(%rbp),%r13
    1cfa:	4c 89 6c 24 18       	mov    %r13,0x18(%rsp)
    1cff:	44 89 4c 24 10       	mov    %r9d,0x10(%rsp)
    1d04:	44 8b 8d 7c ff ff ff 	mov    -0x84(%rbp),%r9d
    1d0b:	44 89 4c 24 08       	mov    %r9d,0x8(%rsp)
    1d10:	44 89 04 24          	mov    %r8d,(%rsp)
    1d14:	89 bd 7c fd ff ff    	mov    %edi,-0x284(%rbp)
    1d1a:	f3 0f 10 a5 7c fd ff 	movss  -0x284(%rbp),%xmm4
    1d21:	ff 
    1d22:	89 b5 7c fd ff ff    	mov    %esi,-0x284(%rbp)
    1d28:	f3 0f 10 9d 7c fd ff 	movss  -0x284(%rbp),%xmm3
    1d2f:	ff 
    1d30:	89 8d 7c fd ff ff    	mov    %ecx,-0x284(%rbp)
    1d36:	f3 0f 10 95 7c fd ff 	movss  -0x284(%rbp),%xmm2
    1d3d:	ff 
    1d3e:	4d 89 f9             	mov    %r15,%r9
    1d41:	4d 89 f0             	mov    %r14,%r8
    1d44:	44 89 e1             	mov    %r12d,%ecx
    1d47:	89 95 7c fd ff ff    	mov    %edx,-0x284(%rbp)
    1d4d:	f3 0f 10 8d 7c fd ff 	movss  -0x284(%rbp),%xmm1
    1d54:	ff 
    1d55:	48 89 da             	mov    %rbx,%rdx
    1d58:	4c 89 de             	mov    %r11,%rsi
    1d5b:	4c 89 d7             	mov    %r10,%rdi
    1d5e:	89 85 7c fd ff ff    	mov    %eax,-0x284(%rbp)
    1d64:	f3 0f 10 85 7c fd ff 	movss  -0x284(%rbp),%xmm0
    1d6b:	ff 
    1d6c:	e8 d2 14 00 00       	callq  3243 <try_swap>
    1d71:	48 8b 15 00 00 00 00 	mov    0x0(%rip),%rdx        # 1d78 <try_place+0x1d78>
    1d78:	48 83 c2 01          	add    $0x1,%rdx
    1d7c:	48 89 15 00 00 00 00 	mov    %rdx,0x0(%rip)        # 1d83 <try_place+0x1d83>
    1d83:	83 f8 01             	cmp    $0x1,%eax
    1d86:	0f 85 ac 02 00 00    	jne    2038 <try_place+0x2038>
    1d8c:	48 8b 05 00 00 00 00 	mov    0x0(%rip),%rax        # 1d93 <try_place+0x1d93>
    1d93:	48 83 c0 01          	add    $0x1,%rax
    1d97:	48 89 05 00 00 00 00 	mov    %rax,0x0(%rip)        # 1d9e <try_place+0x1d9e>
    1d9e:	83 45 c4 01          	addl   $0x1,-0x3c(%rbp)
    1da2:	f3 0f 10 85 1c ff ff 	movss  -0xe4(%rbp),%xmm0
    1da9:	ff 
    1daa:	0f 14 c0             	unpcklps %xmm0,%xmm0
    1dad:	0f 5a c0             	cvtps2pd %xmm0,%xmm0
    1db0:	f2 0f 10 4d a0       	movsd  -0x60(%rbp),%xmm1
    1db5:	f2 0f 58 c1          	addsd  %xmm1,%xmm0
    1db9:	f2 0f 11 45 a0       	movsd  %xmm0,-0x60(%rbp)
    1dbe:	f3 0f 10 85 14 ff ff 	movss  -0xec(%rbp),%xmm0
    1dc5:	ff 
    1dc6:	0f 14 c0             	unpcklps %xmm0,%xmm0
    1dc9:	0f 5a c0             	cvtps2pd %xmm0,%xmm0
    1dcc:	f2 0f 10 4d 98       	movsd  -0x68(%rbp),%xmm1
    1dd1:	f2 0f 58 c1          	addsd  %xmm1,%xmm0
    1dd5:	f2 0f 11 45 98       	movsd  %xmm0,-0x68(%rbp)
    1dda:	f3 0f 10 85 0c ff ff 	movss  -0xf4(%rbp),%xmm0
    1de1:	ff 
    1de2:	0f 14 c0             	unpcklps %xmm0,%xmm0
    1de5:	0f 5a c0             	cvtps2pd %xmm0,%xmm0
    1de8:	f2 0f 10 4d 88       	movsd  -0x78(%rbp),%xmm1
    1ded:	f2 0f 58 c1          	addsd  %xmm1,%xmm0
    1df1:	f2 0f 11 45 88       	movsd  %xmm0,-0x78(%rbp)
    1df6:	f3 0f 10 85 18 ff ff 	movss  -0xe8(%rbp),%xmm0
    1dfd:	ff 
    1dfe:	0f 14 c0             	unpcklps %xmm0,%xmm0
    1e01:	0f 5a c0             	cvtps2pd %xmm0,%xmm0
    1e04:	f2 0f 10 4d 90       	movsd  -0x70(%rbp),%xmm1
    1e09:	f2 0f 58 c1          	addsd  %xmm1,%xmm0
    1e0d:	f2 0f 11 45 90       	movsd  %xmm0,-0x70(%rbp)
    1e12:	f3 0f 10 8d 1c ff ff 	movss  -0xe4(%rbp),%xmm1
    1e19:	ff 
    1e1a:	f3 0f 10 85 1c ff ff 	movss  -0xe4(%rbp),%xmm0
    1e21:	ff 
    1e22:	f3 0f 59 c1          	mulss  %xmm1,%xmm0
    1e26:	0f 14 c0             	unpcklps %xmm0,%xmm0
    1e29:	0f 5a c0             	cvtps2pd %xmm0,%xmm0
    1e2c:	f2 0f 10 4d 80       	movsd  -0x80(%rbp),%xmm1
    1e31:	f2 0f 58 c1          	addsd  %xmm1,%xmm0
    1e35:	f2 0f 11 45 80       	movsd  %xmm0,-0x80(%rbp)
    1e3a:	8b 45 10             	mov    0x10(%rbp),%eax
    1e3d:	83 f8 01             	cmp    $0x1,%eax
    1e40:	74 1e                	je     1e60 <try_place+0x1e60>
    1e42:	48 8b 05 00 00 00 00 	mov    0x0(%rip),%rax        # 1e49 <try_place+0x1e49>
    1e49:	48 83 c0 01          	add    $0x1,%rax
    1e4d:	48 89 05 00 00 00 00 	mov    %rax,0x0(%rip)        # 1e54 <try_place+0x1e54>
    1e54:	8b 45 10             	mov    0x10(%rbp),%eax
    1e57:	83 f8 02             	cmp    $0x2,%eax
    1e5a:	0f 85 d8 01 00 00    	jne    2038 <try_place+0x2038>
    1e60:	8b 85 68 ff ff ff    	mov    -0x98(%rbp),%eax
    1e66:	3b 85 64 ff ff ff    	cmp    -0x9c(%rbp),%eax
    1e6c:	0f 8c ad 01 00 00    	jl     201f <try_place+0x201f>
    1e72:	48 8b 05 00 00 00 00 	mov    0x0(%rip),%rax        # 1e79 <try_place+0x1e79>
    1e79:	48 83 c0 01          	add    $0x1,%rax
    1e7d:	48 89 05 00 00 00 00 	mov    %rax,0x0(%rip)        # 1e84 <try_place+0x1e84>
    1e84:	8b 45 c0             	mov    -0x40(%rbp),%eax
    1e87:	83 e8 01             	sub    $0x1,%eax
    1e8a:	3b 45 c8             	cmp    -0x38(%rbp),%eax
    1e8d:	0f 84 8c 01 00 00    	je     201f <try_place+0x201f>
    1e93:	48 8b 05 00 00 00 00 	mov    0x0(%rip),%rax        # 1e9a <try_place+0x1e9a>
    1e9a:	48 83 c0 01          	add    $0x1,%rax
    1e9e:	48 89 05 00 00 00 00 	mov    %rax,0x0(%rip)        # 1ea5 <try_place+0x1ea5>
    1ea5:	c7 85 68 ff ff ff 00 	movl   $0x0,-0x98(%rbp)
    1eac:	00 00 00 
    1eaf:	8b 45 10             	mov    0x10(%rbp),%eax
    1eb2:	83 f8 01             	cmp    $0x1,%eax
    1eb5:	75 63                	jne    1f1a <try_place+0x1f1a>
    1eb7:	48 8b 05 00 00 00 00 	mov    0x0(%rip),%rax        # 1ebe <try_place+0x1ebe>
    1ebe:	48 83 c0 01          	add    $0x1,%rax
    1ec2:	48 89 05 00 00 00 00 	mov    %rax,0x0(%rip)        # 1ec9 <try_place+0x1ec9>
    1ec9:	f3 0f 10 8d 0c ff ff 	movss  -0xf4(%rbp),%xmm1
    1ed0:	ff 
    1ed1:	f3 0f 2a 85 78 ff ff 	cvtsi2ssl -0x88(%rbp),%xmm0
    1ed8:	ff 
    1ed9:	0f 28 d1             	movaps %xmm1,%xmm2
    1edc:	f3 0f 5e d0          	divss  %xmm0,%xmm2
    1ee0:	0f 28 c2             	movaps %xmm2,%xmm0
    1ee3:	f3 0f 11 45 b4       	movss  %xmm0,-0x4c(%rbp)
    1ee8:	48 8b 95 b0 fd ff ff 	mov    -0x250(%rbp),%rdx
    1eef:	8b 45 b4             	mov    -0x4c(%rbp),%eax
    1ef2:	89 85 7c fd ff ff    	mov    %eax,-0x284(%rbp)
    1ef8:	f3 0f 10 85 7c fd ff 	movss  -0x284(%rbp),%xmm0
    1eff:	ff 
    1f00:	48 89 d7             	mov    %rdx,%rdi
    1f03:	e8 00 00 00 00       	callq  1f08 <try_place+0x1f08>
    1f08:	48 8b 05 00 00 00 00 	mov    0x0(%rip),%rax        # 1f0f <try_place+0x1f0f>
    1f0f:	48 83 c0 01          	add    $0x1,%rax
    1f13:	48 89 05 00 00 00 00 	mov    %rax,0x0(%rip)        # 1f1a <try_place+0x1f1a>
    1f1a:	48 8b 85 b0 fd ff ff 	mov    -0x250(%rbp),%rax
    1f21:	48 89 c7             	mov    %rax,%rdi
    1f24:	e8 00 00 00 00       	callq  1f29 <try_place+0x1f29>
    1f29:	48 8b 05 00 00 00 00 	mov    0x0(%rip),%rax        # 1f30 <try_place+0x1f30>
    1f30:	48 83 c0 01          	add    $0x1,%rax
    1f34:	48 89 05 00 00 00 00 	mov    %rax,0x0(%rip)        # 1f3b <try_place+0x1f3b>
    1f3b:	48 8b 85 b8 fd ff ff 	mov    -0x248(%rbp),%rax
    1f42:	0f 57 c0             	xorps  %xmm0,%xmm0
    1f45:	48 89 c7             	mov    %rax,%rdi
    1f48:	e8 00 00 00 00       	callq  1f4d <try_place+0x1f4d>
    1f4d:	f3 0f 11 85 7c fd ff 	movss  %xmm0,-0x284(%rbp)
    1f54:	ff 
    1f55:	8b 85 7c fd ff ff    	mov    -0x284(%rbp),%eax
    1f5b:	89 45 b8             	mov    %eax,-0x48(%rbp)
    1f5e:	48 8b 05 00 00 00 00 	mov    0x0(%rip),%rax        # 1f65 <try_place+0x1f65>
    1f65:	48 83 c0 01          	add    $0x1,%rax
    1f69:	48 89 05 00 00 00 00 	mov    %rax,0x0(%rip)        # 1f70 <try_place+0x1f70>
    1f70:	48 8b 8d b8 fd ff ff 	mov    -0x248(%rbp),%rcx
    1f77:	8b 95 60 ff ff ff    	mov    -0xa0(%rbp),%edx
    1f7d:	8b 45 b8             	mov    -0x48(%rbp),%eax
    1f80:	48 8b 75 10          	mov    0x10(%rbp),%rsi
    1f84:	48 89 34 24          	mov    %rsi,(%rsp)
    1f88:	48 8b 75 18          	mov    0x18(%rbp),%rsi
    1f8c:	48 89 74 24 08       	mov    %rsi,0x8(%rsp)
    1f91:	48 8b 75 20          	mov    0x20(%rbp),%rsi
    1f95:	48 89 74 24 10       	mov    %rsi,0x10(%rsp)
    1f9a:	48 8b 75 28          	mov    0x28(%rbp),%rsi
    1f9e:	48 89 74 24 18       	mov    %rsi,0x18(%rsp)
    1fa3:	48 8b 75 30          	mov    0x30(%rbp),%rsi
    1fa7:	48 89 74 24 20       	mov    %rsi,0x20(%rsp)
    1fac:	48 8b 75 38          	mov    0x38(%rbp),%rsi
    1fb0:	48 89 74 24 28       	mov    %rsi,0x28(%rsp)
    1fb5:	48 8b 75 40          	mov    0x40(%rbp),%rsi
    1fb9:	48 89 74 24 30       	mov    %rsi,0x30(%rsp)
    1fbe:	48 8b 75 48          	mov    0x48(%rbp),%rsi
    1fc2:	48 89 74 24 38       	mov    %rsi,0x38(%rsp)
    1fc7:	48 8b 75 50          	mov    0x50(%rbp),%rsi
    1fcb:	48 89 74 24 40       	mov    %rsi,0x40(%rsp)
    1fd0:	89 95 7c fd ff ff    	mov    %edx,-0x284(%rbp)
    1fd6:	f3 0f 10 8d 7c fd ff 	movss  -0x284(%rbp),%xmm1
    1fdd:	ff 
    1fde:	89 85 7c fd ff ff    	mov    %eax,-0x284(%rbp)
    1fe4:	f3 0f 10 85 7c fd ff 	movss  -0x284(%rbp),%xmm0
    1feb:	ff 
    1fec:	48 89 cf             	mov    %rcx,%rdi
    1fef:	e8 00 00 00 00       	callq  1ff4 <try_place+0x1ff4>
    1ff4:	48 8b 05 00 00 00 00 	mov    0x0(%rip),%rax        # 1ffb <try_place+0x1ffb>
    1ffb:	48 83 c0 01          	add    $0x1,%rax
    1fff:	48 89 05 00 00 00 00 	mov    %rax,0x0(%rip)        # 2006 <try_place+0x2006>
    2006:	48 8d 95 0c ff ff ff 	lea    -0xf4(%rbp),%rdx
    200d:	48 8d 85 18 ff ff ff 	lea    -0xe8(%rbp),%rax
    2014:	48 89 d6             	mov    %rdx,%rsi
    2017:	48 89 c7             	mov    %rax,%rdi
    201a:	e8 42 4c 00 00       	callq  6c61 <comp_td_costs>
    201f:	83 85 68 ff ff ff 01 	addl   $0x1,-0x98(%rbp)
    2026:	48 8b 05 00 00 00 00 	mov    0x0(%rip),%rax        # 202d <try_place+0x202d>
    202d:	48 83 c0 01          	add    $0x1,%rax
    2031:	48 89 05 00 00 00 00 	mov    %rax,0x0(%rip)        # 2038 <try_place+0x2038>
    2038:	83 45 c8 01          	addl   $0x1,-0x38(%rbp)
    203c:	48 8b 05 00 00 00 00 	mov    0x0(%rip),%rax        # 2043 <try_place+0x2043>
    2043:	48 83 c0 01          	add    $0x1,%rax
    2047:	48 89 05 00 00 00 00 	mov    %rax,0x0(%rip)        # 204e <try_place+0x204e>
    204e:	8b 45 c8             	mov    -0x38(%rbp),%eax
    2051:	3b 45 c0             	cmp    -0x40(%rbp),%eax
    2054:	0f 8c 35 fc ff ff    	jl     1c8f <try_place+0x1c8f>
    205a:	8b 45 c0             	mov    -0x40(%rbp),%eax
    205d:	01 45 cc             	add    %eax,-0x34(%rbp)
    2060:	f3 0f 2a 45 c4       	cvtsi2ssl -0x3c(%rbp),%xmm0
    2065:	f3 0f 2a 4d c0       	cvtsi2ssl -0x40(%rbp),%xmm1
    206a:	f3 0f 5e c1          	divss  %xmm1,%xmm0
    206e:	f3 0f 11 85 38 ff ff 	movss  %xmm0,-0xc8(%rbp)
    2075:	ff 
    2076:	83 7d c4 00          	cmpl   $0x0,-0x3c(%rbp)
    207a:	75 60                	jne    20dc <try_place+0x20dc>
    207c:	f3 0f 10 85 1c ff ff 	movss  -0xe4(%rbp),%xmm0
    2083:	ff 
    2084:	0f 14 c0             	unpcklps %xmm0,%xmm0
    2087:	0f 5a c0             	cvtps2pd %xmm0,%xmm0
    208a:	f2 0f 11 45 a0       	movsd  %xmm0,-0x60(%rbp)
    208f:	f3 0f 10 85 14 ff ff 	movss  -0xec(%rbp),%xmm0
    2096:	ff 
    2097:	0f 14 c0             	unpcklps %xmm0,%xmm0
    209a:	0f 5a c0             	cvtps2pd %xmm0,%xmm0
    209d:	f2 0f 11 45 98       	movsd  %xmm0,-0x68(%rbp)
    20a2:	f3 0f 10 85 0c ff ff 	movss  -0xf4(%rbp),%xmm0
    20a9:	ff 
    20aa:	0f 14 c0             	unpcklps %xmm0,%xmm0
    20ad:	0f 5a c0             	cvtps2pd %xmm0,%xmm0
    20b0:	f2 0f 11 45 88       	movsd  %xmm0,-0x78(%rbp)
    20b5:	f3 0f 10 85 18 ff ff 	movss  -0xe8(%rbp),%xmm0
    20bc:	ff 
    20bd:	0f 14 c0             	unpcklps %xmm0,%xmm0
    20c0:	0f 5a c0             	cvtps2pd %xmm0,%xmm0
    20c3:	f2 0f 11 45 90       	movsd  %xmm0,-0x70(%rbp)
    20c8:	48 8b 05 00 00 00 00 	mov    0x0(%rip),%rax        # 20cf <try_place+0x20cf>
    20cf:	48 83 c0 01          	add    $0x1,%rax
    20d3:	48 89 05 00 00 00 00 	mov    %rax,0x0(%rip)        # 20da <try_place+0x20da>
    20da:	eb 7e                	jmp    215a <try_place+0x215a>
    20dc:	f2 0f 2a 45 c4       	cvtsi2sdl -0x3c(%rbp),%xmm0
    20e1:	f2 0f 10 4d a0       	movsd  -0x60(%rbp),%xmm1
    20e6:	66 0f 28 d1          	movapd %xmm1,%xmm2
    20ea:	f2 0f 5e d0          	divsd  %xmm0,%xmm2
    20ee:	66 0f 28 c2          	movapd %xmm2,%xmm0
    20f2:	f2 0f 11 45 a0       	movsd  %xmm0,-0x60(%rbp)
    20f7:	f2 0f 2a 45 c4       	cvtsi2sdl -0x3c(%rbp),%xmm0
    20fc:	f2 0f 10 4d 98       	movsd  -0x68(%rbp),%xmm1
    2101:	66 0f 28 d1          	movapd %xmm1,%xmm2
    2105:	f2 0f 5e d0          	divsd  %xmm0,%xmm2
    2109:	66 0f 28 c2          	movapd %xmm2,%xmm0
    210d:	f2 0f 11 45 98       	movsd  %xmm0,-0x68(%rbp)
    2112:	f2 0f 2a 45 c4       	cvtsi2sdl -0x3c(%rbp),%xmm0
    2117:	f2 0f 10 4d 88       	movsd  -0x78(%rbp),%xmm1
    211c:	66 0f 28 d1          	movapd %xmm1,%xmm2
    2120:	f2 0f 5e d0          	divsd  %xmm0,%xmm2
    2124:	66 0f 28 c2          	movapd %xmm2,%xmm0
    2128:	f2 0f 11 45 88       	movsd  %xmm0,-0x78(%rbp)
    212d:	f2 0f 2a 45 c4       	cvtsi2sdl -0x3c(%rbp),%xmm0
    2132:	f2 0f 10 4d 90       	movsd  -0x70(%rbp),%xmm1
    2137:	66 0f 28 d1          	movapd %xmm1,%xmm2
    213b:	f2 0f 5e d0          	divsd  %xmm0,%xmm2
    213f:	66 0f 28 c2          	movapd %xmm2,%xmm0
    2143:	f2 0f 11 45 90       	movsd  %xmm0,-0x70(%rbp)
    2148:	48 8b 05 00 00 00 00 	mov    0x0(%rip),%rax        # 214f <try_place+0x214f>
    214f:	48 83 c0 01          	add    $0x1,%rax
    2153:	48 89 05 00 00 00 00 	mov    %rax,0x0(%rip)        # 215a <try_place+0x215a>
    215a:	48 8b 55 a0          	mov    -0x60(%rbp),%rdx
    215e:	48 8b 45 80          	mov    -0x80(%rbp),%rax
    2162:	8b 4d c4             	mov    -0x3c(%rbp),%ecx
    2165:	48 89 95 70 fd ff ff 	mov    %rdx,-0x290(%rbp)
    216c:	f2 0f 10 8d 70 fd ff 	movsd  -0x290(%rbp),%xmm1
    2173:	ff 
    2174:	48 89 85 70 fd ff ff 	mov    %rax,-0x290(%rbp)
    217b:	f2 0f 10 85 70 fd ff 	movsd  -0x290(%rbp),%xmm0
    2182:	ff 
    2183:	89 cf                	mov    %ecx,%edi
    2185:	e8 ae 09 00 00       	callq  2b38 <get_std_dev>
    218a:	f2 0f 11 85 70 fd ff 	movsd  %xmm0,-0x290(%rbp)
    2191:	ff 
    2192:	48 8b 85 70 fd ff ff 	mov    -0x290(%rbp),%rax
    2199:	48 89 85 30 ff ff ff 	mov    %rax,-0xd0(%rbp)
    21a0:	48 8b 05 00 00 00 00 	mov    0x0(%rip),%rax        # 21a7 <try_place+0x21a7>
    21a7:	48 83 c0 01          	add    $0x1,%rax
    21ab:	48 89 05 00 00 00 00 	mov    %rax,0x0(%rip)        # 21b2 <try_place+0x21b2>
    21b2:	f3 0f 10 ad 60 ff ff 	movss  -0xa0(%rbp),%xmm5
    21b9:	ff 
    21ba:	0f 5a ed             	cvtps2pd %xmm5,%xmm5
    21bd:	f3 0f 10 85 20 ff ff 	movss  -0xe0(%rbp),%xmm0
    21c4:	ff 
    21c5:	0f 14 c0             	unpcklps %xmm0,%xmm0
    21c8:	0f 5a e0             	cvtps2pd %xmm0,%xmm4
    21cb:	f3 0f 10 9d 38 ff ff 	movss  -0xc8(%rbp),%xmm3
    21d2:	ff 
    21d3:	0f 5a db             	cvtps2pd %xmm3,%xmm3
    21d6:	f3 0f 10 55 b8       	movss  -0x48(%rbp),%xmm2
    21db:	0f 5a d2             	cvtps2pd %xmm2,%xmm2
    21de:	f3 0f 10 4d b4       	movss  -0x4c(%rbp),%xmm1
    21e3:	0f 5a c9             	cvtps2pd %xmm1,%xmm1
    21e6:	f3 0f 10 85 24 ff ff 	movss  -0xdc(%rbp),%xmm0
    21ed:	ff 
    21ee:	0f 14 c0             	unpcklps %xmm0,%xmm0
    21f1:	0f 5a c0             	cvtps2pd %xmm0,%xmm0
    21f4:	44 8b 45 cc          	mov    -0x34(%rbp),%r8d
    21f8:	48 8b 7d 88          	mov    -0x78(%rbp),%rdi
    21fc:	48 8b 4d 90          	mov    -0x70(%rbp),%rcx
    2200:	48 8b 55 98          	mov    -0x68(%rbp),%rdx
    2204:	48 8b 45 a0          	mov    -0x60(%rbp),%rax
    2208:	f2 0f 11 6c 24 10    	movsd  %xmm5,0x10(%rsp)
    220e:	f2 0f 11 64 24 08    	movsd  %xmm4,0x8(%rsp)
    2214:	48 8b b5 30 ff ff ff 	mov    -0xd0(%rbp),%rsi
    221b:	48 89 34 24          	mov    %rsi,(%rsp)
    221f:	44 89 c6             	mov    %r8d,%esi
    2222:	66 0f 28 fb          	movapd %xmm3,%xmm7
    2226:	66 0f 28 f2          	movapd %xmm2,%xmm6
    222a:	66 0f 28 e9          	movapd %xmm1,%xmm5
    222e:	48 89 bd 70 fd ff ff 	mov    %rdi,-0x290(%rbp)
    2235:	f2 0f 10 a5 70 fd ff 	movsd  -0x290(%rbp),%xmm4
    223c:	ff 
    223d:	48 89 8d 70 fd ff ff 	mov    %rcx,-0x290(%rbp)
    2244:	f2 0f 10 9d 70 fd ff 	movsd  -0x290(%rbp),%xmm3
    224b:	ff 
    224c:	48 89 95 70 fd ff ff 	mov    %rdx,-0x290(%rbp)
    2253:	f2 0f 10 95 70 fd ff 	movsd  -0x290(%rbp),%xmm2
    225a:	ff 
    225b:	48 89 85 70 fd ff ff 	mov    %rax,-0x290(%rbp)
    2262:	f2 0f 10 8d 70 fd ff 	movsd  -0x290(%rbp),%xmm1
    2269:	ff 
    226a:	bf 00 00 00 00       	mov    $0x0,%edi
    226f:	b8 08 00 00 00       	mov    $0x8,%eax
    2274:	e8 00 00 00 00       	callq  2279 <try_place+0x2279>
    2279:	48 8b 05 00 00 00 00 	mov    0x0(%rip),%rax        # 2280 <try_place+0x2280>
    2280:	48 83 c0 01          	add    $0x1,%rax
    2284:	48 89 05 00 00 00 00 	mov    %rax,0x0(%rip)        # 228b <try_place+0x228b>
    228b:	8b 95 0c ff ff ff    	mov    -0xf4(%rbp),%edx
    2291:	44 8b 45 10          	mov    0x10(%rbp),%r8d
    2295:	8b 75 3c             	mov    0x3c(%rbp),%esi
    2298:	8b 45 1c             	mov    0x1c(%rbp),%eax
    229b:	89 c7                	mov    %eax,%edi
    229d:	8b 8d 18 ff ff ff    	mov    -0xe8(%rbp),%ecx
    22a3:	8b 85 14 ff ff ff    	mov    -0xec(%rbp),%eax
    22a9:	89 95 7c fd ff ff    	mov    %edx,-0x284(%rbp)
    22af:	f3 0f 10 95 7c fd ff 	movss  -0x284(%rbp),%xmm2
    22b6:	ff 
    22b7:	44 89 c2             	mov    %r8d,%edx
    22ba:	89 8d 7c fd ff ff    	mov    %ecx,-0x284(%rbp)
    22c0:	f3 0f 10 8d 7c fd ff 	movss  -0x284(%rbp),%xmm1
    22c7:	ff 
    22c8:	89 85 7c fd ff ff    	mov    %eax,-0x284(%rbp)
    22ce:	f3 0f 10 85 7c fd ff 	movss  -0x284(%rbp),%xmm0
    22d5:	ff 
    22d6:	e8 ce 98 00 00       	callq  bba9 <check_place>
    22db:	48 8b 05 00 00 00 00 	mov    0x0(%rip),%rax        # 22e2 <try_place+0x22e2>
    22e2:	48 83 c0 01          	add    $0x1,%rax
    22e6:	48 89 05 00 00 00 00 	mov    %rax,0x0(%rip)        # 22ed <try_place+0x22ed>
    22ed:	8b 45 44             	mov    0x44(%rbp),%eax
    22f0:	85 c0                	test   %eax,%eax
    22f2:	0f 84 05 01 00 00    	je     23fd <try_place+0x23fd>
    22f8:	48 8b 05 00 00 00 00 	mov    0x0(%rip),%rax        # 22ff <try_place+0x22ff>
    22ff:	48 83 c0 01          	add    $0x1,%rax
    2303:	48 89 05 00 00 00 00 	mov    %rax,0x0(%rip)        # 230a <try_place+0x230a>
    230a:	8b 45 10             	mov    0x10(%rbp),%eax
    230d:	85 c0                	test   %eax,%eax
    230f:	0f 85 e8 00 00 00    	jne    23fd <try_place+0x23fd>
    2315:	c7 85 74 ff ff ff 00 	movl   $0x0,-0x8c(%rbp)
    231c:	00 00 00 
    231f:	e9 9c 00 00 00       	jmpq   23c0 <try_place+0x23c0>
    2324:	48 8b 05 00 00 00 00 	mov    0x0(%rip),%rax        # 232b <try_place+0x232b>
    232b:	48 83 c0 01          	add    $0x1,%rax
    232f:	48 89 05 00 00 00 00 	mov    %rax,0x0(%rip)        # 2336 <try_place+0x2336>
    2336:	c7 85 70 ff ff ff 01 	movl   $0x1,-0x90(%rbp)
    233d:	00 00 00 
    2340:	eb 4b                	jmp    238d <try_place+0x238d>
    2342:	48 8b 05 00 00 00 00 	mov    0x0(%rip),%rax        # 2349 <try_place+0x2349>
    2349:	48 83 c0 01          	add    $0x1,%rax
    234d:	48 89 05 00 00 00 00 	mov    %rax,0x0(%rip)        # 2354 <try_place+0x2354>
    2354:	48 8b 05 00 00 00 00 	mov    0x0(%rip),%rax        # 235b <try_place+0x235b>
    235b:	8b 95 74 ff ff ff    	mov    -0x8c(%rbp),%edx
    2361:	48 63 d2             	movslq %edx,%rdx
    2364:	48 c1 e2 03          	shl    $0x3,%rdx
    2368:	48 01 d0             	add    %rdx,%rax
    236b:	48 8b 00             	mov    (%rax),%rax
    236e:	8b 95 70 ff ff ff    	mov    -0x90(%rbp),%edx
    2374:	48 63 d2             	movslq %edx,%rdx
    2377:	48 c1 e2 02          	shl    $0x2,%rdx
    237b:	48 01 c2             	add    %rax,%rdx
    237e:	8b 05 00 00 00 00    	mov    0x0(%rip),%eax        # 2384 <try_place+0x2384>
    2384:	89 02                	mov    %eax,(%rdx)
    2386:	83 85 70 ff ff ff 01 	addl   $0x1,-0x90(%rbp)
    238d:	48 8b 0d 00 00 00 00 	mov    0x0(%rip),%rcx        # 2394 <try_place+0x2394>
    2394:	8b 85 74 ff ff ff    	mov    -0x8c(%rbp),%eax
    239a:	48 63 d0             	movslq %eax,%rdx
    239d:	48 89 d0             	mov    %rdx,%rax
    23a0:	48 c1 e0 02          	shl    $0x2,%rax
    23a4:	48 01 d0             	add    %rdx,%rax
    23a7:	48 c1 e0 03          	shl    $0x3,%rax
    23ab:	48 01 c8             	add    %rcx,%rax
    23ae:	8b 40 08             	mov    0x8(%rax),%eax
    23b1:	3b 85 70 ff ff ff    	cmp    -0x90(%rbp),%eax
    23b7:	7d 89                	jge    2342 <try_place+0x2342>
    23b9:	83 85 74 ff ff ff 01 	addl   $0x1,-0x8c(%rbp)
    23c0:	8b 05 00 00 00 00    	mov    0x0(%rip),%eax        # 23c6 <try_place+0x23c6>
    23c6:	39 85 74 ff ff ff    	cmp    %eax,-0x8c(%rbp)
    23cc:	0f 8c 52 ff ff ff    	jl     2324 <try_place+0x2324>
    23d2:	48 8b 05 00 00 00 00 	mov    0x0(%rip),%rax        # 23d9 <try_place+0x23d9>
    23d9:	48 83 c0 01          	add    $0x1,%rax
    23dd:	48 89 05 00 00 00 00 	mov    %rax,0x0(%rip)        # 23e4 <try_place+0x23e4>
    23e4:	48 8d 95 0c ff ff ff 	lea    -0xf4(%rbp),%rdx
    23eb:	48 8d 85 18 ff ff ff 	lea    -0xe8(%rbp),%rax
    23f2:	48 89 d6             	mov    %rdx,%rsi
    23f5:	48 89 c7             	mov    %rax,%rdi
    23f8:	e8 64 48 00 00       	callq  6c61 <comp_td_costs>
    23fd:	8b 45 10             	mov    0x10(%rbp),%eax
    2400:	83 f8 01             	cmp    $0x1,%eax
    2403:	75 14                	jne    2419 <try_place+0x2419>
    2405:	48 8b 05 00 00 00 00 	mov    0x0(%rip),%rax        # 240c <try_place+0x240c>
    240c:	48 83 c0 01          	add    $0x1,%rax
    2410:	48 89 05 00 00 00 00 	mov    %rax,0x0(%rip)        # 2417 <try_place+0x2417>
    2417:	eb 4a                	jmp    2463 <try_place+0x2463>
    2419:	48 8b 05 00 00 00 00 	mov    0x0(%rip),%rax        # 2420 <try_place+0x2420>
    2420:	48 83 c0 01          	add    $0x1,%rax
    2424:	48 89 05 00 00 00 00 	mov    %rax,0x0(%rip)        # 242b <try_place+0x242b>
    242b:	8b 45 10             	mov    0x10(%rbp),%eax
    242e:	83 f8 02             	cmp    $0x2,%eax
    2431:	74 30                	je     2463 <try_place+0x2463>
    2433:	48 8b 05 00 00 00 00 	mov    0x0(%rip),%rax        # 243a <try_place+0x243a>
    243a:	48 83 c0 01          	add    $0x1,%rax
    243e:	48 89 05 00 00 00 00 	mov    %rax,0x0(%rip)        # 2445 <try_place+0x2445>
    2445:	8b 45 44             	mov    0x44(%rbp),%eax
    2448:	85 c0                	test   %eax,%eax
    244a:	75 17                	jne    2463 <try_place+0x2463>
    244c:	48 8b 05 00 00 00 00 	mov    0x0(%rip),%rax        # 2453 <try_place+0x2453>
    2453:	48 83 c0 01          	add    $0x1,%rax
    2457:	48 89 05 00 00 00 00 	mov    %rax,0x0(%rip)        # 245e <try_place+0x245e>
    245e:	e9 93 00 00 00       	jmpq   24f6 <try_place+0x24f6>
    2463:	48 8b 05 00 00 00 00 	mov    0x0(%rip),%rax        # 246a <try_place+0x246a>
    246a:	48 89 85 b0 fd ff ff 	mov    %rax,-0x250(%rbp)
    2471:	48 8b 85 b0 fd ff ff 	mov    -0x250(%rbp),%rax
    2478:	48 89 c7             	mov    %rax,%rdi
    247b:	e8 00 00 00 00       	callq  2480 <try_place+0x2480>
    2480:	48 8b 05 00 00 00 00 	mov    0x0(%rip),%rax        # 2487 <try_place+0x2487>
    2487:	48 83 c0 01          	add    $0x1,%rax
    248b:	48 89 05 00 00 00 00 	mov    %rax,0x0(%rip)        # 2492 <try_place+0x2492>
    2492:	48 8b 85 b8 fd ff ff 	mov    -0x248(%rbp),%rax
    2499:	0f 57 c0             	xorps  %xmm0,%xmm0
    249c:	48 89 c7             	mov    %rax,%rdi
    249f:	e8 00 00 00 00       	callq  24a4 <try_place+0x24a4>
    24a4:	f3 0f 11 85 7c fd ff 	movss  %xmm0,-0x284(%rbp)
    24ab:	ff 
    24ac:	8b 85 7c fd ff ff    	mov    -0x284(%rbp),%eax
    24b2:	89 85 28 ff ff ff    	mov    %eax,-0xd8(%rbp)
    24b8:	48 8b 05 00 00 00 00 	mov    0x0(%rip),%rax        # 24bf <try_place+0x24bf>
    24bf:	48 83 c0 01          	add    $0x1,%rax
    24c3:	48 89 05 00 00 00 00 	mov    %rax,0x0(%rip)        # 24ca <try_place+0x24ca>
    24ca:	f3 0f 10 85 28 ff ff 	movss  -0xd8(%rbp),%xmm0
    24d1:	ff 
    24d2:	0f 5a c0             	cvtps2pd %xmm0,%xmm0
    24d5:	bf 00 00 00 00       	mov    $0x0,%edi
    24da:	b8 01 00 00 00       	mov    $0x1,%eax
    24df:	e8 00 00 00 00       	callq  24e4 <try_place+0x24e4>
    24e4:	48 8b 05 00 00 00 00 	mov    0x0(%rip),%rax        # 24eb <try_place+0x24eb>
    24eb:	48 83 c0 01          	add    $0x1,%rax
    24ef:	48 89 05 00 00 00 00 	mov    %rax,0x0(%rip)        # 24f6 <try_place+0x24f6>
    24f6:	f3 0f 10 5d b8       	movss  -0x48(%rbp),%xmm3
    24fb:	0f 5a db             	cvtps2pd %xmm3,%xmm3
    24fe:	f3 0f 10 85 18 ff ff 	movss  -0xe8(%rbp),%xmm0
    2505:	ff 
    2506:	0f 14 c0             	unpcklps %xmm0,%xmm0
    2509:	0f 5a d0             	cvtps2pd %xmm0,%xmm2
    250c:	f3 0f 10 85 14 ff ff 	movss  -0xec(%rbp),%xmm0
    2513:	ff 
    2514:	0f 14 c0             	unpcklps %xmm0,%xmm0
    2517:	0f 5a c8             	cvtps2pd %xmm0,%xmm1
    251a:	f3 0f 10 85 1c ff ff 	movss  -0xe4(%rbp),%xmm0
    2521:	ff 
    2522:	0f 14 c0             	unpcklps %xmm0,%xmm0
    2525:	0f 5a c0             	cvtps2pd %xmm0,%xmm0
    2528:	8b 95 4c ff ff ff    	mov    -0xb4(%rbp),%edx
    252e:	48 8d 85 c0 fd ff ff 	lea    -0x240(%rbp),%rax
    2535:	be 00 00 00 00       	mov    $0x0,%esi
    253a:	48 89 c7             	mov    %rax,%rdi
    253d:	b8 04 00 00 00       	mov    $0x4,%eax
    2542:	e8 00 00 00 00       	callq  2547 <try_place+0x2547>
    2547:	f3 0f 10 85 0c ff ff 	movss  -0xf4(%rbp),%xmm0
    254e:	ff 
    254f:	0f 14 c0             	unpcklps %xmm0,%xmm0
    2552:	0f 5a d8             	cvtps2pd %xmm0,%xmm3
    2555:	f3 0f 10 85 18 ff ff 	movss  -0xe8(%rbp),%xmm0
    255c:	ff 
    255d:	0f 14 c0             	unpcklps %xmm0,%xmm0
    2560:	0f 5a d0             	cvtps2pd %xmm0,%xmm2
    2563:	f3 0f 10 85 14 ff ff 	movss  -0xec(%rbp),%xmm0
    256a:	ff 
    256b:	0f 14 c0             	unpcklps %xmm0,%xmm0
    256e:	0f 5a c8             	cvtps2pd %xmm0,%xmm1
    2571:	f3 0f 10 85 1c ff ff 	movss  -0xe4(%rbp),%xmm0
    2578:	ff 
    2579:	0f 14 c0             	unpcklps %xmm0,%xmm0
    257c:	0f 5a c0             	cvtps2pd %xmm0,%xmm0
    257f:	bf 00 00 00 00       	mov    $0x0,%edi
    2584:	b8 04 00 00 00       	mov    $0x4,%eax
    2589:	e8 00 00 00 00       	callq  258e <try_place+0x258e>
    258e:	48 8b 05 00 00 00 00 	mov    0x0(%rip),%rax        # 2595 <try_place+0x2595>
    2595:	48 83 c0 01          	add    $0x1,%rax
    2599:	48 89 05 00 00 00 00 	mov    %rax,0x0(%rip)        # 25a0 <try_place+0x25a0>
    25a0:	48 8d 85 c0 fd ff ff 	lea    -0x240(%rbp),%rax
    25a7:	b9 00 00 00 00       	mov    $0x0,%ecx
    25ac:	ba 01 00 00 00       	mov    $0x1,%edx
    25b1:	48 89 c6             	mov    %rax,%rsi
    25b4:	bf 01 00 00 00       	mov    $0x1,%edi
    25b9:	e8 00 00 00 00       	callq  25be <try_place+0x25be>
    25be:	48 8b 05 00 00 00 00 	mov    0x0(%rip),%rax        # 25c5 <try_place+0x25c5>
    25c5:	48 83 c0 01          	add    $0x1,%rax
    25c9:	48 89 05 00 00 00 00 	mov    %rax,0x0(%rip)        # 25d0 <try_place+0x25d0>
    25d0:	8b 45 10             	mov    0x10(%rbp),%eax
    25d3:	83 f8 01             	cmp    $0x1,%eax
    25d6:	74 37                	je     260f <try_place+0x260f>
    25d8:	48 8b 05 00 00 00 00 	mov    0x0(%rip),%rax        # 25df <try_place+0x25df>
    25df:	48 83 c0 01          	add    $0x1,%rax
    25e3:	48 89 05 00 00 00 00 	mov    %rax,0x0(%rip)        # 25ea <try_place+0x25ea>
    25ea:	8b 45 10             	mov    0x10(%rbp),%eax
    25ed:	83 f8 02             	cmp    $0x2,%eax
    25f0:	74 1d                	je     260f <try_place+0x260f>
    25f2:	48 8b 05 00 00 00 00 	mov    0x0(%rip),%rax        # 25f9 <try_place+0x25f9>
    25f9:	48 83 c0 01          	add    $0x1,%rax
    25fd:	48 89 05 00 00 00 00 	mov    %rax,0x0(%rip)        # 2604 <try_place+0x2604>
    2604:	8b 45 44             	mov    0x44(%rbp),%eax
    2607:	85 c0                	test   %eax,%eax
    2609:	0f 84 b6 00 00 00    	je     26c5 <try_place+0x26c5>
    260f:	48 8b 85 58 ff ff ff 	mov    -0xa8(%rbp),%rax
    2616:	48 89 85 b0 fd ff ff 	mov    %rax,-0x250(%rbp)
    261d:	48 8b 8d f8 fe ff ff 	mov    -0x108(%rbp),%rcx
    2624:	48 8b 95 00 ff ff ff 	mov    -0x100(%rbp),%rdx
    262b:	8b 75 3c             	mov    0x3c(%rbp),%esi
    262e:	8b 45 1c             	mov    0x1c(%rbp),%eax
    2631:	48 8b 7d 10          	mov    0x10(%rbp),%rdi
    2635:	48 89 3c 24          	mov    %rdi,(%rsp)
    2639:	48 8b 7d 18          	mov    0x18(%rbp),%rdi
    263d:	48 89 7c 24 08       	mov    %rdi,0x8(%rsp)
    2642:	48 8b 7d 20          	mov    0x20(%rbp),%rdi
    2646:	48 89 7c 24 10       	mov    %rdi,0x10(%rsp)
    264b:	48 8b 7d 28          	mov    0x28(%rbp),%rdi
    264f:	48 89 7c 24 18       	mov    %rdi,0x18(%rsp)
    2654:	48 8b 7d 30          	mov    0x30(%rbp),%rdi
    2658:	48 89 7c 24 20       	mov    %rdi,0x20(%rsp)
    265d:	48 8b 7d 38          	mov    0x38(%rbp),%rdi
    2661:	48 89 7c 24 28       	mov    %rdi,0x28(%rsp)
    2666:	48 8b 7d 40          	mov    0x40(%rbp),%rdi
    266a:	48 89 7c 24 30       	mov    %rdi,0x30(%rsp)
    266f:	48 8b 7d 48          	mov    0x48(%rbp),%rdi
    2673:	48 89 7c 24 38       	mov    %rdi,0x38(%rsp)
    2678:	48 8b 7d 50          	mov    0x50(%rbp),%rdi
    267c:	48 89 7c 24 40       	mov    %rdi,0x40(%rsp)
    2681:	89 c7                	mov    %eax,%edi
    2683:	e8 c7 55 00 00       	callq  7c4f <free_placement_structs>
    2688:	48 8b 05 00 00 00 00 	mov    0x0(%rip),%rax        # 268f <try_place+0x268f>
    268f:	48 83 c0 01          	add    $0x1,%rax
    2693:	48 89 05 00 00 00 00 	mov    %rax,0x0(%rip)        # 269a <try_place+0x269a>
    269a:	48 8d 95 b8 fd ff ff 	lea    -0x248(%rbp),%rdx
    26a1:	48 8d 85 b0 fd ff ff 	lea    -0x250(%rbp),%rax
    26a8:	48 89 d6             	mov    %rdx,%rsi
    26ab:	48 89 c7             	mov    %rax,%rdi
    26ae:	e8 00 00 00 00       	callq  26b3 <try_place+0x26b3>
    26b3:	48 8b 05 00 00 00 00 	mov    0x0(%rip),%rax        # 26ba <try_place+0x26ba>
    26ba:	48 83 c0 01          	add    $0x1,%rax
    26be:	48 89 05 00 00 00 00 	mov    %rax,0x0(%rip)        # 26c5 <try_place+0x26c5>
    26c5:	48 8b 85 88 fd ff ff 	mov    -0x278(%rbp),%rax
    26cc:	48 8b 00             	mov    (%rax),%rax
    26cf:	48 85 c0             	test   %rax,%rax
    26d2:	75 17                	jne    26eb <try_place+0x26eb>
    26d4:	48 8b 05 00 00 00 00 	mov    0x0(%rip),%rax        # 26db <try_place+0x26db>
    26db:	48 83 c0 01          	add    $0x1,%rax
    26df:	48 89 05 00 00 00 00 	mov    %rax,0x0(%rip)        # 26e6 <try_place+0x26e6>
    26e6:	e9 d0 00 00 00       	jmpq   27bb <try_place+0x27bb>
    26eb:	c7 85 74 ff ff ff 00 	movl   $0x0,-0x8c(%rbp)
    26f2:	00 00 00 
    26f5:	e9 8b 00 00 00       	jmpq   2785 <try_place+0x2785>
    26fa:	48 8b 05 00 00 00 00 	mov    0x0(%rip),%rax        # 2701 <try_place+0x2701>
    2701:	48 83 c0 01          	add    $0x1,%rax
    2705:	48 89 05 00 00 00 00 	mov    %rax,0x0(%rip)        # 270c <try_place+0x270c>
    270c:	48 8b 85 88 fd ff ff 	mov    -0x278(%rbp),%rax
    2713:	48 8b 00             	mov    (%rax),%rax
    2716:	8b 95 74 ff ff ff    	mov    -0x8c(%rbp),%edx
    271c:	48 63 d2             	movslq %edx,%rdx
    271f:	48 c1 e2 03          	shl    $0x3,%rdx
    2723:	48 01 d0             	add    %rdx,%rax
    2726:	48 8b 00             	mov    (%rax),%rax
    2729:	48 85 c0             	test   %rax,%rax
    272c:	75 19                	jne    2747 <try_place+0x2747>
    272e:	b9 00 00 00 00       	mov    $0x0,%ecx
    2733:	ba c2 03 00 00       	mov    $0x3c2,%edx
    2738:	be 00 00 00 00       	mov    $0x0,%esi
    273d:	bf 00 00 00 00       	mov    $0x0,%edi
    2742:	e8 00 00 00 00       	callq  2747 <try_place+0x2747>
    2747:	48 8b 85 88 fd ff ff 	mov    -0x278(%rbp),%rax
    274e:	48 8b 00             	mov    (%rax),%rax
    2751:	8b 95 74 ff ff ff    	mov    -0x8c(%rbp),%edx
    2757:	48 63 d2             	movslq %edx,%rdx
    275a:	48 c1 e2 03          	shl    $0x3,%rdx
    275e:	48 01 d0             	add    %rdx,%rax
    2761:	48 8b 00             	mov    (%rax),%rax
    2764:	48 89 c7             	mov    %rax,%rdi
    2767:	e8 00 00 00 00       	callq  276c <try_place+0x276c>
    276c:	83 85 74 ff ff ff 01 	addl   $0x1,-0x8c(%rbp)
    2773:	48 8b 05 00 00 00 00 	mov    0x0(%rip),%rax        # 277a <try_place+0x277a>
    277a:	48 83 c0 01          	add    $0x1,%rax
    277e:	48 89 05 00 00 00 00 	mov    %rax,0x0(%rip)        # 2785 <try_place+0x2785>
    2785:	8b 05 00 00 00 00    	mov    0x0(%rip),%eax        # 278b <try_place+0x278b>
    278b:	39 85 74 ff ff ff    	cmp    %eax,-0x8c(%rbp)
    2791:	0f 8c 63 ff ff ff    	jl     26fa <try_place+0x26fa>
    2797:	48 8b 85 88 fd ff ff 	mov    -0x278(%rbp),%rax
    279e:	48 8b 00             	mov    (%rax),%rax
    27a1:	48 89 c7             	mov    %rax,%rdi
    27a4:	e8 00 00 00 00       	callq  27a9 <try_place+0x27a9>
    27a9:	48 8b 05 00 00 00 00 	mov    0x0(%rip),%rax        # 27b0 <try_place+0x27b0>
    27b0:	48 83 c0 01          	add    $0x1,%rax
    27b4:	48 89 05 00 00 00 00 	mov    %rax,0x0(%rip)        # 27bb <try_place+0x27bb>
    27bb:	8b 05 00 00 00 00    	mov    0x0(%rip),%eax        # 27c1 <try_place+0x27c1>
    27c1:	48 98                	cltq   
    27c3:	48 c1 e0 03          	shl    $0x3,%rax
    27c7:	48 89 c7             	mov    %rax,%rdi
    27ca:	e8 00 00 00 00       	callq  27cf <try_place+0x27cf>
    27cf:	48 8b 95 88 fd ff ff 	mov    -0x278(%rbp),%rdx
    27d6:	48 89 02             	mov    %rax,(%rdx)
    27d9:	c7 85 74 ff ff ff 00 	movl   $0x0,-0x8c(%rbp)
    27e0:	00 00 00 
    27e3:	eb 56                	jmp    283b <try_place+0x283b>
    27e5:	48 8b 05 00 00 00 00 	mov    0x0(%rip),%rax        # 27ec <try_place+0x27ec>
    27ec:	48 83 c0 01          	add    $0x1,%rax
    27f0:	48 89 05 00 00 00 00 	mov    %rax,0x0(%rip)        # 27f7 <try_place+0x27f7>
    27f7:	48 8b 85 88 fd ff ff 	mov    -0x278(%rbp),%rax
    27fe:	48 8b 00             	mov    (%rax),%rax
    2801:	8b 95 74 ff ff ff    	mov    -0x8c(%rbp),%edx
    2807:	48 63 d2             	movslq %edx,%rdx
    280a:	48 c1 e2 03          	shl    $0x3,%rdx
    280e:	48 8d 1c 10          	lea    (%rax,%rdx,1),%rbx
    2812:	8b 85 74 ff ff ff    	mov    -0x8c(%rbp),%eax
    2818:	89 c7                	mov    %eax,%edi
    281a:	e8 00 00 00 00       	callq  281f <try_place+0x281f>
    281f:	48 89 03             	mov    %rax,(%rbx)
    2822:	83 85 74 ff ff ff 01 	addl   $0x1,-0x8c(%rbp)
    2829:	48 8b 05 00 00 00 00 	mov    0x0(%rip),%rax        # 2830 <try_place+0x2830>
    2830:	48 83 c0 01          	add    $0x1,%rax
    2834:	48 89 05 00 00 00 00 	mov    %rax,0x0(%rip)        # 283b <try_place+0x283b>
    283b:	8b 05 00 00 00 00    	mov    0x0(%rip),%eax        # 2841 <try_place+0x2841>
    2841:	39 85 74 ff ff ff    	cmp    %eax,-0x8c(%rbp)
    2847:	7c 9c                	jl     27e5 <try_place+0x27e5>
    2849:	48 8b 05 00 00 00 00 	mov    0x0(%rip),%rax        # 2850 <try_place+0x2850>
    2850:	48 83 c0 01          	add    $0x1,%rax
    2854:	48 89 05 00 00 00 00 	mov    %rax,0x0(%rip)        # 285b <try_place+0x285b>
    285b:	48 8b 85 50 ff ff ff 	mov    -0xb0(%rbp),%rax
    2862:	48 89 c7             	mov    %rax,%rdi
    2865:	e8 00 00 00 00       	callq  286a <try_place+0x286a>
    286a:	48 81 c4 18 03 00 00 	add    $0x318,%rsp
    2871:	5b                   	pop    %rbx
    2872:	41 5c                	pop    %r12
    2874:	41 5d                	pop    %r13
    2876:	41 5e                	pop    %r14
    2878:	41 5f                	pop    %r15
    287a:	5d                   	pop    %rbp
    287b:	c3                   	retq   

000000000000287c <count_connections>:
    287c:	55                   	push   %rbp
    287d:	48 89 e5             	mov    %rsp,%rbp
    2880:	48 83 ec 10          	sub    $0x10,%rsp
    2884:	c7 45 fc 00 00 00 00 	movl   $0x0,-0x4(%rbp)
    288b:	c7 45 f8 00 00 00 00 	movl   $0x0,-0x8(%rbp)
    2892:	eb 74                	jmp    2908 <count_connections+0x8c>
    2894:	48 8b 05 00 00 00 00 	mov    0x0(%rip),%rax        # 289b <count_connections+0x1f>
    289b:	48 83 c0 01          	add    $0x1,%rax
    289f:	48 89 05 00 00 00 00 	mov    %rax,0x0(%rip)        # 28a6 <count_connections+0x2a>
    28a6:	48 8b 0d 00 00 00 00 	mov    0x0(%rip),%rcx        # 28ad <count_connections+0x31>
    28ad:	8b 45 f8             	mov    -0x8(%rbp),%eax
    28b0:	48 63 d0             	movslq %eax,%rdx
    28b3:	48 89 d0             	mov    %rdx,%rax
    28b6:	48 c1 e0 02          	shl    $0x2,%rax
    28ba:	48 01 d0             	add    %rdx,%rax
    28bd:	48 c1 e0 03          	shl    $0x3,%rax
    28c1:	48 01 c8             	add    %rcx,%rax
    28c4:	8b 40 20             	mov    0x20(%rax),%eax
    28c7:	85 c0                	test   %eax,%eax
    28c9:	75 38                	jne    2903 <count_connections+0x87>
    28cb:	48 8b 0d 00 00 00 00 	mov    0x0(%rip),%rcx        # 28d2 <count_connections+0x56>
    28d2:	8b 45 f8             	mov    -0x8(%rbp),%eax
    28d5:	48 63 d0             	movslq %eax,%rdx
    28d8:	48 89 d0             	mov    %rdx,%rax
    28db:	48 c1 e0 02          	shl    $0x2,%rax
    28df:	48 01 d0             	add    %rdx,%rax
    28e2:	48 c1 e0 03          	shl    $0x3,%rax
    28e6:	48 01 c8             	add    %rcx,%rax
    28e9:	8b 40 08             	mov    0x8(%rax),%eax
    28ec:	01 45 fc             	add    %eax,-0x4(%rbp)
    28ef:	48 8b 05 00 00 00 00 	mov    0x0(%rip),%rax        # 28f6 <count_connections+0x7a>
    28f6:	48 83 c0 01          	add    $0x1,%rax
    28fa:	48 89 05 00 00 00 00 	mov    %rax,0x0(%rip)        # 2901 <count_connections+0x85>
    2901:	eb 01                	jmp    2904 <count_connections+0x88>
    2903:	90                   	nop
    2904:	83 45 f8 01          	addl   $0x1,-0x8(%rbp)
    2908:	8b 05 00 00 00 00    	mov    0x0(%rip),%eax        # 290e <count_connections+0x92>
    290e:	39 45 f8             	cmp    %eax,-0x8(%rbp)
    2911:	7c 81                	jl     2894 <count_connections+0x18>
    2913:	8b 45 fc             	mov    -0x4(%rbp),%eax
    2916:	48 8b 15 00 00 00 00 	mov    0x0(%rip),%rdx        # 291d <count_connections+0xa1>
    291d:	48 83 c2 01          	add    $0x1,%rdx
    2921:	48 89 15 00 00 00 00 	mov    %rdx,0x0(%rip)        # 2928 <count_connections+0xac>
    2928:	c9                   	leaveq 
    2929:	c3                   	retq   

000000000000292a <compute_net_pin_index_values>:
    292a:	55                   	push   %rbp
    292b:	48 89 e5             	mov    %rsp,%rbp
    292e:	48 83 ec 20          	sub    $0x20,%rsp
    2932:	c7 45 f4 00 00 00 00 	movl   $0x0,-0xc(%rbp)
    2939:	e9 91 00 00 00       	jmpq   29cf <compute_net_pin_index_values+0xa5>
    293e:	48 8b 05 00 00 00 00 	mov    0x0(%rip),%rax        # 2945 <compute_net_pin_index_values+0x1b>
    2945:	48 83 c0 01          	add    $0x1,%rax
    2949:	48 89 05 00 00 00 00 	mov    %rax,0x0(%rip)        # 2950 <compute_net_pin_index_values+0x26>
    2950:	48 8b 0d 00 00 00 00 	mov    0x0(%rip),%rcx        # 2957 <compute_net_pin_index_values+0x2d>
    2957:	8b 45 f4             	mov    -0xc(%rbp),%eax
    295a:	48 63 d0             	movslq %eax,%rdx
    295d:	48 89 d0             	mov    %rdx,%rax
    2960:	48 c1 e0 02          	shl    $0x2,%rax
    2964:	48 01 d0             	add    %rdx,%rax
    2967:	48 c1 e0 03          	shl    $0x3,%rax
    296b:	48 01 c8             	add    %rcx,%rax
    296e:	48 8b 40 08          	mov    0x8(%rax),%rax
    2972:	48 89 45 e8          	mov    %rax,-0x18(%rbp)
    2976:	c7 45 f0 00 00 00 00 	movl   $0x0,-0x10(%rbp)
    297d:	eb 40                	jmp    29bf <compute_net_pin_index_values+0x95>
    297f:	48 8b 05 00 00 00 00 	mov    0x0(%rip),%rax        # 2986 <compute_net_pin_index_values+0x5c>
    2986:	48 83 c0 01          	add    $0x1,%rax
    298a:	48 89 05 00 00 00 00 	mov    %rax,0x0(%rip)        # 2991 <compute_net_pin_index_values+0x67>
    2991:	48 8b 05 00 00 00 00 	mov    0x0(%rip),%rax        # 2998 <compute_net_pin_index_values+0x6e>
    2998:	8b 55 f4             	mov    -0xc(%rbp),%edx
    299b:	48 63 d2             	movslq %edx,%rdx
    299e:	48 c1 e2 03          	shl    $0x3,%rdx
    29a2:	48 01 d0             	add    %rdx,%rax
    29a5:	48 8b 00             	mov    (%rax),%rax
    29a8:	8b 55 f0             	mov    -0x10(%rbp),%edx
    29ab:	48 63 d2             	movslq %edx,%rdx
    29ae:	48 c1 e2 02          	shl    $0x2,%rdx
    29b2:	48 01 d0             	add    %rdx,%rax
    29b5:	c7 00 ff ff ff ff    	movl   $0xffffffff,(%rax)
    29bb:	83 45 f0 01          	addl   $0x1,-0x10(%rbp)
    29bf:	48 8b 45 e8          	mov    -0x18(%rbp),%rax
    29c3:	8b 40 08             	mov    0x8(%rax),%eax
    29c6:	3b 45 f0             	cmp    -0x10(%rbp),%eax
    29c9:	7f b4                	jg     297f <compute_net_pin_index_values+0x55>
    29cb:	83 45 f4 01          	addl   $0x1,-0xc(%rbp)
    29cf:	8b 05 00 00 00 00    	mov    0x0(%rip),%eax        # 29d5 <compute_net_pin_index_values+0xab>
    29d5:	39 45 f4             	cmp    %eax,-0xc(%rbp)
    29d8:	0f 8c 60 ff ff ff    	jl     293e <compute_net_pin_index_values+0x14>
    29de:	c7 45 fc 00 00 00 00 	movl   $0x0,-0x4(%rbp)
    29e5:	e9 2b 01 00 00       	jmpq   2b15 <compute_net_pin_index_values+0x1eb>
    29ea:	48 8b 05 00 00 00 00 	mov    0x0(%rip),%rax        # 29f1 <compute_net_pin_index_values+0xc7>
    29f1:	48 83 c0 01          	add    $0x1,%rax
    29f5:	48 89 05 00 00 00 00 	mov    %rax,0x0(%rip)        # 29fc <compute_net_pin_index_values+0xd2>
    29fc:	48 8b 0d 00 00 00 00 	mov    0x0(%rip),%rcx        # 2a03 <compute_net_pin_index_values+0xd9>
    2a03:	8b 45 fc             	mov    -0x4(%rbp),%eax
    2a06:	48 63 d0             	movslq %eax,%rdx
    2a09:	48 89 d0             	mov    %rdx,%rax
    2a0c:	48 c1 e0 02          	shl    $0x2,%rax
    2a10:	48 01 d0             	add    %rdx,%rax
    2a13:	48 c1 e0 03          	shl    $0x3,%rax
    2a17:	48 01 c8             	add    %rcx,%rax
    2a1a:	8b 40 20             	mov    0x20(%rax),%eax
    2a1d:	85 c0                	test   %eax,%eax
    2a1f:	0f 85 eb 00 00 00    	jne    2b10 <compute_net_pin_index_values+0x1e6>
    2a25:	c7 45 f8 00 00 00 00 	movl   $0x0,-0x8(%rbp)
    2a2c:	48 8b 05 00 00 00 00 	mov    0x0(%rip),%rax        # 2a33 <compute_net_pin_index_values+0x109>
    2a33:	48 83 c0 01          	add    $0x1,%rax
    2a37:	48 89 05 00 00 00 00 	mov    %rax,0x0(%rip)        # 2a3e <compute_net_pin_index_values+0x114>
    2a3e:	e9 a1 00 00 00       	jmpq   2ae4 <compute_net_pin_index_values+0x1ba>
    2a43:	48 8b 05 00 00 00 00 	mov    0x0(%rip),%rax        # 2a4a <compute_net_pin_index_values+0x120>
    2a4a:	48 83 c0 01          	add    $0x1,%rax
    2a4e:	48 89 05 00 00 00 00 	mov    %rax,0x0(%rip)        # 2a55 <compute_net_pin_index_values+0x12b>
    2a55:	48 8b 0d 00 00 00 00 	mov    0x0(%rip),%rcx        # 2a5c <compute_net_pin_index_values+0x132>
    2a5c:	8b 45 fc             	mov    -0x4(%rbp),%eax
    2a5f:	48 63 d0             	movslq %eax,%rdx
    2a62:	48 89 d0             	mov    %rdx,%rax
    2a65:	48 c1 e0 02          	shl    $0x2,%rax
    2a69:	48 01 d0             	add    %rdx,%rax
    2a6c:	48 c1 e0 03          	shl    $0x3,%rax
    2a70:	48 01 c8             	add    %rcx,%rax
    2a73:	48 8b 40 10          	mov    0x10(%rax),%rax
    2a77:	8b 55 f8             	mov    -0x8(%rbp),%edx
    2a7a:	48 63 d2             	movslq %edx,%rdx
    2a7d:	48 c1 e2 02          	shl    $0x2,%rdx
    2a81:	48 01 d0             	add    %rdx,%rax
    2a84:	8b 00                	mov    (%rax),%eax
    2a86:	89 45 e4             	mov    %eax,-0x1c(%rbp)
    2a89:	48 8b 05 00 00 00 00 	mov    0x0(%rip),%rax        # 2a90 <compute_net_pin_index_values+0x166>
    2a90:	8b 55 e4             	mov    -0x1c(%rbp),%edx
    2a93:	48 63 d2             	movslq %edx,%rdx
    2a96:	48 c1 e2 03          	shl    $0x3,%rdx
    2a9a:	48 01 d0             	add    %rdx,%rax
    2a9d:	48 8b 08             	mov    (%rax),%rcx
    2aa0:	48 8b 35 00 00 00 00 	mov    0x0(%rip),%rsi        # 2aa7 <compute_net_pin_index_values+0x17d>
    2aa7:	8b 45 fc             	mov    -0x4(%rbp),%eax
    2aaa:	48 63 d0             	movslq %eax,%rdx
    2aad:	48 89 d0             	mov    %rdx,%rax
    2ab0:	48 c1 e0 02          	shl    $0x2,%rax
    2ab4:	48 01 d0             	add    %rdx,%rax
    2ab7:	48 c1 e0 03          	shl    $0x3,%rax
    2abb:	48 01 f0             	add    %rsi,%rax
    2abe:	48 8b 40 18          	mov    0x18(%rax),%rax
    2ac2:	8b 55 f8             	mov    -0x8(%rbp),%edx
    2ac5:	48 63 d2             	movslq %edx,%rdx
    2ac8:	48 c1 e2 02          	shl    $0x2,%rdx
    2acc:	48 01 d0             	add    %rdx,%rax
    2acf:	8b 00                	mov    (%rax),%eax
    2ad1:	48 98                	cltq   
    2ad3:	48 c1 e0 02          	shl    $0x2,%rax
    2ad7:	48 8d 14 01          	lea    (%rcx,%rax,1),%rdx
    2adb:	8b 45 f8             	mov    -0x8(%rbp),%eax
    2ade:	89 02                	mov    %eax,(%rdx)
    2ae0:	83 45 f8 01          	addl   $0x1,-0x8(%rbp)
    2ae4:	48 8b 0d 00 00 00 00 	mov    0x0(%rip),%rcx        # 2aeb <compute_net_pin_index_values+0x1c1>
    2aeb:	8b 45 fc             	mov    -0x4(%rbp),%eax
    2aee:	48 63 d0             	movslq %eax,%rdx
    2af1:	48 89 d0             	mov    %rdx,%rax
    2af4:	48 c1 e0 02          	shl    $0x2,%rax
    2af8:	48 01 d0             	add    %rdx,%rax
    2afb:	48 c1 e0 03          	shl    $0x3,%rax
    2aff:	48 01 c8             	add    %rcx,%rax
    2b02:	8b 40 08             	mov    0x8(%rax),%eax
    2b05:	3b 45 f8             	cmp    -0x8(%rbp),%eax
    2b08:	0f 8d 35 ff ff ff    	jge    2a43 <compute_net_pin_index_values+0x119>
    2b0e:	eb 01                	jmp    2b11 <compute_net_pin_index_values+0x1e7>
    2b10:	90                   	nop
    2b11:	83 45 fc 01          	addl   $0x1,-0x4(%rbp)
    2b15:	8b 05 00 00 00 00    	mov    0x0(%rip),%eax        # 2b1b <compute_net_pin_index_values+0x1f1>
    2b1b:	39 45 fc             	cmp    %eax,-0x4(%rbp)
    2b1e:	0f 8c c6 fe ff ff    	jl     29ea <compute_net_pin_index_values+0xc0>
    2b24:	48 8b 05 00 00 00 00 	mov    0x0(%rip),%rax        # 2b2b <compute_net_pin_index_values+0x201>
    2b2b:	48 83 c0 01          	add    $0x1,%rax
    2b2f:	48 89 05 00 00 00 00 	mov    %rax,0x0(%rip)        # 2b36 <compute_net_pin_index_values+0x20c>
    2b36:	c9                   	leaveq 
    2b37:	c3                   	retq   

0000000000002b38 <get_std_dev>:
    2b38:	55                   	push   %rbp
    2b39:	48 89 e5             	mov    %rsp,%rbp
    2b3c:	48 83 ec 30          	sub    $0x30,%rsp
    2b40:	89 7d ec             	mov    %edi,-0x14(%rbp)
    2b43:	f2 0f 11 45 e0       	movsd  %xmm0,-0x20(%rbp)
    2b48:	f2 0f 11 4d d8       	movsd  %xmm1,-0x28(%rbp)
    2b4d:	83 7d ec 01          	cmpl   $0x1,-0x14(%rbp)
    2b51:	7f 0b                	jg     2b5e <get_std_dev+0x26>
    2b53:	b8 00 00 00 00       	mov    $0x0,%eax
    2b58:	48 89 45 f8          	mov    %rax,-0x8(%rbp)
    2b5c:	eb 45                	jmp    2ba3 <get_std_dev+0x6b>
    2b5e:	f2 0f 2a 45 ec       	cvtsi2sdl -0x14(%rbp),%xmm0
    2b63:	f2 0f 59 45 d8       	mulsd  -0x28(%rbp),%xmm0
    2b68:	f2 0f 59 45 d8       	mulsd  -0x28(%rbp),%xmm0
    2b6d:	f2 0f 10 4d e0       	movsd  -0x20(%rbp),%xmm1
    2b72:	66 0f 28 d1          	movapd %xmm1,%xmm2
    2b76:	f2 0f 5c d0          	subsd  %xmm0,%xmm2
    2b7a:	66 0f 28 c2          	movapd %xmm2,%xmm0
    2b7e:	8b 45 ec             	mov    -0x14(%rbp),%eax
    2b81:	83 e8 01             	sub    $0x1,%eax
    2b84:	f2 0f 2a c8          	cvtsi2sd %eax,%xmm1
    2b88:	f2 0f 5e c1          	divsd  %xmm1,%xmm0
    2b8c:	f2 0f 11 45 f8       	movsd  %xmm0,-0x8(%rbp)
    2b91:	48 8b 05 00 00 00 00 	mov    0x0(%rip),%rax        # 2b98 <get_std_dev+0x60>
    2b98:	48 83 c0 01          	add    $0x1,%rax
    2b9c:	48 89 05 00 00 00 00 	mov    %rax,0x0(%rip)        # 2ba3 <get_std_dev+0x6b>
    2ba3:	f2 0f 10 45 f8       	movsd  -0x8(%rbp),%xmm0
    2ba8:	66 0f 57 c9          	xorpd  %xmm1,%xmm1
    2bac:	66 0f 2e c1          	ucomisd %xmm1,%xmm0
    2bb0:	76 21                	jbe    2bd3 <get_std_dev+0x9b>
    2bb2:	48 8b 45 f8          	mov    -0x8(%rbp),%rax
    2bb6:	48 89 45 d0          	mov    %rax,-0x30(%rbp)
    2bba:	f2 0f 10 45 d0       	movsd  -0x30(%rbp),%xmm0
    2bbf:	e8 00 00 00 00       	callq  2bc4 <get_std_dev+0x8c>
    2bc4:	f2 0f 11 45 d0       	movsd  %xmm0,-0x30(%rbp)
    2bc9:	48 8b 45 d0          	mov    -0x30(%rbp),%rax
    2bcd:	48 89 45 f8          	mov    %rax,-0x8(%rbp)
    2bd1:	eb 1b                	jmp    2bee <get_std_dev+0xb6>
    2bd3:	b8 00 00 00 00       	mov    $0x0,%eax
    2bd8:	48 89 45 f8          	mov    %rax,-0x8(%rbp)
    2bdc:	48 8b 05 00 00 00 00 	mov    0x0(%rip),%rax        # 2be3 <get_std_dev+0xab>
    2be3:	48 83 c0 01          	add    $0x1,%rax
    2be7:	48 89 05 00 00 00 00 	mov    %rax,0x0(%rip)        # 2bee <get_std_dev+0xb6>
    2bee:	48 8b 45 f8          	mov    -0x8(%rbp),%rax
    2bf2:	48 8b 15 00 00 00 00 	mov    0x0(%rip),%rdx        # 2bf9 <get_std_dev+0xc1>
    2bf9:	48 83 c2 01          	add    $0x1,%rdx
    2bfd:	48 89 15 00 00 00 00 	mov    %rdx,0x0(%rip)        # 2c04 <get_std_dev+0xcc>
    2c04:	48 89 45 d0          	mov    %rax,-0x30(%rbp)
    2c08:	f2 0f 10 45 d0       	movsd  -0x30(%rbp),%xmm0
    2c0d:	c9                   	leaveq 
    2c0e:	c3                   	retq   

0000000000002c0f <update_rlim>:
    2c0f:	55                   	push   %rbp
    2c10:	48 89 e5             	mov    %rsp,%rbp
    2c13:	48 83 ec 20          	sub    $0x20,%rsp
    2c17:	48 89 7d e8          	mov    %rdi,-0x18(%rbp)
    2c1b:	f3 0f 11 45 e4       	movss  %xmm0,-0x1c(%rbp)
    2c20:	48 8b 45 e8          	mov    -0x18(%rbp),%rax
    2c24:	f3 0f 10 00          	movss  (%rax),%xmm0
    2c28:	0f 14 c0             	unpcklps %xmm0,%xmm0
    2c2b:	0f 5a c8             	cvtps2pd %xmm0,%xmm1
    2c2e:	f3 0f 10 45 e4       	movss  -0x1c(%rbp),%xmm0
    2c33:	0f 5a c0             	cvtps2pd %xmm0,%xmm0
    2c36:	f2 0f 10 15 00 00 00 	movsd  0x0(%rip),%xmm2        # 2c3e <update_rlim+0x2f>
    2c3d:	00 
    2c3e:	f2 0f 58 c2          	addsd  %xmm2,%xmm0
    2c42:	f2 0f 59 c1          	mulsd  %xmm1,%xmm0
    2c46:	66 0f 14 c0          	unpcklpd %xmm0,%xmm0
    2c4a:	66 0f 5a c0          	cvtpd2ps %xmm0,%xmm0
    2c4e:	48 8b 45 e8          	mov    -0x18(%rbp),%rax
    2c52:	f3 0f 11 00          	movss  %xmm0,(%rax)
    2c56:	8b 15 00 00 00 00    	mov    0x0(%rip),%edx        # 2c5c <update_rlim+0x4d>
    2c5c:	8b 05 00 00 00 00    	mov    0x0(%rip),%eax        # 2c62 <update_rlim+0x53>
    2c62:	39 c2                	cmp    %eax,%edx
    2c64:	0f 4d c2             	cmovge %edx,%eax
    2c67:	f3 0f 2a c0          	cvtsi2ss %eax,%xmm0
    2c6b:	f3 0f 11 45 fc       	movss  %xmm0,-0x4(%rbp)
    2c70:	48 8b 45 e8          	mov    -0x18(%rbp),%rax
    2c74:	f3 0f 10 00          	movss  (%rax),%xmm0
    2c78:	0f 2e 45 fc          	ucomiss -0x4(%rbp),%xmm0
    2c7c:	76 05                	jbe    2c83 <update_rlim+0x74>
    2c7e:	8b 45 fc             	mov    -0x4(%rbp),%eax
    2c81:	eb 18                	jmp    2c9b <update_rlim+0x8c>
    2c83:	48 8b 45 e8          	mov    -0x18(%rbp),%rax
    2c87:	8b 00                	mov    (%rax),%eax
    2c89:	48 8b 15 00 00 00 00 	mov    0x0(%rip),%rdx        # 2c90 <update_rlim+0x81>
    2c90:	48 83 c2 01          	add    $0x1,%rdx
    2c94:	48 89 15 00 00 00 00 	mov    %rdx,0x0(%rip)        # 2c9b <update_rlim+0x8c>
    2c9b:	48 8b 55 e8          	mov    -0x18(%rbp),%rdx
    2c9f:	89 02                	mov    %eax,(%rdx)
    2ca1:	48 8b 45 e8          	mov    -0x18(%rbp),%rax
    2ca5:	f3 0f 10 00          	movss  (%rax),%xmm0
    2ca9:	f3 0f 10 0d 00 00 00 	movss  0x0(%rip),%xmm1        # 2cb1 <update_rlim+0xa2>
    2cb0:	00 
    2cb1:	0f 2e c1             	ucomiss %xmm1,%xmm0
    2cb4:	76 1a                	jbe    2cd0 <update_rlim+0xc1>
    2cb6:	48 8b 45 e8          	mov    -0x18(%rbp),%rax
    2cba:	8b 00                	mov    (%rax),%eax
    2cbc:	48 8b 15 00 00 00 00 	mov    0x0(%rip),%rdx        # 2cc3 <update_rlim+0xb4>
    2cc3:	48 83 c2 01          	add    $0x1,%rdx
    2cc7:	48 89 15 00 00 00 00 	mov    %rdx,0x0(%rip)        # 2cce <update_rlim+0xbf>
    2cce:	eb 18                	jmp    2ce8 <update_rlim+0xd9>
    2cd0:	8b 05 00 00 00 00    	mov    0x0(%rip),%eax        # 2cd6 <update_rlim+0xc7>
    2cd6:	48 8b 15 00 00 00 00 	mov    0x0(%rip),%rdx        # 2cdd <update_rlim+0xce>
    2cdd:	48 83 c2 01          	add    $0x1,%rdx
    2ce1:	48 89 15 00 00 00 00 	mov    %rdx,0x0(%rip)        # 2ce8 <update_rlim+0xd9>
    2ce8:	48 8b 55 e8          	mov    -0x18(%rbp),%rdx
    2cec:	89 02                	mov    %eax,(%rdx)
    2cee:	c9                   	leaveq 
    2cef:	c3                   	retq   

0000000000002cf0 <update_t>:
    2cf0:	55                   	push   %rbp
    2cf1:	48 89 e5             	mov    %rsp,%rbp
    2cf4:	48 83 ec 18          	sub    $0x18,%rsp
    2cf8:	48 89 7d f8          	mov    %rdi,-0x8(%rbp)
    2cfc:	f3 0f 11 45 f4       	movss  %xmm0,-0xc(%rbp)
    2d01:	f3 0f 11 4d f0       	movss  %xmm1,-0x10(%rbp)
    2d06:	f3 0f 11 55 ec       	movss  %xmm2,-0x14(%rbp)
    2d0b:	8b 45 10             	mov    0x10(%rbp),%eax
    2d0e:	83 f8 01             	cmp    $0x1,%eax
    2d11:	75 30                	jne    2d43 <update_t+0x53>
    2d13:	f3 0f 10 4d 1c       	movss  0x1c(%rbp),%xmm1
    2d18:	48 8b 45 f8          	mov    -0x8(%rbp),%rax
    2d1c:	f3 0f 10 00          	movss  (%rax),%xmm0
    2d20:	f3 0f 59 c1          	mulss  %xmm1,%xmm0
    2d24:	48 8b 45 f8          	mov    -0x8(%rbp),%rax
    2d28:	f3 0f 11 00          	movss  %xmm0,(%rax)
    2d2c:	48 8b 05 00 00 00 00 	mov    0x0(%rip),%rax        # 2d33 <update_t+0x43>
    2d33:	48 83 c0 01          	add    $0x1,%rax
    2d37:	48 89 05 00 00 00 00 	mov    %rax,0x0(%rip)        # 2d3e <update_t+0x4e>
    2d3e:	e9 48 01 00 00       	jmpq   2e8b <update_t+0x19b>
    2d43:	f3 0f 10 45 ec       	movss  -0x14(%rbp),%xmm0
    2d48:	0f 5a c0             	cvtps2pd %xmm0,%xmm0
    2d4b:	66 0f 2e 05 00 00 00 	ucomisd 0x0(%rip),%xmm0        # 2d53 <update_t+0x63>
    2d52:	00 
    2d53:	76 33                	jbe    2d88 <update_t+0x98>
    2d55:	48 8b 45 f8          	mov    -0x8(%rbp),%rax
    2d59:	f3 0f 10 08          	movss  (%rax),%xmm1
    2d5d:	f3 0f 10 05 00 00 00 	movss  0x0(%rip),%xmm0        # 2d65 <update_t+0x75>
    2d64:	00 
    2d65:	f3 0f 59 c1          	mulss  %xmm1,%xmm0
    2d69:	48 8b 45 f8          	mov    -0x8(%rbp),%rax
    2d6d:	f3 0f 11 00          	movss  %xmm0,(%rax)
    2d71:	48 8b 05 00 00 00 00 	mov    0x0(%rip),%rax        # 2d78 <update_t+0x88>
    2d78:	48 83 c0 01          	add    $0x1,%rax
    2d7c:	48 89 05 00 00 00 00 	mov    %rax,0x0(%rip)        # 2d83 <update_t+0x93>
    2d83:	e9 03 01 00 00       	jmpq   2e8b <update_t+0x19b>
    2d88:	f3 0f 10 45 ec       	movss  -0x14(%rbp),%xmm0
    2d8d:	0f 5a c0             	cvtps2pd %xmm0,%xmm0
    2d90:	66 0f 2e 05 00 00 00 	ucomisd 0x0(%rip),%xmm0        # 2d98 <update_t+0xa8>
    2d97:	00 
    2d98:	76 41                	jbe    2ddb <update_t+0xeb>
    2d9a:	48 8b 45 f8          	mov    -0x8(%rbp),%rax
    2d9e:	f3 0f 10 00          	movss  (%rax),%xmm0
    2da2:	0f 14 c0             	unpcklps %xmm0,%xmm0
    2da5:	0f 5a c0             	cvtps2pd %xmm0,%xmm0
    2da8:	f2 0f 10 0d 00 00 00 	movsd  0x0(%rip),%xmm1        # 2db0 <update_t+0xc0>
    2daf:	00 
    2db0:	f2 0f 59 c1          	mulsd  %xmm1,%xmm0
    2db4:	66 0f 14 c0          	unpcklpd %xmm0,%xmm0
    2db8:	66 0f 5a c0          	cvtpd2ps %xmm0,%xmm0
    2dbc:	48 8b 45 f8          	mov    -0x8(%rbp),%rax
    2dc0:	f3 0f 11 00          	movss  %xmm0,(%rax)
    2dc4:	48 8b 05 00 00 00 00 	mov    0x0(%rip),%rax        # 2dcb <update_t+0xdb>
    2dcb:	48 83 c0 01          	add    $0x1,%rax
    2dcf:	48 89 05 00 00 00 00 	mov    %rax,0x0(%rip)        # 2dd6 <update_t+0xe6>
    2dd6:	e9 b0 00 00 00       	jmpq   2e8b <update_t+0x19b>
    2ddb:	f3 0f 10 45 ec       	movss  -0x14(%rbp),%xmm0
    2de0:	0f 5a c0             	cvtps2pd %xmm0,%xmm0
    2de3:	66 0f 2e 05 00 00 00 	ucomisd 0x0(%rip),%xmm0        # 2deb <update_t+0xfb>
    2dea:	00 
    2deb:	77 24                	ja     2e11 <update_t+0x121>
    2ded:	48 8b 05 00 00 00 00 	mov    0x0(%rip),%rax        # 2df4 <update_t+0x104>
    2df4:	48 83 c0 01          	add    $0x1,%rax
    2df8:	48 89 05 00 00 00 00 	mov    %rax,0x0(%rip)        # 2dff <update_t+0x10f>
    2dff:	f3 0f 10 45 f0       	movss  -0x10(%rbp),%xmm0
    2e04:	f3 0f 10 0d 00 00 00 	movss  0x0(%rip),%xmm1        # 2e0c <update_t+0x11c>
    2e0b:	00 
    2e0c:	0f 2e c1             	ucomiss %xmm1,%xmm0
    2e0f:	76 3e                	jbe    2e4f <update_t+0x15f>
    2e11:	48 8b 45 f8          	mov    -0x8(%rbp),%rax
    2e15:	f3 0f 10 00          	movss  (%rax),%xmm0
    2e19:	0f 14 c0             	unpcklps %xmm0,%xmm0
    2e1c:	0f 5a c0             	cvtps2pd %xmm0,%xmm0
    2e1f:	f2 0f 10 0d 00 00 00 	movsd  0x0(%rip),%xmm1        # 2e27 <update_t+0x137>
    2e26:	00 
    2e27:	f2 0f 59 c1          	mulsd  %xmm1,%xmm0
    2e2b:	66 0f 14 c0          	unpcklpd %xmm0,%xmm0
    2e2f:	66 0f 5a c0          	cvtpd2ps %xmm0,%xmm0
    2e33:	48 8b 45 f8          	mov    -0x8(%rbp),%rax
    2e37:	f3 0f 11 00          	movss  %xmm0,(%rax)
    2e3b:	48 8b 05 00 00 00 00 	mov    0x0(%rip),%rax        # 2e42 <update_t+0x152>
    2e42:	48 83 c0 01          	add    $0x1,%rax
    2e46:	48 89 05 00 00 00 00 	mov    %rax,0x0(%rip)        # 2e4d <update_t+0x15d>
    2e4d:	eb 3c                	jmp    2e8b <update_t+0x19b>
    2e4f:	48 8b 45 f8          	mov    -0x8(%rbp),%rax
    2e53:	f3 0f 10 00          	movss  (%rax),%xmm0
    2e57:	0f 14 c0             	unpcklps %xmm0,%xmm0
    2e5a:	0f 5a c0             	cvtps2pd %xmm0,%xmm0
    2e5d:	f2 0f 10 0d 00 00 00 	movsd  0x0(%rip),%xmm1        # 2e65 <update_t+0x175>
    2e64:	00 
    2e65:	f2 0f 59 c1          	mulsd  %xmm1,%xmm0
    2e69:	66 0f 14 c0          	unpcklpd %xmm0,%xmm0
    2e6d:	66 0f 5a c0          	cvtpd2ps %xmm0,%xmm0
    2e71:	48 8b 45 f8          	mov    -0x8(%rbp),%rax
    2e75:	f3 0f 11 00          	movss  %xmm0,(%rax)
    2e79:	48 8b 05 00 00 00 00 	mov    0x0(%rip),%rax        # 2e80 <update_t+0x190>
    2e80:	48 83 c0 01          	add    $0x1,%rax
    2e84:	48 89 05 00 00 00 00 	mov    %rax,0x0(%rip)        # 2e8b <update_t+0x19b>
    2e8b:	c9                   	leaveq 
    2e8c:	c3                   	retq   

0000000000002e8d <exit_crit>:
    2e8d:	55                   	push   %rbp
    2e8e:	48 89 e5             	mov    %rsp,%rbp
    2e91:	48 83 ec 08          	sub    $0x8,%rsp
    2e95:	f3 0f 11 45 fc       	movss  %xmm0,-0x4(%rbp)
    2e9a:	f3 0f 11 4d f8       	movss  %xmm1,-0x8(%rbp)
    2e9f:	8b 45 10             	mov    0x10(%rbp),%eax
    2ea2:	83 f8 01             	cmp    $0x1,%eax
    2ea5:	75 3d                	jne    2ee4 <exit_crit+0x57>
    2ea7:	f3 0f 10 45 20       	movss  0x20(%rbp),%xmm0
    2eac:	0f 2e 45 fc          	ucomiss -0x4(%rbp),%xmm0
    2eb0:	76 19                	jbe    2ecb <exit_crit+0x3e>
    2eb2:	b8 01 00 00 00       	mov    $0x1,%eax
    2eb7:	48 8b 15 00 00 00 00 	mov    0x0(%rip),%rdx        # 2ebe <exit_crit+0x31>
    2ebe:	48 83 c2 01          	add    $0x1,%rdx
    2ec2:	48 89 15 00 00 00 00 	mov    %rdx,0x0(%rip)        # 2ec9 <exit_crit+0x3c>
    2ec9:	eb 79                	jmp    2f44 <exit_crit+0xb7>
    2ecb:	b8 00 00 00 00       	mov    $0x0,%eax
    2ed0:	48 8b 15 00 00 00 00 	mov    0x0(%rip),%rdx        # 2ed7 <exit_crit+0x4a>
    2ed7:	48 83 c2 01          	add    $0x1,%rdx
    2edb:	48 89 15 00 00 00 00 	mov    %rdx,0x0(%rip)        # 2ee2 <exit_crit+0x55>
    2ee2:	eb 60                	jmp    2f44 <exit_crit+0xb7>
    2ee4:	f3 0f 10 4d fc       	movss  -0x4(%rbp),%xmm1
    2ee9:	0f 5a c9             	cvtps2pd %xmm1,%xmm1
    2eec:	f3 0f 10 45 f8       	movss  -0x8(%rbp),%xmm0
    2ef1:	0f 5a c0             	cvtps2pd %xmm0,%xmm0
    2ef4:	f2 0f 10 15 00 00 00 	movsd  0x0(%rip),%xmm2        # 2efc <exit_crit+0x6f>
    2efb:	00 
    2efc:	f2 0f 59 c2          	mulsd  %xmm2,%xmm0
    2f00:	8b 05 00 00 00 00    	mov    0x0(%rip),%eax        # 2f06 <exit_crit+0x79>
    2f06:	f2 0f 2a d0          	cvtsi2sd %eax,%xmm2
    2f0a:	f2 0f 5e c2          	divsd  %xmm2,%xmm0
    2f0e:	66 0f 2e c1          	ucomisd %xmm1,%xmm0
    2f12:	76 19                	jbe    2f2d <exit_crit+0xa0>
    2f14:	b8 01 00 00 00       	mov    $0x1,%eax
    2f19:	48 8b 15 00 00 00 00 	mov    0x0(%rip),%rdx        # 2f20 <exit_crit+0x93>
    2f20:	48 83 c2 01          	add    $0x1,%rdx
    2f24:	48 89 15 00 00 00 00 	mov    %rdx,0x0(%rip)        # 2f2b <exit_crit+0x9e>
    2f2b:	eb 17                	jmp    2f44 <exit_crit+0xb7>
    2f2d:	b8 00 00 00 00       	mov    $0x0,%eax
    2f32:	48 8b 15 00 00 00 00 	mov    0x0(%rip),%rdx        # 2f39 <exit_crit+0xac>
    2f39:	48 83 c2 01          	add    $0x1,%rdx
    2f3d:	48 89 15 00 00 00 00 	mov    %rdx,0x0(%rip)        # 2f44 <exit_crit+0xb7>
    2f44:	c9                   	leaveq 
    2f45:	c3                   	retq   

0000000000002f46 <starting_t>:
    2f46:	55                   	push   %rbp
    2f47:	48 89 e5             	mov    %rsp,%rbp
    2f4a:	41 54                	push   %r12
    2f4c:	53                   	push   %rbx
    2f4d:	48 81 ec b0 00 00 00 	sub    $0xb0,%rsp
    2f54:	48 89 7d b8          	mov    %rdi,-0x48(%rbp)
    2f58:	48 89 75 b0          	mov    %rsi,-0x50(%rbp)
    2f5c:	48 89 55 a8          	mov    %rdx,-0x58(%rbp)
    2f60:	89 4d a4             	mov    %ecx,-0x5c(%rbp)
    2f63:	4c 89 45 98          	mov    %r8,-0x68(%rbp)
    2f67:	4c 89 4d 90          	mov    %r9,-0x70(%rbp)
    2f6b:	f3 0f 11 45 a0       	movss  %xmm0,-0x60(%rbp)
    2f70:	f3 0f 11 4d 8c       	movss  %xmm1,-0x74(%rbp)
    2f75:	f3 0f 11 55 88       	movss  %xmm2,-0x78(%rbp)
    2f7a:	f3 0f 11 5d 84       	movss  %xmm3,-0x7c(%rbp)
    2f7f:	48 8b 05 00 00 00 00 	mov    0x0(%rip),%rax        # 2f86 <starting_t+0x40>
    2f86:	48 83 c0 01          	add    $0x1,%rax
    2f8a:	48 89 05 00 00 00 00 	mov    %rax,0x0(%rip)        # 2f91 <starting_t+0x4b>
    2f91:	8b 05 00 00 00 00    	mov    0x0(%rip),%eax        # 2f97 <starting_t+0x51>
    2f97:	48 98                	cltq   
    2f99:	48 c1 e0 02          	shl    $0x2,%rax
    2f9d:	48 89 c7             	mov    %rax,%rdi
    2fa0:	e8 00 00 00 00       	callq  2fa5 <starting_t+0x5f>
    2fa5:	48 89 45 d0          	mov    %rax,-0x30(%rbp)
    2fa9:	8b 45 20             	mov    0x20(%rbp),%eax
    2fac:	83 f8 01             	cmp    $0x1,%eax
    2faf:	75 1a                	jne    2fcb <starting_t+0x85>
    2fb1:	8b 45 28             	mov    0x28(%rbp),%eax
    2fb4:	48 8b 15 00 00 00 00 	mov    0x0(%rip),%rdx        # 2fbb <starting_t+0x75>
    2fbb:	48 83 c2 01          	add    $0x1,%rdx
    2fbf:	48 89 15 00 00 00 00 	mov    %rdx,0x0(%rip)        # 2fc6 <starting_t+0x80>
    2fc6:	e9 64 02 00 00       	jmpq   322f <starting_t+0x2e9>
    2fcb:	8b 05 00 00 00 00    	mov    0x0(%rip),%eax        # 2fd1 <starting_t+0x8b>
    2fd1:	39 45 38             	cmp    %eax,0x38(%rbp)
    2fd4:	0f 4e 45 38          	cmovle 0x38(%rbp),%eax
    2fd8:	89 45 cc             	mov    %eax,-0x34(%rbp)
    2fdb:	c7 45 e8 00 00 00 00 	movl   $0x0,-0x18(%rbp)
    2fe2:	b8 00 00 00 00       	mov    $0x0,%eax
    2fe7:	48 89 45 e0          	mov    %rax,-0x20(%rbp)
    2feb:	b8 00 00 00 00       	mov    $0x0,%eax
    2ff0:	48 89 45 d8          	mov    %rax,-0x28(%rbp)
    2ff4:	c7 45 ec 00 00 00 00 	movl   $0x0,-0x14(%rbp)
    2ffb:	e9 0e 01 00 00       	jmpq   310e <starting_t+0x1c8>
    3000:	48 8b 05 00 00 00 00 	mov    0x0(%rip),%rax        # 3007 <starting_t+0xc1>
    3007:	48 83 c0 01          	add    $0x1,%rax
    300b:	48 89 05 00 00 00 00 	mov    %rax,0x0(%rip)        # 3012 <starting_t+0xcc>
    3012:	8b 75 84             	mov    -0x7c(%rbp),%esi
    3015:	8b 4d 88             	mov    -0x78(%rbp),%ecx
    3018:	8b 55 8c             	mov    -0x74(%rbp),%edx
    301b:	4c 8b 4d 90          	mov    -0x70(%rbp),%r9
    301f:	4c 8b 65 98          	mov    -0x68(%rbp),%r12
    3023:	8b 5d a4             	mov    -0x5c(%rbp),%ebx
    3026:	8b 45 a0             	mov    -0x60(%rbp),%eax
    3029:	4c 8b 5d a8          	mov    -0x58(%rbp),%r11
    302d:	4c 8b 55 b0          	mov    -0x50(%rbp),%r10
    3031:	48 8b 7d b8          	mov    -0x48(%rbp),%rdi
    3035:	4c 8b 45 d0          	mov    -0x30(%rbp),%r8
    3039:	4c 89 44 24 20       	mov    %r8,0x20(%rsp)
    303e:	4c 8b 45 48          	mov    0x48(%rbp),%r8
    3042:	4c 89 44 24 18       	mov    %r8,0x18(%rsp)
    3047:	44 8b 45 40          	mov    0x40(%rbp),%r8d
    304b:	44 89 44 24 10       	mov    %r8d,0x10(%rsp)
    3050:	44 8b 45 18          	mov    0x18(%rbp),%r8d
    3054:	44 89 44 24 08       	mov    %r8d,0x8(%rsp)
    3059:	44 8b 45 10          	mov    0x10(%rbp),%r8d
    305d:	44 89 04 24          	mov    %r8d,(%rsp)
    3061:	89 75 80             	mov    %esi,-0x80(%rbp)
    3064:	f3 0f 10 65 80       	movss  -0x80(%rbp),%xmm4
    3069:	89 4d 80             	mov    %ecx,-0x80(%rbp)
    306c:	f3 0f 10 5d 80       	movss  -0x80(%rbp),%xmm3
    3071:	89 55 80             	mov    %edx,-0x80(%rbp)
    3074:	f3 0f 10 55 80       	movss  -0x80(%rbp),%xmm2
    3079:	4d 89 e0             	mov    %r12,%r8
    307c:	89 d9                	mov    %ebx,%ecx
    307e:	89 45 80             	mov    %eax,-0x80(%rbp)
    3081:	f3 0f 10 4d 80       	movss  -0x80(%rbp),%xmm1
    3086:	4c 89 da             	mov    %r11,%rdx
    3089:	4c 89 d6             	mov    %r10,%rsi
    308c:	f3 0f 10 05 00 00 00 	movss  0x0(%rip),%xmm0        # 3094 <starting_t+0x14e>
    3093:	00 
    3094:	e8 aa 01 00 00       	callq  3243 <try_swap>
    3099:	83 f8 01             	cmp    $0x1,%eax
    309c:	75 5a                	jne    30f8 <starting_t+0x1b2>
    309e:	83 45 e8 01          	addl   $0x1,-0x18(%rbp)
    30a2:	48 8b 45 b8          	mov    -0x48(%rbp),%rax
    30a6:	f3 0f 10 00          	movss  (%rax),%xmm0
    30aa:	0f 14 c0             	unpcklps %xmm0,%xmm0
    30ad:	0f 5a c0             	cvtps2pd %xmm0,%xmm0
    30b0:	f2 0f 10 4d e0       	movsd  -0x20(%rbp),%xmm1
    30b5:	f2 0f 58 c1          	addsd  %xmm1,%xmm0
    30b9:	f2 0f 11 45 e0       	movsd  %xmm0,-0x20(%rbp)
    30be:	48 8b 45 b8          	mov    -0x48(%rbp),%rax
    30c2:	f3 0f 10 08          	movss  (%rax),%xmm1
    30c6:	48 8b 45 b8          	mov    -0x48(%rbp),%rax
    30ca:	f3 0f 10 00          	movss  (%rax),%xmm0
    30ce:	f3 0f 59 c1          	mulss  %xmm1,%xmm0
    30d2:	0f 14 c0             	unpcklps %xmm0,%xmm0
    30d5:	0f 5a c0             	cvtps2pd %xmm0,%xmm0
    30d8:	f2 0f 10 4d d8       	movsd  -0x28(%rbp),%xmm1
    30dd:	f2 0f 58 c1          	addsd  %xmm1,%xmm0
    30e1:	f2 0f 11 45 d8       	movsd  %xmm0,-0x28(%rbp)
    30e6:	48 8b 05 00 00 00 00 	mov    0x0(%rip),%rax        # 30ed <starting_t+0x1a7>
    30ed:	48 83 c0 01          	add    $0x1,%rax
    30f1:	48 89 05 00 00 00 00 	mov    %rax,0x0(%rip)        # 30f8 <starting_t+0x1b2>
    30f8:	83 45 ec 01          	addl   $0x1,-0x14(%rbp)
    30fc:	48 8b 05 00 00 00 00 	mov    0x0(%rip),%rax        # 3103 <starting_t+0x1bd>
    3103:	48 83 c0 01          	add    $0x1,%rax
    3107:	48 89 05 00 00 00 00 	mov    %rax,0x0(%rip)        # 310e <starting_t+0x1c8>
    310e:	8b 45 ec             	mov    -0x14(%rbp),%eax
    3111:	3b 45 cc             	cmp    -0x34(%rbp),%eax
    3114:	0f 8c e6 fe ff ff    	jl     3000 <starting_t+0xba>
    311a:	83 7d e8 00          	cmpl   $0x0,-0x18(%rbp)
    311e:	74 2f                	je     314f <starting_t+0x209>
    3120:	f2 0f 2a 45 e8       	cvtsi2sdl -0x18(%rbp),%xmm0
    3125:	f2 0f 10 4d e0       	movsd  -0x20(%rbp),%xmm1
    312a:	66 0f 28 d1          	movapd %xmm1,%xmm2
    312e:	f2 0f 5e d0          	divsd  %xmm0,%xmm2
    3132:	66 0f 28 c2          	movapd %xmm2,%xmm0
    3136:	f2 0f 11 45 e0       	movsd  %xmm0,-0x20(%rbp)
    313b:	48 8b 05 00 00 00 00 	mov    0x0(%rip),%rax        # 3142 <starting_t+0x1fc>
    3142:	48 83 c0 01          	add    $0x1,%rax
    3146:	48 89 05 00 00 00 00 	mov    %rax,0x0(%rip)        # 314d <starting_t+0x207>
    314d:	eb 1b                	jmp    316a <starting_t+0x224>
    314f:	b8 00 00 00 00       	mov    $0x0,%eax
    3154:	48 89 45 e0          	mov    %rax,-0x20(%rbp)
    3158:	48 8b 05 00 00 00 00 	mov    0x0(%rip),%rax        # 315f <starting_t+0x219>
    315f:	48 83 c0 01          	add    $0x1,%rax
    3163:	48 89 05 00 00 00 00 	mov    %rax,0x0(%rip)        # 316a <starting_t+0x224>
    316a:	48 8b 55 e0          	mov    -0x20(%rbp),%rdx
    316e:	48 8b 45 d8          	mov    -0x28(%rbp),%rax
    3172:	8b 4d e8             	mov    -0x18(%rbp),%ecx
    3175:	48 89 95 78 ff ff ff 	mov    %rdx,-0x88(%rbp)
    317c:	f2 0f 10 8d 78 ff ff 	movsd  -0x88(%rbp),%xmm1
    3183:	ff 
    3184:	48 89 85 78 ff ff ff 	mov    %rax,-0x88(%rbp)
    318b:	f2 0f 10 85 78 ff ff 	movsd  -0x88(%rbp),%xmm0
    3192:	ff 
    3193:	89 cf                	mov    %ecx,%edi
    3195:	e8 9e f9 ff ff       	callq  2b38 <get_std_dev>
    319a:	f2 0f 11 85 78 ff ff 	movsd  %xmm0,-0x88(%rbp)
    31a1:	ff 
    31a2:	48 8b 85 78 ff ff ff 	mov    -0x88(%rbp),%rax
    31a9:	48 89 45 c0          	mov    %rax,-0x40(%rbp)
    31ad:	48 8b 05 00 00 00 00 	mov    0x0(%rip),%rax        # 31b4 <starting_t+0x26e>
    31b4:	48 83 c0 01          	add    $0x1,%rax
    31b8:	48 89 05 00 00 00 00 	mov    %rax,0x0(%rip)        # 31bf <starting_t+0x279>
    31bf:	8b 45 e8             	mov    -0x18(%rbp),%eax
    31c2:	3b 45 cc             	cmp    -0x34(%rbp),%eax
    31c5:	74 29                	je     31f0 <starting_t+0x2aa>
    31c7:	48 8b 05 00 00 00 00 	mov    0x0(%rip),%rax        # 31ce <starting_t+0x288>
    31ce:	48 83 c0 01          	add    $0x1,%rax
    31d2:	48 89 05 00 00 00 00 	mov    %rax,0x0(%rip)        # 31d9 <starting_t+0x293>
    31d9:	8b 55 cc             	mov    -0x34(%rbp),%edx
    31dc:	8b 45 e8             	mov    -0x18(%rbp),%eax
    31df:	89 c6                	mov    %eax,%esi
    31e1:	bf 00 00 00 00       	mov    $0x0,%edi
    31e6:	b8 00 00 00 00       	mov    $0x0,%eax
    31eb:	e8 00 00 00 00       	callq  31f0 <starting_t+0x2aa>
    31f0:	48 8b 45 d0          	mov    -0x30(%rbp),%rax
    31f4:	48 89 c7             	mov    %rax,%rdi
    31f7:	e8 00 00 00 00       	callq  31fc <starting_t+0x2b6>
    31fc:	f2 0f 10 4d c0       	movsd  -0x40(%rbp),%xmm1
    3201:	f2 0f 10 05 00 00 00 	movsd  0x0(%rip),%xmm0        # 3209 <starting_t+0x2c3>
    3208:	00 
    3209:	f2 0f 59 c1          	mulsd  %xmm1,%xmm0
    320d:	66 0f 14 c0          	unpcklpd %xmm0,%xmm0
    3211:	66 0f 5a c0          	cvtpd2ps %xmm0,%xmm0
    3215:	f3 0f 11 45 80       	movss  %xmm0,-0x80(%rbp)
    321a:	8b 45 80             	mov    -0x80(%rbp),%eax
    321d:	48 8b 15 00 00 00 00 	mov    0x0(%rip),%rdx        # 3224 <starting_t+0x2de>
    3224:	48 83 c2 01          	add    $0x1,%rdx
    3228:	48 89 15 00 00 00 00 	mov    %rdx,0x0(%rip)        # 322f <starting_t+0x2e9>
    322f:	89 45 80             	mov    %eax,-0x80(%rbp)
    3232:	f3 0f 10 45 80       	movss  -0x80(%rbp),%xmm0
    3237:	48 81 c4 b0 00 00 00 	add    $0xb0,%rsp
    323e:	5b                   	pop    %rbx
    323f:	41 5c                	pop    %r12
    3241:	5d                   	pop    %rbp
    3242:	c3                   	retq   

0000000000003243 <try_swap>:
    3243:	55                   	push   %rbp
    3244:	48 89 e5             	mov    %rsp,%rbp
    3247:	53                   	push   %rbx
    3248:	48 81 ec c8 00 00 00 	sub    $0xc8,%rsp
    324f:	f3 0f 11 45 8c       	movss  %xmm0,-0x74(%rbp)
    3254:	48 89 7d 80          	mov    %rdi,-0x80(%rbp)
    3258:	48 89 b5 78 ff ff ff 	mov    %rsi,-0x88(%rbp)
    325f:	48 89 95 70 ff ff ff 	mov    %rdx,-0x90(%rbp)
    3266:	f3 0f 11 4d 88       	movss  %xmm1,-0x78(%rbp)
    326b:	89 8d 6c ff ff ff    	mov    %ecx,-0x94(%rbp)
    3271:	4c 89 85 60 ff ff ff 	mov    %r8,-0xa0(%rbp)
    3278:	4c 89 8d 58 ff ff ff 	mov    %r9,-0xa8(%rbp)
    327f:	f3 0f 11 95 68 ff ff 	movss  %xmm2,-0x98(%rbp)
    3286:	ff 
    3287:	f3 0f 11 9d 54 ff ff 	movss  %xmm3,-0xac(%rbp)
    328e:	ff 
    328f:	f3 0f 11 a5 50 ff ff 	movss  %xmm4,-0xb0(%rbp)
    3296:	ff 
    3297:	c7 45 d8 00 00 00 00 	movl   $0x0,-0x28(%rbp)
    329e:	c7 45 e0 00 00 00 00 	movl   $0x0,-0x20(%rbp)
    32a5:	eb 48                	jmp    32ef <try_swap+0xac>
    32a7:	48 8b 05 00 00 00 00 	mov    0x0(%rip),%rax        # 32ae <try_swap+0x6b>
    32ae:	48 83 c0 01          	add    $0x1,%rax
    32b2:	48 89 05 00 00 00 00 	mov    %rax,0x0(%rip)        # 32b9 <try_swap+0x76>
    32b9:	48 8b 0d 00 00 00 00 	mov    0x0(%rip),%rcx        # 32c0 <try_swap+0x7d>
    32c0:	8b 45 e0             	mov    -0x20(%rbp),%eax
    32c3:	48 63 d0             	movslq %eax,%rdx
    32c6:	48 89 d0             	mov    %rdx,%rax
    32c9:	48 c1 e0 03          	shl    $0x3,%rax
    32cd:	48 01 d0             	add    %rdx,%rax
    32d0:	48 01 c0             	add    %rax,%rax
    32d3:	48 01 d0             	add    %rdx,%rax
    32d6:	48 c1 e0 03          	shl    $0x3,%rax
    32da:	48 01 c8             	add    %rcx,%rax
    32dd:	8b 50 08             	mov    0x8(%rax),%edx
    32e0:	8b 45 d8             	mov    -0x28(%rbp),%eax
    32e3:	39 c2                	cmp    %eax,%edx
    32e5:	0f 4d c2             	cmovge %edx,%eax
    32e8:	89 45 d8             	mov    %eax,-0x28(%rbp)
    32eb:	83 45 e0 01          	addl   $0x1,-0x20(%rbp)
    32ef:	8b 05 00 00 00 00    	mov    0x0(%rip),%eax        # 32f5 <try_swap+0xb2>
    32f5:	39 45 e0             	cmp    %eax,-0x20(%rbp)
    32f8:	7c ad                	jl     32a7 <try_swap+0x64>
    32fa:	48 8b 05 00 00 00 00 	mov    0x0(%rip),%rax        # 3301 <try_swap+0xbe>
    3301:	48 83 c0 01          	add    $0x1,%rax
    3305:	48 89 05 00 00 00 00 	mov    %rax,0x0(%rip)        # 330c <try_swap+0xc9>
    330c:	48 8b 05 00 00 00 00 	mov    0x0(%rip),%rax        # 3313 <try_swap+0xd0>
    3313:	48 85 c0             	test   %rax,%rax
    3316:	0f 85 ba 00 00 00    	jne    33d6 <try_swap+0x193>
    331c:	48 8b 05 00 00 00 00 	mov    0x0(%rip),%rax        # 3323 <try_swap+0xe0>
    3323:	48 83 c0 01          	add    $0x1,%rax
    3327:	48 89 05 00 00 00 00 	mov    %rax,0x0(%rip)        # 332e <try_swap+0xeb>
    332e:	8b 45 d8             	mov    -0x28(%rbp),%eax
    3331:	48 98                	cltq   
    3333:	48 c1 e0 05          	shl    $0x5,%rax
    3337:	48 89 c7             	mov    %rax,%rdi
    333a:	e8 00 00 00 00       	callq  333f <try_swap+0xfc>
    333f:	48 8b 15 00 00 00 00 	mov    0x0(%rip),%rdx        # 3346 <try_swap+0x103>
    3346:	48 83 c2 01          	add    $0x1,%rdx
    334a:	48 89 15 00 00 00 00 	mov    %rdx,0x0(%rip)        # 3351 <try_swap+0x10e>
    3351:	48 89 05 00 00 00 00 	mov    %rax,0x0(%rip)        # 3358 <try_swap+0x115>
    3358:	8b 45 d8             	mov    -0x28(%rbp),%eax
    335b:	48 98                	cltq   
    335d:	48 c1 e0 05          	shl    $0x5,%rax
    3361:	48 89 c7             	mov    %rax,%rdi
    3364:	e8 00 00 00 00       	callq  3369 <try_swap+0x126>
    3369:	48 8b 15 00 00 00 00 	mov    0x0(%rip),%rdx        # 3370 <try_swap+0x12d>
    3370:	48 83 c2 01          	add    $0x1,%rdx
    3374:	48 89 15 00 00 00 00 	mov    %rdx,0x0(%rip)        # 337b <try_swap+0x138>
    337b:	48 89 05 00 00 00 00 	mov    %rax,0x0(%rip)        # 3382 <try_swap+0x13f>
    3382:	8b 45 d8             	mov    -0x28(%rbp),%eax
    3385:	48 98                	cltq   
    3387:	48 c1 e0 03          	shl    $0x3,%rax
    338b:	48 89 c7             	mov    %rax,%rdi
    338e:	e8 00 00 00 00       	callq  3393 <try_swap+0x150>
    3393:	48 8b 15 00 00 00 00 	mov    0x0(%rip),%rdx        # 339a <try_swap+0x157>
    339a:	48 83 c2 01          	add    $0x1,%rdx
    339e:	48 89 15 00 00 00 00 	mov    %rdx,0x0(%rip)        # 33a5 <try_swap+0x162>
    33a5:	48 89 05 00 00 00 00 	mov    %rax,0x0(%rip)        # 33ac <try_swap+0x169>
    33ac:	8b 45 d8             	mov    -0x28(%rbp),%eax
    33af:	48 98                	cltq   
    33b1:	48 c1 e0 03          	shl    $0x3,%rax
    33b5:	48 89 c7             	mov    %rax,%rdi
    33b8:	e8 00 00 00 00       	callq  33bd <try_swap+0x17a>
    33bd:	48 89 05 00 00 00 00 	mov    %rax,0x0(%rip)        # 33c4 <try_swap+0x181>
    33c4:	48 8b 05 00 00 00 00 	mov    0x0(%rip),%rax        # 33cb <try_swap+0x188>
    33cb:	48 83 c0 01          	add    $0x1,%rax
    33cf:	48 89 05 00 00 00 00 	mov    %rax,0x0(%rip)        # 33d6 <try_swap+0x193>
    33d6:	8b 05 00 00 00 00    	mov    0x0(%rip),%eax        # 33dc <try_swap+0x199>
    33dc:	89 45 9c             	mov    %eax,-0x64(%rbp)
    33df:	8b 05 00 00 00 00    	mov    0x0(%rip),%eax        # 33e5 <try_swap+0x1a2>
    33e5:	83 e8 01             	sub    $0x1,%eax
    33e8:	89 c7                	mov    %eax,%edi
    33ea:	e8 00 00 00 00       	callq  33ef <try_swap+0x1ac>
    33ef:	89 45 ec             	mov    %eax,-0x14(%rbp)
    33f2:	48 8b 05 00 00 00 00 	mov    0x0(%rip),%rax        # 33f9 <try_swap+0x1b6>
    33f9:	48 83 c0 01          	add    $0x1,%rax
    33fd:	48 89 05 00 00 00 00 	mov    %rax,0x0(%rip)        # 3404 <try_swap+0x1c1>
    3404:	83 7d 18 01          	cmpl   $0x1,0x18(%rbp)
    3408:	75 79                	jne    3483 <try_swap+0x240>
    340a:	48 8b 05 00 00 00 00 	mov    0x0(%rip),%rax        # 3411 <try_swap+0x1ce>
    3411:	48 83 c0 01          	add    $0x1,%rax
    3415:	48 89 05 00 00 00 00 	mov    %rax,0x0(%rip)        # 341c <try_swap+0x1d9>
    341c:	eb 25                	jmp    3443 <try_swap+0x200>
    341e:	48 8b 05 00 00 00 00 	mov    0x0(%rip),%rax        # 3425 <try_swap+0x1e2>
    3425:	48 83 c0 01          	add    $0x1,%rax
    3429:	48 89 05 00 00 00 00 	mov    %rax,0x0(%rip)        # 3430 <try_swap+0x1ed>
    3430:	8b 05 00 00 00 00    	mov    0x0(%rip),%eax        # 3436 <try_swap+0x1f3>
    3436:	83 e8 01             	sub    $0x1,%eax
    3439:	89 c7                	mov    %eax,%edi
    343b:	e8 00 00 00 00       	callq  3440 <try_swap+0x1fd>
    3440:	89 45 ec             	mov    %eax,-0x14(%rbp)
    3443:	48 8b 0d 00 00 00 00 	mov    0x0(%rip),%rcx        # 344a <try_swap+0x207>
    344a:	8b 45 ec             	mov    -0x14(%rbp),%eax
    344d:	48 63 d0             	movslq %eax,%rdx
    3450:	48 89 d0             	mov    %rdx,%rax
    3453:	48 c1 e0 02          	shl    $0x2,%rax
    3457:	48 01 d0             	add    %rdx,%rax
    345a:	48 c1 e0 03          	shl    $0x3,%rax
    345e:	48 01 c8             	add    %rcx,%rax
    3461:	48 8b 50 08          	mov    0x8(%rax),%rdx
    3465:	48 8b 05 00 00 00 00 	mov    0x0(%rip),%rax        # 346c <try_swap+0x229>
    346c:	48 39 c2             	cmp    %rax,%rdx
    346f:	74 ad                	je     341e <try_swap+0x1db>
    3471:	48 8b 05 00 00 00 00 	mov    0x0(%rip),%rax        # 3478 <try_swap+0x235>
    3478:	48 83 c0 01          	add    $0x1,%rax
    347c:	48 89 05 00 00 00 00 	mov    %rax,0x0(%rip)        # 3483 <try_swap+0x240>
    3483:	48 8b 0d 00 00 00 00 	mov    0x0(%rip),%rcx        # 348a <try_swap+0x247>
    348a:	8b 45 ec             	mov    -0x14(%rbp),%eax
    348d:	48 63 d0             	movslq %eax,%rdx
    3490:	48 89 d0             	mov    %rdx,%rax
    3493:	48 c1 e0 02          	shl    $0x2,%rax
    3497:	48 01 d0             	add    %rdx,%rax
    349a:	48 c1 e0 03          	shl    $0x3,%rax
    349e:	48 01 c8             	add    %rcx,%rax
    34a1:	8b 40 18             	mov    0x18(%rax),%eax
    34a4:	89 45 c8             	mov    %eax,-0x38(%rbp)
    34a7:	48 8b 0d 00 00 00 00 	mov    0x0(%rip),%rcx        # 34ae <try_swap+0x26b>
    34ae:	8b 45 ec             	mov    -0x14(%rbp),%eax
    34b1:	48 63 d0             	movslq %eax,%rdx
    34b4:	48 89 d0             	mov    %rdx,%rax
    34b7:	48 c1 e0 02          	shl    $0x2,%rax
    34bb:	48 01 d0             	add    %rdx,%rax
    34be:	48 c1 e0 03          	shl    $0x3,%rax
    34c2:	48 01 c8             	add    %rcx,%rax
    34c5:	8b 40 1c             	mov    0x1c(%rax),%eax
    34c8:	89 45 c4             	mov    %eax,-0x3c(%rbp)
    34cb:	48 8b 0d 00 00 00 00 	mov    0x0(%rip),%rcx        # 34d2 <try_swap+0x28f>
    34d2:	8b 45 ec             	mov    -0x14(%rbp),%eax
    34d5:	48 63 d0             	movslq %eax,%rdx
    34d8:	48 89 d0             	mov    %rdx,%rax
    34db:	48 c1 e0 02          	shl    $0x2,%rax
    34df:	48 01 d0             	add    %rdx,%rax
    34e2:	48 c1 e0 03          	shl    $0x3,%rax
    34e6:	48 01 c8             	add    %rcx,%rax
    34e9:	8b 40 20             	mov    0x20(%rax),%eax
    34ec:	89 45 c0             	mov    %eax,-0x40(%rbp)
    34ef:	48 8b 0d 00 00 00 00 	mov    0x0(%rip),%rcx        # 34f6 <try_swap+0x2b3>
    34f6:	8b 45 ec             	mov    -0x14(%rbp),%eax
    34f9:	48 63 d0             	movslq %eax,%rdx
    34fc:	48 89 d0             	mov    %rdx,%rax
    34ff:	48 c1 e0 02          	shl    $0x2,%rax
    3503:	48 01 d0             	add    %rdx,%rax
    3506:	48 c1 e0 03          	shl    $0x3,%rax
    350a:	48 01 c8             	add    %rcx,%rax
    350d:	48 8b 50 08          	mov    0x8(%rax),%rdx
    3511:	4c 8d 4d a4          	lea    -0x5c(%rbp),%r9
    3515:	4c 8d 45 a8          	lea    -0x58(%rbp),%r8
    3519:	48 8b 4d 30          	mov    0x30(%rbp),%rcx
    351d:	8b 45 88             	mov    -0x78(%rbp),%eax
    3520:	8b 75 c4             	mov    -0x3c(%rbp),%esi
    3523:	8b 7d c8             	mov    -0x38(%rbp),%edi
    3526:	89 85 4c ff ff ff    	mov    %eax,-0xb4(%rbp)
    352c:	f3 0f 10 85 4c ff ff 	movss  -0xb4(%rbp),%xmm0
    3533:	ff 
    3534:	e8 08 13 00 00       	callq  4841 <find_to>
    3539:	85 c0                	test   %eax,%eax
    353b:	75 0a                	jne    3547 <try_swap+0x304>
    353d:	b8 00 00 00 00       	mov    $0x0,%eax
    3542:	e9 cf 0c 00 00       	jmpq   4216 <try_swap+0xfd3>
    3547:	48 8b 05 00 00 00 00 	mov    0x0(%rip),%rax        # 354e <try_swap+0x30b>
    354e:	48 83 c0 01          	add    $0x1,%rax
    3552:	48 89 05 00 00 00 00 	mov    %rax,0x0(%rip)        # 3559 <try_swap+0x316>
    3559:	c7 45 e8 00 00 00 00 	movl   $0x0,-0x18(%rbp)
    3560:	48 8b 05 00 00 00 00 	mov    0x0(%rip),%rax        # 3567 <try_swap+0x324>
    3567:	8b 55 a8             	mov    -0x58(%rbp),%edx
    356a:	48 63 d2             	movslq %edx,%rdx
    356d:	48 c1 e2 03          	shl    $0x3,%rdx
    3571:	48 01 d0             	add    %rdx,%rax
    3574:	48 8b 08             	mov    (%rax),%rcx
    3577:	8b 45 a4             	mov    -0x5c(%rbp),%eax
    357a:	48 63 d0             	movslq %eax,%rdx
    357d:	48 89 d0             	mov    %rdx,%rax
    3580:	48 01 c0             	add    %rax,%rax
    3583:	48 01 d0             	add    %rdx,%rax
    3586:	48 c1 e0 03          	shl    $0x3,%rax
    358a:	48 01 c8             	add    %rcx,%rax
    358d:	48 8b 00             	mov    (%rax),%rax
    3590:	8b 40 0c             	mov    0xc(%rax),%eax
    3593:	83 f8 01             	cmp    $0x1,%eax
    3596:	7e 52                	jle    35ea <try_swap+0x3a7>
    3598:	48 8b 05 00 00 00 00 	mov    0x0(%rip),%rax        # 359f <try_swap+0x35c>
    359f:	48 83 c0 01          	add    $0x1,%rax
    35a3:	48 89 05 00 00 00 00 	mov    %rax,0x0(%rip)        # 35aa <try_swap+0x367>
    35aa:	48 8b 05 00 00 00 00 	mov    0x0(%rip),%rax        # 35b1 <try_swap+0x36e>
    35b1:	8b 55 a8             	mov    -0x58(%rbp),%edx
    35b4:	48 63 d2             	movslq %edx,%rdx
    35b7:	48 c1 e2 03          	shl    $0x3,%rdx
    35bb:	48 01 d0             	add    %rdx,%rax
    35be:	48 8b 08             	mov    (%rax),%rcx
    35c1:	8b 45 a4             	mov    -0x5c(%rbp),%eax
    35c4:	48 63 d0             	movslq %eax,%rdx
    35c7:	48 89 d0             	mov    %rdx,%rax
    35ca:	48 01 c0             	add    %rax,%rax
    35cd:	48 01 d0             	add    %rdx,%rax
    35d0:	48 c1 e0 03          	shl    $0x3,%rax
    35d4:	48 01 c8             	add    %rcx,%rax
    35d7:	48 8b 00             	mov    (%rax),%rax
    35da:	8b 40 0c             	mov    0xc(%rax),%eax
    35dd:	83 e8 01             	sub    $0x1,%eax
    35e0:	89 c7                	mov    %eax,%edi
    35e2:	e8 00 00 00 00       	callq  35e7 <try_swap+0x3a4>
    35e7:	89 45 e8             	mov    %eax,-0x18(%rbp)
    35ea:	48 8b 05 00 00 00 00 	mov    0x0(%rip),%rax        # 35f1 <try_swap+0x3ae>
    35f1:	8b 55 a8             	mov    -0x58(%rbp),%edx
    35f4:	48 63 d2             	movslq %edx,%rdx
    35f7:	48 c1 e2 03          	shl    $0x3,%rdx
    35fb:	48 01 d0             	add    %rdx,%rax
    35fe:	48 8b 08             	mov    (%rax),%rcx
    3601:	8b 45 a4             	mov    -0x5c(%rbp),%eax
    3604:	48 63 d0             	movslq %eax,%rdx
    3607:	48 89 d0             	mov    %rdx,%rax
    360a:	48 01 c0             	add    %rax,%rax
    360d:	48 01 d0             	add    %rdx,%rax
    3610:	48 c1 e0 03          	shl    $0x3,%rax
    3614:	48 01 c8             	add    %rcx,%rax
    3617:	48 8b 40 10          	mov    0x10(%rax),%rax
    361b:	8b 55 e8             	mov    -0x18(%rbp),%edx
    361e:	48 63 d2             	movslq %edx,%rdx
    3621:	48 c1 e2 02          	shl    $0x2,%rdx
    3625:	48 01 d0             	add    %rdx,%rax
    3628:	8b 00                	mov    (%rax),%eax
    362a:	83 f8 ff             	cmp    $0xffffffff,%eax
    362d:	0f 85 8d 00 00 00    	jne    36c0 <try_swap+0x47d>
    3633:	c7 45 e4 ff ff ff ff 	movl   $0xffffffff,-0x1c(%rbp)
    363a:	48 8b 0d 00 00 00 00 	mov    0x0(%rip),%rcx        # 3641 <try_swap+0x3fe>
    3641:	8b 45 ec             	mov    -0x14(%rbp),%eax
    3644:	48 63 d0             	movslq %eax,%rdx
    3647:	48 89 d0             	mov    %rdx,%rax
    364a:	48 c1 e0 02          	shl    $0x2,%rax
    364e:	48 01 d0             	add    %rdx,%rax
    3651:	48 c1 e0 03          	shl    $0x3,%rax
    3655:	48 8d 14 01          	lea    (%rcx,%rax,1),%rdx
    3659:	8b 45 a8             	mov    -0x58(%rbp),%eax
    365c:	89 42 18             	mov    %eax,0x18(%rdx)
    365f:	48 8b 0d 00 00 00 00 	mov    0x0(%rip),%rcx        # 3666 <try_swap+0x423>
    3666:	8b 45 ec             	mov    -0x14(%rbp),%eax
    3669:	48 63 d0             	movslq %eax,%rdx
    366c:	48 89 d0             	mov    %rdx,%rax
    366f:	48 c1 e0 02          	shl    $0x2,%rax
    3673:	48 01 d0             	add    %rdx,%rax
    3676:	48 c1 e0 03          	shl    $0x3,%rax
    367a:	48 8d 14 01          	lea    (%rcx,%rax,1),%rdx
    367e:	8b 45 a4             	mov    -0x5c(%rbp),%eax
    3681:	89 42 1c             	mov    %eax,0x1c(%rdx)
    3684:	48 8b 0d 00 00 00 00 	mov    0x0(%rip),%rcx        # 368b <try_swap+0x448>
    368b:	8b 45 ec             	mov    -0x14(%rbp),%eax
    368e:	48 63 d0             	movslq %eax,%rdx
    3691:	48 89 d0             	mov    %rdx,%rax
    3694:	48 c1 e0 02          	shl    $0x2,%rax
    3698:	48 01 d0             	add    %rdx,%rax
    369b:	48 c1 e0 03          	shl    $0x3,%rax
    369f:	48 8d 14 01          	lea    (%rcx,%rax,1),%rdx
    36a3:	8b 45 e8             	mov    -0x18(%rbp),%eax
    36a6:	89 42 20             	mov    %eax,0x20(%rdx)
    36a9:	48 8b 05 00 00 00 00 	mov    0x0(%rip),%rax        # 36b0 <try_swap+0x46d>
    36b0:	48 83 c0 01          	add    $0x1,%rax
    36b4:	48 89 05 00 00 00 00 	mov    %rax,0x0(%rip)        # 36bb <try_swap+0x478>
    36bb:	e9 33 01 00 00       	jmpq   37f3 <try_swap+0x5b0>
    36c0:	48 8b 05 00 00 00 00 	mov    0x0(%rip),%rax        # 36c7 <try_swap+0x484>
    36c7:	8b 55 a8             	mov    -0x58(%rbp),%edx
    36ca:	48 63 d2             	movslq %edx,%rdx
    36cd:	48 c1 e2 03          	shl    $0x3,%rdx
    36d1:	48 01 d0             	add    %rdx,%rax
    36d4:	48 8b 08             	mov    (%rax),%rcx
    36d7:	8b 45 a4             	mov    -0x5c(%rbp),%eax
    36da:	48 63 d0             	movslq %eax,%rdx
    36dd:	48 89 d0             	mov    %rdx,%rax
    36e0:	48 01 c0             	add    %rax,%rax
    36e3:	48 01 d0             	add    %rdx,%rax
    36e6:	48 c1 e0 03          	shl    $0x3,%rax
    36ea:	48 01 c8             	add    %rcx,%rax
    36ed:	48 8b 40 10          	mov    0x10(%rax),%rax
    36f1:	8b 55 e8             	mov    -0x18(%rbp),%edx
    36f4:	48 63 d2             	movslq %edx,%rdx
    36f7:	48 c1 e2 02          	shl    $0x2,%rdx
    36fb:	48 01 d0             	add    %rdx,%rax
    36fe:	8b 00                	mov    (%rax),%eax
    3700:	89 45 e4             	mov    %eax,-0x1c(%rbp)
    3703:	48 8b 0d 00 00 00 00 	mov    0x0(%rip),%rcx        # 370a <try_swap+0x4c7>
    370a:	8b 45 e4             	mov    -0x1c(%rbp),%eax
    370d:	48 63 d0             	movslq %eax,%rdx
    3710:	48 89 d0             	mov    %rdx,%rax
    3713:	48 c1 e0 02          	shl    $0x2,%rax
    3717:	48 01 d0             	add    %rdx,%rax
    371a:	48 c1 e0 03          	shl    $0x3,%rax
    371e:	48 8d 14 01          	lea    (%rcx,%rax,1),%rdx
    3722:	8b 45 c8             	mov    -0x38(%rbp),%eax
    3725:	89 42 18             	mov    %eax,0x18(%rdx)
    3728:	48 8b 0d 00 00 00 00 	mov    0x0(%rip),%rcx        # 372f <try_swap+0x4ec>
    372f:	8b 45 e4             	mov    -0x1c(%rbp),%eax
    3732:	48 63 d0             	movslq %eax,%rdx
    3735:	48 89 d0             	mov    %rdx,%rax
    3738:	48 c1 e0 02          	shl    $0x2,%rax
    373c:	48 01 d0             	add    %rdx,%rax
    373f:	48 c1 e0 03          	shl    $0x3,%rax
    3743:	48 8d 14 01          	lea    (%rcx,%rax,1),%rdx
    3747:	8b 45 c4             	mov    -0x3c(%rbp),%eax
    374a:	89 42 1c             	mov    %eax,0x1c(%rdx)
    374d:	48 8b 0d 00 00 00 00 	mov    0x0(%rip),%rcx        # 3754 <try_swap+0x511>
    3754:	8b 45 e4             	mov    -0x1c(%rbp),%eax
    3757:	48 63 d0             	movslq %eax,%rdx
    375a:	48 89 d0             	mov    %rdx,%rax
    375d:	48 c1 e0 02          	shl    $0x2,%rax
    3761:	48 01 d0             	add    %rdx,%rax
    3764:	48 c1 e0 03          	shl    $0x3,%rax
    3768:	48 8d 14 01          	lea    (%rcx,%rax,1),%rdx
    376c:	8b 45 c0             	mov    -0x40(%rbp),%eax
    376f:	89 42 20             	mov    %eax,0x20(%rdx)
    3772:	48 8b 0d 00 00 00 00 	mov    0x0(%rip),%rcx        # 3779 <try_swap+0x536>
    3779:	8b 45 ec             	mov    -0x14(%rbp),%eax
    377c:	48 63 d0             	movslq %eax,%rdx
    377f:	48 89 d0             	mov    %rdx,%rax
    3782:	48 c1 e0 02          	shl    $0x2,%rax
    3786:	48 01 d0             	add    %rdx,%rax
    3789:	48 c1 e0 03          	shl    $0x3,%rax
    378d:	48 8d 14 01          	lea    (%rcx,%rax,1),%rdx
    3791:	8b 45 a8             	mov    -0x58(%rbp),%eax
    3794:	89 42 18             	mov    %eax,0x18(%rdx)
    3797:	48 8b 0d 00 00 00 00 	mov    0x0(%rip),%rcx        # 379e <try_swap+0x55b>
    379e:	8b 45 ec             	mov    -0x14(%rbp),%eax
    37a1:	48 63 d0             	movslq %eax,%rdx
    37a4:	48 89 d0             	mov    %rdx,%rax
    37a7:	48 c1 e0 02          	shl    $0x2,%rax
    37ab:	48 01 d0             	add    %rdx,%rax
    37ae:	48 c1 e0 03          	shl    $0x3,%rax
    37b2:	48 8d 14 01          	lea    (%rcx,%rax,1),%rdx
    37b6:	8b 45 a4             	mov    -0x5c(%rbp),%eax
    37b9:	89 42 1c             	mov    %eax,0x1c(%rdx)
    37bc:	48 8b 0d 00 00 00 00 	mov    0x0(%rip),%rcx        # 37c3 <try_swap+0x580>
    37c3:	8b 45 ec             	mov    -0x14(%rbp),%eax
    37c6:	48 63 d0             	movslq %eax,%rdx
    37c9:	48 89 d0             	mov    %rdx,%rax
    37cc:	48 c1 e0 02          	shl    $0x2,%rax
    37d0:	48 01 d0             	add    %rdx,%rax
    37d3:	48 c1 e0 03          	shl    $0x3,%rax
    37d7:	48 8d 14 01          	lea    (%rcx,%rax,1),%rdx
    37db:	8b 45 e8             	mov    -0x18(%rbp),%eax
    37de:	89 42 20             	mov    %eax,0x20(%rdx)
    37e1:	48 8b 05 00 00 00 00 	mov    0x0(%rip),%rax        # 37e8 <try_swap+0x5a5>
    37e8:	48 83 c0 01          	add    $0x1,%rax
    37ec:	48 89 05 00 00 00 00 	mov    %rax,0x0(%rip)        # 37f3 <try_swap+0x5b0>
    37f3:	8b 05 00 00 00 00    	mov    0x0(%rip),%eax        # 37f9 <try_swap+0x5b6>
    37f9:	89 45 d0             	mov    %eax,-0x30(%rbp)
    37fc:	8b 05 00 00 00 00    	mov    0x0(%rip),%eax        # 3802 <try_swap+0x5bf>
    3802:	89 45 cc             	mov    %eax,-0x34(%rbp)
    3805:	8b 05 00 00 00 00    	mov    0x0(%rip),%eax        # 380b <try_swap+0x5c8>
    380b:	89 45 a0             	mov    %eax,-0x60(%rbp)
    380e:	48 8b 0d 00 00 00 00 	mov    0x0(%rip),%rcx        # 3815 <try_swap+0x5d2>
    3815:	8b 45 ec             	mov    -0x14(%rbp),%eax
    3818:	48 63 d0             	movslq %eax,%rdx
    381b:	48 89 d0             	mov    %rdx,%rax
    381e:	48 c1 e0 02          	shl    $0x2,%rax
    3822:	48 01 d0             	add    %rdx,%rax
    3825:	48 c1 e0 03          	shl    $0x3,%rax
    3829:	48 01 c8             	add    %rcx,%rax
    382c:	48 8b 40 08          	mov    0x8(%rax),%rax
    3830:	8b 40 08             	mov    0x8(%rax),%eax
    3833:	89 45 bc             	mov    %eax,-0x44(%rbp)
    3836:	48 8b 35 00 00 00 00 	mov    0x0(%rip),%rsi        # 383d <try_swap+0x5fa>
    383d:	48 8b 05 00 00 00 00 	mov    0x0(%rip),%rax        # 3844 <try_swap+0x601>
    3844:	8b 7d bc             	mov    -0x44(%rbp),%edi
    3847:	8b 4d e4             	mov    -0x1c(%rbp),%ecx
    384a:	8b 55 ec             	mov    -0x14(%rbp),%edx
    384d:	41 89 f8             	mov    %edi,%r8d
    3850:	48 89 c7             	mov    %rax,%rdi
    3853:	e8 14 0c 00 00       	callq  446c <find_affected_nets>
    3858:	89 45 b8             	mov    %eax,-0x48(%rbp)
    385b:	48 8b 05 00 00 00 00 	mov    0x0(%rip),%rax        # 3862 <try_swap+0x61f>
    3862:	48 83 c0 01          	add    $0x1,%rax
    3866:	48 89 05 00 00 00 00 	mov    %rax,0x0(%rip)        # 386d <try_swap+0x62a>
    386d:	83 bd 6c ff ff ff 01 	cmpl   $0x1,-0x94(%rbp)
    3874:	75 2e                	jne    38a4 <try_swap+0x661>
    3876:	48 8b 05 00 00 00 00 	mov    0x0(%rip),%rax        # 387d <try_swap+0x63a>
    387d:	48 83 c0 01          	add    $0x1,%rax
    3881:	48 89 05 00 00 00 00 	mov    %rax,0x0(%rip)        # 3888 <try_swap+0x645>
    3888:	48 8b 8d 58 ff ff ff 	mov    -0xa8(%rbp),%rcx
    388f:	48 8b 85 60 ff ff ff 	mov    -0xa0(%rbp),%rax
    3896:	8b 55 10             	mov    0x10(%rbp),%edx
    3899:	48 89 ce             	mov    %rcx,%rsi
    389c:	48 89 c7             	mov    %rax,%rdi
    389f:	e8 8e 09 00 00       	callq  4232 <save_region_occ>
    38a4:	c7 45 d4 00 00 00 00 	movl   $0x0,-0x2c(%rbp)
    38ab:	c7 45 dc 00 00 00 00 	movl   $0x0,-0x24(%rbp)
    38b2:	e9 ea 02 00 00       	jmpq   3ba1 <try_swap+0x95e>
    38b7:	48 8b 05 00 00 00 00 	mov    0x0(%rip),%rax        # 38be <try_swap+0x67b>
    38be:	48 83 c0 01          	add    $0x1,%rax
    38c2:	48 89 05 00 00 00 00 	mov    %rax,0x0(%rip)        # 38c9 <try_swap+0x686>
    38c9:	48 8b 05 00 00 00 00 	mov    0x0(%rip),%rax        # 38d0 <try_swap+0x68d>
    38d0:	8b 55 dc             	mov    -0x24(%rbp),%edx
    38d3:	48 63 d2             	movslq %edx,%rdx
    38d6:	48 c1 e2 02          	shl    $0x2,%rdx
    38da:	48 01 d0             	add    %rdx,%rax
    38dd:	8b 00                	mov    (%rax),%eax
    38df:	89 45 b4             	mov    %eax,-0x4c(%rbp)
    38e2:	48 8b 05 00 00 00 00 	mov    0x0(%rip),%rax        # 38e9 <try_swap+0x6a6>
    38e9:	8b 55 dc             	mov    -0x24(%rbp),%edx
    38ec:	48 63 d2             	movslq %edx,%rdx
    38ef:	48 c1 e2 02          	shl    $0x2,%rdx
    38f3:	48 01 d0             	add    %rdx,%rax
    38f6:	8b 00                	mov    (%rax),%eax
    38f8:	83 f8 02             	cmp    $0x2,%eax
    38fb:	0f 84 89 02 00 00    	je     3b8a <try_swap+0x947>
    3901:	48 8b 0d 00 00 00 00 	mov    0x0(%rip),%rcx        # 3908 <try_swap+0x6c5>
    3908:	8b 45 b4             	mov    -0x4c(%rbp),%eax
    390b:	48 63 d0             	movslq %eax,%rdx
    390e:	48 89 d0             	mov    %rdx,%rax
    3911:	48 c1 e0 02          	shl    $0x2,%rax
    3915:	48 01 d0             	add    %rdx,%rax
    3918:	48 c1 e0 03          	shl    $0x3,%rax
    391c:	48 01 c8             	add    %rcx,%rax
    391f:	8b 40 08             	mov    0x8(%rax),%eax
    3922:	83 f8 03             	cmp    $0x3,%eax
    3925:	7f 26                	jg     394d <try_swap+0x70a>
    3927:	48 8b 05 00 00 00 00 	mov    0x0(%rip),%rax        # 392e <try_swap+0x6eb>
    392e:	8b 55 d4             	mov    -0x2c(%rbp),%edx
    3931:	48 63 d2             	movslq %edx,%rdx
    3934:	48 c1 e2 04          	shl    $0x4,%rdx
    3938:	48 01 c2             	add    %rax,%rdx
    393b:	8b 45 b4             	mov    -0x4c(%rbp),%eax
    393e:	48 89 d6             	mov    %rdx,%rsi
    3941:	89 c7                	mov    %eax,%edi
    3943:	e8 48 64 00 00       	callq  9d90 <get_non_updateable_bb>
    3948:	e9 f8 00 00 00       	jmpq   3a45 <try_swap+0x802>
    394d:	48 8b 05 00 00 00 00 	mov    0x0(%rip),%rax        # 3954 <try_swap+0x711>
    3954:	8b 55 dc             	mov    -0x24(%rbp),%edx
    3957:	48 63 d2             	movslq %edx,%rdx
    395a:	48 c1 e2 02          	shl    $0x2,%rdx
    395e:	48 01 d0             	add    %rdx,%rax
    3961:	8b 00                	mov    (%rax),%eax
    3963:	85 c0                	test   %eax,%eax
    3965:	75 70                	jne    39d7 <try_swap+0x794>
    3967:	48 8b 05 00 00 00 00 	mov    0x0(%rip),%rax        # 396e <try_swap+0x72b>
    396e:	48 83 c0 01          	add    $0x1,%rax
    3972:	48 89 05 00 00 00 00 	mov    %rax,0x0(%rip)        # 3979 <try_swap+0x736>
    3979:	8b 4d a4             	mov    -0x5c(%rbp),%ecx
    397c:	44 8b 4d a8          	mov    -0x58(%rbp),%r9d
    3980:	48 8b 05 00 00 00 00 	mov    0x0(%rip),%rax        # 3987 <try_swap+0x744>
    3987:	8b 55 d4             	mov    -0x2c(%rbp),%edx
    398a:	48 63 d2             	movslq %edx,%rdx
    398d:	48 c1 e2 04          	shl    $0x4,%rdx
    3991:	48 8d 3c 10          	lea    (%rax,%rdx,1),%rdi
    3995:	48 8b 05 00 00 00 00 	mov    0x0(%rip),%rax        # 399c <try_swap+0x759>
    399c:	8b 55 d4             	mov    -0x2c(%rbp),%edx
    399f:	48 63 d2             	movslq %edx,%rdx
    39a2:	48 c1 e2 04          	shl    $0x4,%rdx
    39a6:	48 8d 34 10          	lea    (%rax,%rdx,1),%rsi
    39aa:	44 8b 45 c4          	mov    -0x3c(%rbp),%r8d
    39ae:	8b 55 c8             	mov    -0x38(%rbp),%edx
    39b1:	8b 45 b4             	mov    -0x4c(%rbp),%eax
    39b4:	89 0c 24             	mov    %ecx,(%rsp)
    39b7:	89 d1                	mov    %edx,%ecx
    39b9:	48 89 fa             	mov    %rdi,%rdx
    39bc:	89 c7                	mov    %eax,%edi
    39be:	e8 80 66 00 00       	callq  a043 <update_bb>
    39c3:	48 8b 05 00 00 00 00 	mov    0x0(%rip),%rax        # 39ca <try_swap+0x787>
    39ca:	48 83 c0 01          	add    $0x1,%rax
    39ce:	48 89 05 00 00 00 00 	mov    %rax,0x0(%rip)        # 39d5 <try_swap+0x792>
    39d5:	eb 6e                	jmp    3a45 <try_swap+0x802>
    39d7:	48 8b 05 00 00 00 00 	mov    0x0(%rip),%rax        # 39de <try_swap+0x79b>
    39de:	48 83 c0 01          	add    $0x1,%rax
    39e2:	48 89 05 00 00 00 00 	mov    %rax,0x0(%rip)        # 39e9 <try_swap+0x7a6>
    39e9:	44 8b 45 a4          	mov    -0x5c(%rbp),%r8d
    39ed:	8b 55 a8             	mov    -0x58(%rbp),%edx
    39f0:	48 8b 05 00 00 00 00 	mov    0x0(%rip),%rax        # 39f7 <try_swap+0x7b4>
    39f7:	8b 4d d4             	mov    -0x2c(%rbp),%ecx
    39fa:	48 63 c9             	movslq %ecx,%rcx
    39fd:	48 c1 e1 04          	shl    $0x4,%rcx
    3a01:	48 8d 3c 08          	lea    (%rax,%rcx,1),%rdi
    3a05:	48 8b 05 00 00 00 00 	mov    0x0(%rip),%rax        # 3a0c <try_swap+0x7c9>
    3a0c:	8b 4d d4             	mov    -0x2c(%rbp),%ecx
    3a0f:	48 63 c9             	movslq %ecx,%rcx
    3a12:	48 c1 e1 04          	shl    $0x4,%rcx
    3a16:	48 8d 34 08          	lea    (%rax,%rcx,1),%rsi
    3a1a:	44 8b 4d c8          	mov    -0x38(%rbp),%r9d
    3a1e:	8b 45 b4             	mov    -0x4c(%rbp),%eax
    3a21:	8b 4d c4             	mov    -0x3c(%rbp),%ecx
    3a24:	89 0c 24             	mov    %ecx,(%rsp)
    3a27:	89 d1                	mov    %edx,%ecx
    3a29:	48 89 fa             	mov    %rdi,%rdx
    3a2c:	89 c7                	mov    %eax,%edi
    3a2e:	e8 10 66 00 00       	callq  a043 <update_bb>
    3a33:	48 8b 05 00 00 00 00 	mov    0x0(%rip),%rax        # 3a3a <try_swap+0x7f7>
    3a3a:	48 83 c0 01          	add    $0x1,%rax
    3a3e:	48 89 05 00 00 00 00 	mov    %rax,0x0(%rip)        # 3a45 <try_swap+0x802>
    3a45:	83 bd 6c ff ff ff 01 	cmpl   $0x1,-0x94(%rbp)
    3a4c:	0f 84 ae 00 00 00    	je     3b00 <try_swap+0x8bd>
    3a52:	48 8b 05 00 00 00 00 	mov    0x0(%rip),%rax        # 3a59 <try_swap+0x816>
    3a59:	48 83 c0 01          	add    $0x1,%rax
    3a5d:	48 89 05 00 00 00 00 	mov    %rax,0x0(%rip)        # 3a64 <try_swap+0x821>
    3a64:	48 8b 05 00 00 00 00 	mov    0x0(%rip),%rax        # 3a6b <try_swap+0x828>
    3a6b:	8b 55 b4             	mov    -0x4c(%rbp),%edx
    3a6e:	48 63 d2             	movslq %edx,%rdx
    3a71:	48 c1 e2 02          	shl    $0x2,%rdx
    3a75:	48 8d 1c 10          	lea    (%rax,%rdx,1),%rbx
    3a79:	48 8b 05 00 00 00 00 	mov    0x0(%rip),%rax        # 3a80 <try_swap+0x83d>
    3a80:	8b 55 d4             	mov    -0x2c(%rbp),%edx
    3a83:	48 63 d2             	movslq %edx,%rdx
    3a86:	48 c1 e2 04          	shl    $0x4,%rdx
    3a8a:	48 01 c2             	add    %rax,%rdx
    3a8d:	8b 45 b4             	mov    -0x4c(%rbp),%eax
    3a90:	48 89 d6             	mov    %rdx,%rsi
    3a93:	89 c7                	mov    %eax,%edi
    3a95:	e8 54 61 00 00       	callq  9bee <get_net_cost>
    3a9a:	f3 0f 11 85 4c ff ff 	movss  %xmm0,-0xb4(%rbp)
    3aa1:	ff 
    3aa2:	8b 85 4c ff ff ff    	mov    -0xb4(%rbp),%eax
    3aa8:	89 03                	mov    %eax,(%rbx)
    3aaa:	48 8b 05 00 00 00 00 	mov    0x0(%rip),%rax        # 3ab1 <try_swap+0x86e>
    3ab1:	8b 55 b4             	mov    -0x4c(%rbp),%edx
    3ab4:	48 63 d2             	movslq %edx,%rdx
    3ab7:	48 c1 e2 02          	shl    $0x2,%rdx
    3abb:	48 01 d0             	add    %rdx,%rax
    3abe:	f3 0f 10 00          	movss  (%rax),%xmm0
    3ac2:	48 8b 05 00 00 00 00 	mov    0x0(%rip),%rax        # 3ac9 <try_swap+0x886>
    3ac9:	8b 55 b4             	mov    -0x4c(%rbp),%edx
    3acc:	48 63 d2             	movslq %edx,%rdx
    3acf:	48 c1 e2 02          	shl    $0x2,%rdx
    3ad3:	48 01 d0             	add    %rdx,%rax
    3ad6:	f3 0f 10 08          	movss  (%rax),%xmm1
    3ada:	f3 0f 5c c1          	subss  %xmm1,%xmm0
    3ade:	f3 0f 10 4d cc       	movss  -0x34(%rbp),%xmm1
    3ae3:	f3 0f 58 c1          	addss  %xmm1,%xmm0
    3ae7:	f3 0f 11 45 cc       	movss  %xmm0,-0x34(%rbp)
    3aec:	48 8b 05 00 00 00 00 	mov    0x0(%rip),%rax        # 3af3 <try_swap+0x8b0>
    3af3:	48 83 c0 01          	add    $0x1,%rax
    3af7:	48 89 05 00 00 00 00 	mov    %rax,0x0(%rip)        # 3afe <try_swap+0x8bb>
    3afe:	eb 72                	jmp    3b72 <try_swap+0x92f>
    3b00:	48 8b 05 00 00 00 00 	mov    0x0(%rip),%rax        # 3b07 <try_swap+0x8c4>
    3b07:	48 83 c0 01          	add    $0x1,%rax
    3b0b:	48 89 05 00 00 00 00 	mov    %rax,0x0(%rip)        # 3b12 <try_swap+0x8cf>
    3b12:	48 8b 05 00 00 00 00 	mov    0x0(%rip),%rax        # 3b19 <try_swap+0x8d6>
    3b19:	8b 55 b4             	mov    -0x4c(%rbp),%edx
    3b1c:	48 63 d2             	movslq %edx,%rdx
    3b1f:	48 c1 e2 04          	shl    $0x4,%rdx
    3b23:	48 8d 34 10          	lea    (%rax,%rdx,1),%rsi
    3b27:	8b 45 b4             	mov    -0x4c(%rbp),%eax
    3b2a:	8b 4d 10             	mov    0x10(%rbp),%ecx
    3b2d:	ba ff ff ff ff       	mov    $0xffffffff,%edx
    3b32:	89 c7                	mov    %eax,%edi
    3b34:	e8 63 3a 00 00       	callq  759c <update_region_occ>
    3b39:	48 8b 05 00 00 00 00 	mov    0x0(%rip),%rax        # 3b40 <try_swap+0x8fd>
    3b40:	48 83 c0 01          	add    $0x1,%rax
    3b44:	48 89 05 00 00 00 00 	mov    %rax,0x0(%rip)        # 3b4b <try_swap+0x908>
    3b4b:	48 8b 05 00 00 00 00 	mov    0x0(%rip),%rax        # 3b52 <try_swap+0x90f>
    3b52:	8b 55 d4             	mov    -0x2c(%rbp),%edx
    3b55:	48 63 d2             	movslq %edx,%rdx
    3b58:	48 c1 e2 04          	shl    $0x4,%rdx
    3b5c:	48 8d 34 10          	lea    (%rax,%rdx,1),%rsi
    3b60:	8b 45 b4             	mov    -0x4c(%rbp),%eax
    3b63:	8b 4d 10             	mov    0x10(%rbp),%ecx
    3b66:	ba 01 00 00 00       	mov    $0x1,%edx
    3b6b:	89 c7                	mov    %eax,%edi
    3b6d:	e8 2a 3a 00 00       	callq  759c <update_region_occ>
    3b72:	83 45 d4 01          	addl   $0x1,-0x2c(%rbp)
    3b76:	48 8b 05 00 00 00 00 	mov    0x0(%rip),%rax        # 3b7d <try_swap+0x93a>
    3b7d:	48 83 c0 01          	add    $0x1,%rax
    3b81:	48 89 05 00 00 00 00 	mov    %rax,0x0(%rip)        # 3b88 <try_swap+0x945>
    3b88:	eb 01                	jmp    3b8b <try_swap+0x948>
    3b8a:	90                   	nop
    3b8b:	83 45 dc 01          	addl   $0x1,-0x24(%rbp)
    3b8f:	48 8b 05 00 00 00 00 	mov    0x0(%rip),%rax        # 3b96 <try_swap+0x953>
    3b96:	48 83 c0 01          	add    $0x1,%rax
    3b9a:	48 89 05 00 00 00 00 	mov    %rax,0x0(%rip)        # 3ba1 <try_swap+0x95e>
    3ba1:	8b 45 dc             	mov    -0x24(%rbp),%eax
    3ba4:	3b 45 b8             	cmp    -0x48(%rbp),%eax
    3ba7:	0f 8c 0a fd ff ff    	jl     38b7 <try_swap+0x674>
    3bad:	48 8b 05 00 00 00 00 	mov    0x0(%rip),%rax        # 3bb4 <try_swap+0x971>
    3bb4:	48 83 c0 01          	add    $0x1,%rax
    3bb8:	48 89 05 00 00 00 00 	mov    %rax,0x0(%rip)        # 3bbf <try_swap+0x97c>
    3bbf:	83 bd 6c ff ff ff 01 	cmpl   $0x1,-0x94(%rbp)
    3bc6:	75 56                	jne    3c1e <try_swap+0x9db>
    3bc8:	48 8b 05 00 00 00 00 	mov    0x0(%rip),%rax        # 3bcf <try_swap+0x98c>
    3bcf:	48 83 c0 01          	add    $0x1,%rax
    3bd3:	48 89 05 00 00 00 00 	mov    %rax,0x0(%rip)        # 3bda <try_swap+0x997>
    3bda:	8b 7d 10             	mov    0x10(%rbp),%edi
    3bdd:	e8 a3 36 00 00       	callq  7285 <nonlinear_cong_cost>
    3be2:	f3 0f 11 85 4c ff ff 	movss  %xmm0,-0xb4(%rbp)
    3be9:	ff 
    3bea:	8b 85 4c ff ff ff    	mov    -0xb4(%rbp),%eax
    3bf0:	89 45 b0             	mov    %eax,-0x50(%rbp)
    3bf3:	48 8b 85 78 ff ff ff 	mov    -0x88(%rbp),%rax
    3bfa:	f3 0f 10 08          	movss  (%rax),%xmm1
    3bfe:	f3 0f 10 45 b0       	movss  -0x50(%rbp),%xmm0
    3c03:	f3 0f 5c c1          	subss  %xmm1,%xmm0
    3c07:	f3 0f 11 45 cc       	movss  %xmm0,-0x34(%rbp)
    3c0c:	48 8b 05 00 00 00 00 	mov    0x0(%rip),%rax        # 3c13 <try_swap+0x9d0>
    3c13:	48 83 c0 01          	add    $0x1,%rax
    3c17:	48 89 05 00 00 00 00 	mov    %rax,0x0(%rip)        # 3c1e <try_swap+0x9db>
    3c1e:	83 7d 20 01          	cmpl   $0x1,0x20(%rbp)
    3c22:	74 18                	je     3c3c <try_swap+0x9f9>
    3c24:	48 8b 05 00 00 00 00 	mov    0x0(%rip),%rax        # 3c2b <try_swap+0x9e8>
    3c2b:	48 83 c0 01          	add    $0x1,%rax
    3c2f:	48 89 05 00 00 00 00 	mov    %rax,0x0(%rip)        # 3c36 <try_swap+0x9f3>
    3c36:	83 7d 20 02          	cmpl   $0x2,0x20(%rbp)
    3c3a:	75 6d                	jne    3ca9 <try_swap+0xa66>
    3c3c:	48 8d 7d 9c          	lea    -0x64(%rbp),%rdi
    3c40:	48 8d 4d a0          	lea    -0x60(%rbp),%rcx
    3c44:	8b 55 bc             	mov    -0x44(%rbp),%edx
    3c47:	8b 75 e4             	mov    -0x1c(%rbp),%esi
    3c4a:	8b 45 ec             	mov    -0x14(%rbp),%eax
    3c4d:	49 89 f8             	mov    %rdi,%r8
    3c50:	89 c7                	mov    %eax,%edi
    3c52:	e8 43 26 00 00       	callq  629a <comp_delta_td_cost>
    3c57:	f3 0f 10 05 00 00 00 	movss  0x0(%rip),%xmm0        # 3c5f <try_swap+0xa1c>
    3c5e:	00 
    3c5f:	f3 0f 5c 85 68 ff ff 	subss  -0x98(%rbp),%xmm0
    3c66:	ff 
    3c67:	f3 0f 59 45 cc       	mulss  -0x34(%rbp),%xmm0
    3c6c:	0f 28 c8             	movaps %xmm0,%xmm1
    3c6f:	f3 0f 59 8d 54 ff ff 	mulss  -0xac(%rbp),%xmm1
    3c76:	ff 
    3c77:	f3 0f 10 45 a0       	movss  -0x60(%rbp),%xmm0
    3c7c:	f3 0f 59 85 68 ff ff 	mulss  -0x98(%rbp),%xmm0
    3c83:	ff 
    3c84:	f3 0f 59 85 50 ff ff 	mulss  -0xb0(%rbp),%xmm0
    3c8b:	ff 
    3c8c:	f3 0f 58 c1          	addss  %xmm1,%xmm0
    3c90:	f3 0f 11 45 d0       	movss  %xmm0,-0x30(%rbp)
    3c95:	48 8b 05 00 00 00 00 	mov    0x0(%rip),%rax        # 3c9c <try_swap+0xa59>
    3c9c:	48 83 c0 01          	add    $0x1,%rax
    3ca0:	48 89 05 00 00 00 00 	mov    %rax,0x0(%rip)        # 3ca7 <try_swap+0xa64>
    3ca7:	eb 18                	jmp    3cc1 <try_swap+0xa7e>
    3ca9:	8b 45 cc             	mov    -0x34(%rbp),%eax
    3cac:	89 45 d0             	mov    %eax,-0x30(%rbp)
    3caf:	48 8b 05 00 00 00 00 	mov    0x0(%rip),%rax        # 3cb6 <try_swap+0xa73>
    3cb6:	48 83 c0 01          	add    $0x1,%rax
    3cba:	48 89 05 00 00 00 00 	mov    %rax,0x0(%rip)        # 3cc1 <try_swap+0xa7e>
    3cc1:	8b 55 8c             	mov    -0x74(%rbp),%edx
    3cc4:	8b 45 d0             	mov    -0x30(%rbp),%eax
    3cc7:	89 95 4c ff ff ff    	mov    %edx,-0xb4(%rbp)
    3ccd:	f3 0f 10 8d 4c ff ff 	movss  -0xb4(%rbp),%xmm1
    3cd4:	ff 
    3cd5:	89 85 4c ff ff ff    	mov    %eax,-0xb4(%rbp)
    3cdb:	f3 0f 10 85 4c ff ff 	movss  -0xb4(%rbp),%xmm0
    3ce2:	ff 
    3ce3:	e8 79 17 00 00       	callq  5461 <assess_swap>
    3ce8:	89 45 ac             	mov    %eax,-0x54(%rbp)
    3ceb:	83 7d ac 00          	cmpl   $0x0,-0x54(%rbp)
    3cef:	0f 84 6d 03 00 00    	je     4062 <try_swap+0xe1f>
    3cf5:	48 8b 05 00 00 00 00 	mov    0x0(%rip),%rax        # 3cfc <try_swap+0xab9>
    3cfc:	48 83 c0 01          	add    $0x1,%rax
    3d00:	48 89 05 00 00 00 00 	mov    %rax,0x0(%rip)        # 3d07 <try_swap+0xac4>
    3d07:	48 8b 45 80          	mov    -0x80(%rbp),%rax
    3d0b:	f3 0f 10 00          	movss  (%rax),%xmm0
    3d0f:	f3 0f 58 45 d0       	addss  -0x30(%rbp),%xmm0
    3d14:	48 8b 45 80          	mov    -0x80(%rbp),%rax
    3d18:	f3 0f 11 00          	movss  %xmm0,(%rax)
    3d1c:	48 8b 85 78 ff ff ff 	mov    -0x88(%rbp),%rax
    3d23:	f3 0f 10 00          	movss  (%rax),%xmm0
    3d27:	f3 0f 58 45 cc       	addss  -0x34(%rbp),%xmm0
    3d2c:	48 8b 85 78 ff ff ff 	mov    -0x88(%rbp),%rax
    3d33:	f3 0f 11 00          	movss  %xmm0,(%rax)
    3d37:	83 7d 20 01          	cmpl   $0x1,0x20(%rbp)
    3d3b:	74 18                	je     3d55 <try_swap+0xb12>
    3d3d:	48 8b 05 00 00 00 00 	mov    0x0(%rip),%rax        # 3d44 <try_swap+0xb01>
    3d44:	48 83 c0 01          	add    $0x1,%rax
    3d48:	48 89 05 00 00 00 00 	mov    %rax,0x0(%rip)        # 3d4f <try_swap+0xb0c>
    3d4f:	83 7d 20 02          	cmpl   $0x2,0x20(%rbp)
    3d53:	75 5c                	jne    3db1 <try_swap+0xb6e>
    3d55:	48 8b 85 70 ff ff ff 	mov    -0x90(%rbp),%rax
    3d5c:	f3 0f 10 08          	movss  (%rax),%xmm1
    3d60:	f3 0f 10 45 a0       	movss  -0x60(%rbp),%xmm0
    3d65:	f3 0f 58 c1          	addss  %xmm1,%xmm0
    3d69:	48 8b 85 70 ff ff ff 	mov    -0x90(%rbp),%rax
    3d70:	f3 0f 11 00          	movss  %xmm0,(%rax)
    3d74:	48 8b 45 28          	mov    0x28(%rbp),%rax
    3d78:	f3 0f 10 08          	movss  (%rax),%xmm1
    3d7c:	f3 0f 10 45 9c       	movss  -0x64(%rbp),%xmm0
    3d81:	f3 0f 58 c1          	addss  %xmm1,%xmm0
    3d85:	48 8b 45 28          	mov    0x28(%rbp),%rax
    3d89:	f3 0f 11 00          	movss  %xmm0,(%rax)
    3d8d:	8b 55 bc             	mov    -0x44(%rbp),%edx
    3d90:	8b 4d e4             	mov    -0x1c(%rbp),%ecx
    3d93:	8b 45 ec             	mov    -0x14(%rbp),%eax
    3d96:	89 ce                	mov    %ecx,%esi
    3d98:	89 c7                	mov    %eax,%edi
    3d9a:	e8 58 1d 00 00       	callq  5af7 <update_td_cost>
    3d9f:	48 8b 05 00 00 00 00 	mov    0x0(%rip),%rax        # 3da6 <try_swap+0xb63>
    3da6:	48 83 c0 01          	add    $0x1,%rax
    3daa:	48 89 05 00 00 00 00 	mov    %rax,0x0(%rip)        # 3db1 <try_swap+0xb6e>
    3db1:	c7 45 d4 00 00 00 00 	movl   $0x0,-0x2c(%rbp)
    3db8:	c7 45 dc 00 00 00 00 	movl   $0x0,-0x24(%rbp)
    3dbf:	e9 6d 01 00 00       	jmpq   3f31 <try_swap+0xcee>
    3dc4:	48 8b 05 00 00 00 00 	mov    0x0(%rip),%rax        # 3dcb <try_swap+0xb88>
    3dcb:	48 83 c0 01          	add    $0x1,%rax
    3dcf:	48 89 05 00 00 00 00 	mov    %rax,0x0(%rip)        # 3dd6 <try_swap+0xb93>
    3dd6:	48 8b 05 00 00 00 00 	mov    0x0(%rip),%rax        # 3ddd <try_swap+0xb9a>
    3ddd:	8b 55 dc             	mov    -0x24(%rbp),%edx
    3de0:	48 63 d2             	movslq %edx,%rdx
    3de3:	48 c1 e2 02          	shl    $0x2,%rdx
    3de7:	48 01 d0             	add    %rdx,%rax
    3dea:	8b 00                	mov    (%rax),%eax
    3dec:	89 45 b4             	mov    %eax,-0x4c(%rbp)
    3def:	48 8b 05 00 00 00 00 	mov    0x0(%rip),%rax        # 3df6 <try_swap+0xbb3>
    3df6:	8b 55 dc             	mov    -0x24(%rbp),%edx
    3df9:	48 63 d2             	movslq %edx,%rdx
    3dfc:	48 c1 e2 02          	shl    $0x2,%rdx
    3e00:	48 01 d0             	add    %rdx,%rax
    3e03:	8b 00                	mov    (%rax),%eax
    3e05:	83 f8 02             	cmp    $0x2,%eax
    3e08:	75 21                	jne    3e2b <try_swap+0xbe8>
    3e0a:	48 8b 05 00 00 00 00 	mov    0x0(%rip),%rax        # 3e11 <try_swap+0xbce>
    3e11:	8b 55 b4             	mov    -0x4c(%rbp),%edx
    3e14:	48 63 d2             	movslq %edx,%rdx
    3e17:	48 c1 e2 02          	shl    $0x2,%rdx
    3e1b:	48 01 c2             	add    %rax,%rdx
    3e1e:	8b 05 00 00 00 00    	mov    0x0(%rip),%eax        # 3e24 <try_swap+0xbe1>
    3e24:	89 02                	mov    %eax,(%rdx)
    3e26:	e9 02 01 00 00       	jmpq   3f2d <try_swap+0xcea>
    3e2b:	48 8b 05 00 00 00 00 	mov    0x0(%rip),%rax        # 3e32 <try_swap+0xbef>
    3e32:	8b 55 b4             	mov    -0x4c(%rbp),%edx
    3e35:	48 63 d2             	movslq %edx,%rdx
    3e38:	48 c1 e2 04          	shl    $0x4,%rdx
    3e3c:	48 01 d0             	add    %rdx,%rax
    3e3f:	48 8b 15 00 00 00 00 	mov    0x0(%rip),%rdx        # 3e46 <try_swap+0xc03>
    3e46:	8b 4d d4             	mov    -0x2c(%rbp),%ecx
    3e49:	48 63 c9             	movslq %ecx,%rcx
    3e4c:	48 c1 e1 04          	shl    $0x4,%rcx
    3e50:	48 01 ca             	add    %rcx,%rdx
    3e53:	48 8b 0a             	mov    (%rdx),%rcx
    3e56:	48 89 08             	mov    %rcx,(%rax)
    3e59:	48 8b 52 08          	mov    0x8(%rdx),%rdx
    3e5d:	48 89 50 08          	mov    %rdx,0x8(%rax)
    3e61:	48 8b 0d 00 00 00 00 	mov    0x0(%rip),%rcx        # 3e68 <try_swap+0xc25>
    3e68:	8b 45 b4             	mov    -0x4c(%rbp),%eax
    3e6b:	48 63 d0             	movslq %eax,%rdx
    3e6e:	48 89 d0             	mov    %rdx,%rax
    3e71:	48 c1 e0 02          	shl    $0x2,%rax
    3e75:	48 01 d0             	add    %rdx,%rax
    3e78:	48 c1 e0 03          	shl    $0x3,%rax
    3e7c:	48 01 c8             	add    %rcx,%rax
    3e7f:	8b 40 08             	mov    0x8(%rax),%eax
    3e82:	83 f8 03             	cmp    $0x3,%eax
    3e85:	7e 48                	jle    3ecf <try_swap+0xc8c>
    3e87:	48 8b 05 00 00 00 00 	mov    0x0(%rip),%rax        # 3e8e <try_swap+0xc4b>
    3e8e:	8b 55 b4             	mov    -0x4c(%rbp),%edx
    3e91:	48 63 d2             	movslq %edx,%rdx
    3e94:	48 c1 e2 04          	shl    $0x4,%rdx
    3e98:	48 01 d0             	add    %rdx,%rax
    3e9b:	48 8b 15 00 00 00 00 	mov    0x0(%rip),%rdx        # 3ea2 <try_swap+0xc5f>
    3ea2:	8b 4d d4             	mov    -0x2c(%rbp),%ecx
    3ea5:	48 63 c9             	movslq %ecx,%rcx
    3ea8:	48 c1 e1 04          	shl    $0x4,%rcx
    3eac:	48 01 ca             	add    %rcx,%rdx
    3eaf:	48 8b 0a             	mov    (%rdx),%rcx
    3eb2:	48 89 08             	mov    %rcx,(%rax)
    3eb5:	48 8b 52 08          	mov    0x8(%rdx),%rdx
    3eb9:	48 89 50 08          	mov    %rdx,0x8(%rax)
    3ebd:	48 8b 05 00 00 00 00 	mov    0x0(%rip),%rax        # 3ec4 <try_swap+0xc81>
    3ec4:	48 83 c0 01          	add    $0x1,%rax
    3ec8:	48 89 05 00 00 00 00 	mov    %rax,0x0(%rip)        # 3ecf <try_swap+0xc8c>
    3ecf:	83 45 d4 01          	addl   $0x1,-0x2c(%rbp)
    3ed3:	48 8b 05 00 00 00 00 	mov    0x0(%rip),%rax        # 3eda <try_swap+0xc97>
    3eda:	8b 55 b4             	mov    -0x4c(%rbp),%edx
    3edd:	48 63 d2             	movslq %edx,%rdx
    3ee0:	48 c1 e2 02          	shl    $0x2,%rdx
    3ee4:	48 01 c2             	add    %rax,%rdx
    3ee7:	48 8b 05 00 00 00 00 	mov    0x0(%rip),%rax        # 3eee <try_swap+0xcab>
    3eee:	8b 4d b4             	mov    -0x4c(%rbp),%ecx
    3ef1:	48 63 c9             	movslq %ecx,%rcx
    3ef4:	48 c1 e1 02          	shl    $0x2,%rcx
    3ef8:	48 01 c8             	add    %rcx,%rax
    3efb:	8b 00                	mov    (%rax),%eax
    3efd:	89 02                	mov    %eax,(%rdx)
    3eff:	48 8b 05 00 00 00 00 	mov    0x0(%rip),%rax        # 3f06 <try_swap+0xcc3>
    3f06:	8b 55 b4             	mov    -0x4c(%rbp),%edx
    3f09:	48 63 d2             	movslq %edx,%rdx
    3f0c:	48 c1 e2 02          	shl    $0x2,%rdx
    3f10:	48 01 c2             	add    %rax,%rdx
    3f13:	8b 05 00 00 00 00    	mov    0x0(%rip),%eax        # 3f19 <try_swap+0xcd6>
    3f19:	89 02                	mov    %eax,(%rdx)
    3f1b:	48 8b 05 00 00 00 00 	mov    0x0(%rip),%rax        # 3f22 <try_swap+0xcdf>
    3f22:	48 83 c0 01          	add    $0x1,%rax
    3f26:	48 89 05 00 00 00 00 	mov    %rax,0x0(%rip)        # 3f2d <try_swap+0xcea>
    3f2d:	83 45 dc 01          	addl   $0x1,-0x24(%rbp)
    3f31:	8b 45 dc             	mov    -0x24(%rbp),%eax
    3f34:	3b 45 b8             	cmp    -0x48(%rbp),%eax
    3f37:	0f 8c 87 fe ff ff    	jl     3dc4 <try_swap+0xb81>
    3f3d:	48 8b 05 00 00 00 00 	mov    0x0(%rip),%rax        # 3f44 <try_swap+0xd01>
    3f44:	48 83 c0 01          	add    $0x1,%rax
    3f48:	48 89 05 00 00 00 00 	mov    %rax,0x0(%rip)        # 3f4f <try_swap+0xd0c>
    3f4f:	48 8b 05 00 00 00 00 	mov    0x0(%rip),%rax        # 3f56 <try_swap+0xd13>
    3f56:	8b 55 a8             	mov    -0x58(%rbp),%edx
    3f59:	48 63 d2             	movslq %edx,%rdx
    3f5c:	48 c1 e2 03          	shl    $0x3,%rdx
    3f60:	48 01 d0             	add    %rdx,%rax
    3f63:	48 8b 08             	mov    (%rax),%rcx
    3f66:	8b 45 a4             	mov    -0x5c(%rbp),%eax
    3f69:	48 63 d0             	movslq %eax,%rdx
    3f6c:	48 89 d0             	mov    %rdx,%rax
    3f6f:	48 01 c0             	add    %rax,%rax
    3f72:	48 01 d0             	add    %rdx,%rax
    3f75:	48 c1 e0 03          	shl    $0x3,%rax
    3f79:	48 01 c8             	add    %rcx,%rax
    3f7c:	48 8b 40 10          	mov    0x10(%rax),%rax
    3f80:	8b 55 e8             	mov    -0x18(%rbp),%edx
    3f83:	48 63 d2             	movslq %edx,%rdx
    3f86:	48 c1 e2 02          	shl    $0x2,%rdx
    3f8a:	48 01 c2             	add    %rax,%rdx
    3f8d:	8b 45 ec             	mov    -0x14(%rbp),%eax
    3f90:	89 02                	mov    %eax,(%rdx)
    3f92:	48 8b 05 00 00 00 00 	mov    0x0(%rip),%rax        # 3f99 <try_swap+0xd56>
    3f99:	8b 55 c8             	mov    -0x38(%rbp),%edx
    3f9c:	48 63 d2             	movslq %edx,%rdx
    3f9f:	48 c1 e2 03          	shl    $0x3,%rdx
    3fa3:	48 01 d0             	add    %rdx,%rax
    3fa6:	48 8b 08             	mov    (%rax),%rcx
    3fa9:	8b 45 c4             	mov    -0x3c(%rbp),%eax
    3fac:	48 63 d0             	movslq %eax,%rdx
    3faf:	48 89 d0             	mov    %rdx,%rax
    3fb2:	48 01 c0             	add    %rax,%rax
    3fb5:	48 01 d0             	add    %rdx,%rax
    3fb8:	48 c1 e0 03          	shl    $0x3,%rax
    3fbc:	48 01 c8             	add    %rcx,%rax
    3fbf:	48 8b 40 10          	mov    0x10(%rax),%rax
    3fc3:	8b 55 c0             	mov    -0x40(%rbp),%edx
    3fc6:	48 63 d2             	movslq %edx,%rdx
    3fc9:	48 c1 e2 02          	shl    $0x2,%rdx
    3fcd:	48 01 c2             	add    %rax,%rdx
    3fd0:	8b 45 e4             	mov    -0x1c(%rbp),%eax
    3fd3:	89 02                	mov    %eax,(%rdx)
    3fd5:	83 7d e4 ff          	cmpl   $0xffffffff,-0x1c(%rbp)
    3fd9:	0f 85 22 02 00 00    	jne    4201 <try_swap+0xfbe>
    3fdf:	48 8b 05 00 00 00 00 	mov    0x0(%rip),%rax        # 3fe6 <try_swap+0xda3>
    3fe6:	8b 55 a8             	mov    -0x58(%rbp),%edx
    3fe9:	48 63 d2             	movslq %edx,%rdx
    3fec:	48 c1 e2 03          	shl    $0x3,%rdx
    3ff0:	48 01 d0             	add    %rdx,%rax
    3ff3:	48 8b 08             	mov    (%rax),%rcx
    3ff6:	8b 45 a4             	mov    -0x5c(%rbp),%eax
    3ff9:	48 63 d0             	movslq %eax,%rdx
    3ffc:	48 89 d0             	mov    %rdx,%rax
    3fff:	48 01 c0             	add    %rax,%rax
    4002:	48 01 d0             	add    %rdx,%rax
    4005:	48 c1 e0 03          	shl    $0x3,%rax
    4009:	48 01 c8             	add    %rcx,%rax
    400c:	8b 50 0c             	mov    0xc(%rax),%edx
    400f:	83 c2 01             	add    $0x1,%edx
    4012:	89 50 0c             	mov    %edx,0xc(%rax)
    4015:	48 8b 05 00 00 00 00 	mov    0x0(%rip),%rax        # 401c <try_swap+0xdd9>
    401c:	8b 55 c8             	mov    -0x38(%rbp),%edx
    401f:	48 63 d2             	movslq %edx,%rdx
    4022:	48 c1 e2 03          	shl    $0x3,%rdx
    4026:	48 01 d0             	add    %rdx,%rax
    4029:	48 8b 08             	mov    (%rax),%rcx
    402c:	8b 45 c4             	mov    -0x3c(%rbp),%eax
    402f:	48 63 d0             	movslq %eax,%rdx
    4032:	48 89 d0             	mov    %rdx,%rax
    4035:	48 01 c0             	add    %rax,%rax
    4038:	48 01 d0             	add    %rdx,%rax
    403b:	48 c1 e0 03          	shl    $0x3,%rax
    403f:	48 01 c8             	add    %rcx,%rax
    4042:	8b 50 0c             	mov    0xc(%rax),%edx
    4045:	83 ea 01             	sub    $0x1,%edx
    4048:	89 50 0c             	mov    %edx,0xc(%rax)
    404b:	48 8b 05 00 00 00 00 	mov    0x0(%rip),%rax        # 4052 <try_swap+0xe0f>
    4052:	48 83 c0 01          	add    $0x1,%rax
    4056:	48 89 05 00 00 00 00 	mov    %rax,0x0(%rip)        # 405d <try_swap+0xe1a>
    405d:	e9 9f 01 00 00       	jmpq   4201 <try_swap+0xfbe>
    4062:	c7 45 dc 00 00 00 00 	movl   $0x0,-0x24(%rbp)
    4069:	eb 4b                	jmp    40b6 <try_swap+0xe73>
    406b:	48 8b 05 00 00 00 00 	mov    0x0(%rip),%rax        # 4072 <try_swap+0xe2f>
    4072:	48 83 c0 01          	add    $0x1,%rax
    4076:	48 89 05 00 00 00 00 	mov    %rax,0x0(%rip)        # 407d <try_swap+0xe3a>
    407d:	48 8b 05 00 00 00 00 	mov    0x0(%rip),%rax        # 4084 <try_swap+0xe41>
    4084:	8b 55 dc             	mov    -0x24(%rbp),%edx
    4087:	48 63 d2             	movslq %edx,%rdx
    408a:	48 c1 e2 02          	shl    $0x2,%rdx
    408e:	48 01 d0             	add    %rdx,%rax
    4091:	8b 00                	mov    (%rax),%eax
    4093:	89 45 b4             	mov    %eax,-0x4c(%rbp)
    4096:	48 8b 05 00 00 00 00 	mov    0x0(%rip),%rax        # 409d <try_swap+0xe5a>
    409d:	8b 55 b4             	mov    -0x4c(%rbp),%edx
    40a0:	48 63 d2             	movslq %edx,%rdx
    40a3:	48 c1 e2 02          	shl    $0x2,%rdx
    40a7:	48 01 c2             	add    %rax,%rdx
    40aa:	8b 05 00 00 00 00    	mov    0x0(%rip),%eax        # 40b0 <try_swap+0xe6d>
    40b0:	89 02                	mov    %eax,(%rdx)
    40b2:	83 45 dc 01          	addl   $0x1,-0x24(%rbp)
    40b6:	8b 45 dc             	mov    -0x24(%rbp),%eax
    40b9:	3b 45 b8             	cmp    -0x48(%rbp),%eax
    40bc:	7c ad                	jl     406b <try_swap+0xe28>
    40be:	48 8b 05 00 00 00 00 	mov    0x0(%rip),%rax        # 40c5 <try_swap+0xe82>
    40c5:	48 83 c0 01          	add    $0x1,%rax
    40c9:	48 89 05 00 00 00 00 	mov    %rax,0x0(%rip)        # 40d0 <try_swap+0xe8d>
    40d0:	48 8b 0d 00 00 00 00 	mov    0x0(%rip),%rcx        # 40d7 <try_swap+0xe94>
    40d7:	8b 45 ec             	mov    -0x14(%rbp),%eax
    40da:	48 63 d0             	movslq %eax,%rdx
    40dd:	48 89 d0             	mov    %rdx,%rax
    40e0:	48 c1 e0 02          	shl    $0x2,%rax
    40e4:	48 01 d0             	add    %rdx,%rax
    40e7:	48 c1 e0 03          	shl    $0x3,%rax
    40eb:	48 8d 14 01          	lea    (%rcx,%rax,1),%rdx
    40ef:	8b 45 c8             	mov    -0x38(%rbp),%eax
    40f2:	89 42 18             	mov    %eax,0x18(%rdx)
    40f5:	48 8b 0d 00 00 00 00 	mov    0x0(%rip),%rcx        # 40fc <try_swap+0xeb9>
    40fc:	8b 45 ec             	mov    -0x14(%rbp),%eax
    40ff:	48 63 d0             	movslq %eax,%rdx
    4102:	48 89 d0             	mov    %rdx,%rax
    4105:	48 c1 e0 02          	shl    $0x2,%rax
    4109:	48 01 d0             	add    %rdx,%rax
    410c:	48 c1 e0 03          	shl    $0x3,%rax
    4110:	48 8d 14 01          	lea    (%rcx,%rax,1),%rdx
    4114:	8b 45 c4             	mov    -0x3c(%rbp),%eax
    4117:	89 42 1c             	mov    %eax,0x1c(%rdx)
    411a:	48 8b 0d 00 00 00 00 	mov    0x0(%rip),%rcx        # 4121 <try_swap+0xede>
    4121:	8b 45 ec             	mov    -0x14(%rbp),%eax
    4124:	48 63 d0             	movslq %eax,%rdx
    4127:	48 89 d0             	mov    %rdx,%rax
    412a:	48 c1 e0 02          	shl    $0x2,%rax
    412e:	48 01 d0             	add    %rdx,%rax
    4131:	48 c1 e0 03          	shl    $0x3,%rax
    4135:	48 8d 14 01          	lea    (%rcx,%rax,1),%rdx
    4139:	8b 45 c0             	mov    -0x40(%rbp),%eax
    413c:	89 42 20             	mov    %eax,0x20(%rdx)
    413f:	83 7d e4 ff          	cmpl   $0xffffffff,-0x1c(%rbp)
    4143:	0f 84 81 00 00 00    	je     41ca <try_swap+0xf87>
    4149:	48 8b 0d 00 00 00 00 	mov    0x0(%rip),%rcx        # 4150 <try_swap+0xf0d>
    4150:	8b 45 e4             	mov    -0x1c(%rbp),%eax
    4153:	48 63 d0             	movslq %eax,%rdx
    4156:	48 89 d0             	mov    %rdx,%rax
    4159:	48 c1 e0 02          	shl    $0x2,%rax
    415d:	48 01 d0             	add    %rdx,%rax
    4160:	48 c1 e0 03          	shl    $0x3,%rax
    4164:	48 8d 14 01          	lea    (%rcx,%rax,1),%rdx
    4168:	8b 45 a8             	mov    -0x58(%rbp),%eax
    416b:	89 42 18             	mov    %eax,0x18(%rdx)
    416e:	48 8b 0d 00 00 00 00 	mov    0x0(%rip),%rcx        # 4175 <try_swap+0xf32>
    4175:	8b 45 e4             	mov    -0x1c(%rbp),%eax
    4178:	48 63 d0             	movslq %eax,%rdx
    417b:	48 89 d0             	mov    %rdx,%rax
    417e:	48 c1 e0 02          	shl    $0x2,%rax
    4182:	48 01 d0             	add    %rdx,%rax
    4185:	48 c1 e0 03          	shl    $0x3,%rax
    4189:	48 8d 14 01          	lea    (%rcx,%rax,1),%rdx
    418d:	8b 45 a4             	mov    -0x5c(%rbp),%eax
    4190:	89 42 1c             	mov    %eax,0x1c(%rdx)
    4193:	48 8b 0d 00 00 00 00 	mov    0x0(%rip),%rcx        # 419a <try_swap+0xf57>
    419a:	8b 45 e4             	mov    -0x1c(%rbp),%eax
    419d:	48 63 d0             	movslq %eax,%rdx
    41a0:	48 89 d0             	mov    %rdx,%rax
    41a3:	48 c1 e0 02          	shl    $0x2,%rax
    41a7:	48 01 d0             	add    %rdx,%rax
    41aa:	48 c1 e0 03          	shl    $0x3,%rax
    41ae:	48 8d 14 01          	lea    (%rcx,%rax,1),%rdx
    41b2:	8b 45 e8             	mov    -0x18(%rbp),%eax
    41b5:	89 42 20             	mov    %eax,0x20(%rdx)
    41b8:	48 8b 05 00 00 00 00 	mov    0x0(%rip),%rax        # 41bf <try_swap+0xf7c>
    41bf:	48 83 c0 01          	add    $0x1,%rax
    41c3:	48 89 05 00 00 00 00 	mov    %rax,0x0(%rip)        # 41ca <try_swap+0xf87>
    41ca:	83 bd 6c ff ff ff 01 	cmpl   $0x1,-0x94(%rbp)
    41d1:	75 2e                	jne    4201 <try_swap+0xfbe>
    41d3:	48 8b 05 00 00 00 00 	mov    0x0(%rip),%rax        # 41da <try_swap+0xf97>
    41da:	48 83 c0 01          	add    $0x1,%rax
    41de:	48 89 05 00 00 00 00 	mov    %rax,0x0(%rip)        # 41e5 <try_swap+0xfa2>
    41e5:	48 8b 8d 58 ff ff ff 	mov    -0xa8(%rbp),%rcx
    41ec:	48 8b 85 60 ff ff ff 	mov    -0xa0(%rbp),%rax
    41f3:	8b 55 10             	mov    0x10(%rbp),%edx
    41f6:	48 89 ce             	mov    %rcx,%rsi
    41f9:	48 89 c7             	mov    %rax,%rdi
    41fc:	e8 4e 01 00 00       	callq  434f <restore_region_occ>
    4201:	8b 45 ac             	mov    -0x54(%rbp),%eax
    4204:	48 8b 15 00 00 00 00 	mov    0x0(%rip),%rdx        # 420b <try_swap+0xfc8>
    420b:	48 83 c2 01          	add    $0x1,%rdx
    420f:	48 89 15 00 00 00 00 	mov    %rdx,0x0(%rip)        # 4216 <try_swap+0xfd3>
    4216:	48 8b 15 00 00 00 00 	mov    0x0(%rip),%rdx        # 421d <try_swap+0xfda>
    421d:	48 83 c2 01          	add    $0x1,%rdx
    4221:	48 89 15 00 00 00 00 	mov    %rdx,0x0(%rip)        # 4228 <try_swap+0xfe5>
    4228:	48 81 c4 c8 00 00 00 	add    $0xc8,%rsp
    422f:	5b                   	pop    %rbx
    4230:	5d                   	pop    %rbp
    4231:	c3                   	retq   

0000000000004232 <save_region_occ>:
    4232:	55                   	push   %rbp
    4233:	48 89 e5             	mov    %rsp,%rbp
    4236:	48 83 ec 28          	sub    $0x28,%rsp
    423a:	48 89 7d e8          	mov    %rdi,-0x18(%rbp)
    423e:	48 89 75 e0          	mov    %rsi,-0x20(%rbp)
    4242:	89 55 dc             	mov    %edx,-0x24(%rbp)
    4245:	c7 45 fc 00 00 00 00 	movl   $0x0,-0x4(%rbp)
    424c:	e9 de 00 00 00       	jmpq   432f <save_region_occ+0xfd>
    4251:	48 8b 05 00 00 00 00 	mov    0x0(%rip),%rax        # 4258 <save_region_occ+0x26>
    4258:	48 83 c0 01          	add    $0x1,%rax
    425c:	48 89 05 00 00 00 00 	mov    %rax,0x0(%rip)        # 4263 <save_region_occ+0x31>
    4263:	c7 45 f8 00 00 00 00 	movl   $0x0,-0x8(%rbp)
    426a:	e9 b0 00 00 00       	jmpq   431f <save_region_occ+0xed>
    426f:	48 8b 05 00 00 00 00 	mov    0x0(%rip),%rax        # 4276 <save_region_occ+0x44>
    4276:	48 83 c0 01          	add    $0x1,%rax
    427a:	48 89 05 00 00 00 00 	mov    %rax,0x0(%rip)        # 4281 <save_region_occ+0x4f>
    4281:	8b 45 fc             	mov    -0x4(%rbp),%eax
    4284:	48 98                	cltq   
    4286:	48 8d 14 c5 00 00 00 	lea    0x0(,%rax,8),%rdx
    428d:	00 
    428e:	48 8b 45 e8          	mov    -0x18(%rbp),%rax
    4292:	48 01 d0             	add    %rdx,%rax
    4295:	48 8b 00             	mov    (%rax),%rax
    4298:	8b 55 f8             	mov    -0x8(%rbp),%edx
    429b:	48 63 d2             	movslq %edx,%rdx
    429e:	48 c1 e2 02          	shl    $0x2,%rdx
    42a2:	48 01 c2             	add    %rax,%rdx
    42a5:	48 8b 05 00 00 00 00 	mov    0x0(%rip),%rax        # 42ac <save_region_occ+0x7a>
    42ac:	8b 4d fc             	mov    -0x4(%rbp),%ecx
    42af:	48 63 c9             	movslq %ecx,%rcx
    42b2:	48 c1 e1 03          	shl    $0x3,%rcx
    42b6:	48 01 c8             	add    %rcx,%rax
    42b9:	48 8b 00             	mov    (%rax),%rax
    42bc:	8b 4d f8             	mov    -0x8(%rbp),%ecx
    42bf:	48 63 c9             	movslq %ecx,%rcx
    42c2:	48 c1 e1 04          	shl    $0x4,%rcx
    42c6:	48 01 c8             	add    %rcx,%rax
    42c9:	8b 40 08             	mov    0x8(%rax),%eax
    42cc:	89 02                	mov    %eax,(%rdx)
    42ce:	8b 45 fc             	mov    -0x4(%rbp),%eax
    42d1:	48 98                	cltq   
    42d3:	48 8d 14 c5 00 00 00 	lea    0x0(,%rax,8),%rdx
    42da:	00 
    42db:	48 8b 45 e0          	mov    -0x20(%rbp),%rax
    42df:	48 01 d0             	add    %rdx,%rax
    42e2:	48 8b 00             	mov    (%rax),%rax
    42e5:	8b 55 f8             	mov    -0x8(%rbp),%edx
    42e8:	48 63 d2             	movslq %edx,%rdx
    42eb:	48 c1 e2 02          	shl    $0x2,%rdx
    42ef:	48 01 c2             	add    %rax,%rdx
    42f2:	48 8b 05 00 00 00 00 	mov    0x0(%rip),%rax        # 42f9 <save_region_occ+0xc7>
    42f9:	8b 4d fc             	mov    -0x4(%rbp),%ecx
    42fc:	48 63 c9             	movslq %ecx,%rcx
    42ff:	48 c1 e1 03          	shl    $0x3,%rcx
    4303:	48 01 c8             	add    %rcx,%rax
    4306:	48 8b 00             	mov    (%rax),%rax
    4309:	8b 4d f8             	mov    -0x8(%rbp),%ecx
    430c:	48 63 c9             	movslq %ecx,%rcx
    430f:	48 c1 e1 04          	shl    $0x4,%rcx
    4313:	48 01 c8             	add    %rcx,%rax
    4316:	8b 40 08             	mov    0x8(%rax),%eax
    4319:	89 02                	mov    %eax,(%rdx)
    431b:	83 45 f8 01          	addl   $0x1,-0x8(%rbp)
    431f:	8b 45 f8             	mov    -0x8(%rbp),%eax
    4322:	3b 45 dc             	cmp    -0x24(%rbp),%eax
    4325:	0f 8c 44 ff ff ff    	jl     426f <save_region_occ+0x3d>
    432b:	83 45 fc 01          	addl   $0x1,-0x4(%rbp)
    432f:	8b 45 fc             	mov    -0x4(%rbp),%eax
    4332:	3b 45 dc             	cmp    -0x24(%rbp),%eax
    4335:	0f 8c 16 ff ff ff    	jl     4251 <save_region_occ+0x1f>
    433b:	48 8b 05 00 00 00 00 	mov    0x0(%rip),%rax        # 4342 <save_region_occ+0x110>
    4342:	48 83 c0 01          	add    $0x1,%rax
    4346:	48 89 05 00 00 00 00 	mov    %rax,0x0(%rip)        # 434d <save_region_occ+0x11b>
    434d:	c9                   	leaveq 
    434e:	c3                   	retq   

000000000000434f <restore_region_occ>:
    434f:	55                   	push   %rbp
    4350:	48 89 e5             	mov    %rsp,%rbp
    4353:	48 83 ec 28          	sub    $0x28,%rsp
    4357:	48 89 7d e8          	mov    %rdi,-0x18(%rbp)
    435b:	48 89 75 e0          	mov    %rsi,-0x20(%rbp)
    435f:	89 55 dc             	mov    %edx,-0x24(%rbp)
    4362:	c7 45 fc 00 00 00 00 	movl   $0x0,-0x4(%rbp)
    4369:	e9 de 00 00 00       	jmpq   444c <restore_region_occ+0xfd>
    436e:	48 8b 05 00 00 00 00 	mov    0x0(%rip),%rax        # 4375 <restore_region_occ+0x26>
    4375:	48 83 c0 01          	add    $0x1,%rax
    4379:	48 89 05 00 00 00 00 	mov    %rax,0x0(%rip)        # 4380 <restore_region_occ+0x31>
    4380:	c7 45 f8 00 00 00 00 	movl   $0x0,-0x8(%rbp)
    4387:	e9 b0 00 00 00       	jmpq   443c <restore_region_occ+0xed>
    438c:	48 8b 05 00 00 00 00 	mov    0x0(%rip),%rax        # 4393 <restore_region_occ+0x44>
    4393:	48 83 c0 01          	add    $0x1,%rax
    4397:	48 89 05 00 00 00 00 	mov    %rax,0x0(%rip)        # 439e <restore_region_occ+0x4f>
    439e:	48 8b 05 00 00 00 00 	mov    0x0(%rip),%rax        # 43a5 <restore_region_occ+0x56>
    43a5:	8b 55 fc             	mov    -0x4(%rbp),%edx
    43a8:	48 63 d2             	movslq %edx,%rdx
    43ab:	48 c1 e2 03          	shl    $0x3,%rdx
    43af:	48 01 d0             	add    %rdx,%rax
    43b2:	48 8b 00             	mov    (%rax),%rax
    43b5:	8b 55 f8             	mov    -0x8(%rbp),%edx
    43b8:	48 63 d2             	movslq %edx,%rdx
    43bb:	48 c1 e2 04          	shl    $0x4,%rdx
    43bf:	48 01 c2             	add    %rax,%rdx
    43c2:	8b 45 fc             	mov    -0x4(%rbp),%eax
    43c5:	48 98                	cltq   
    43c7:	48 8d 0c c5 00 00 00 	lea    0x0(,%rax,8),%rcx
    43ce:	00 
    43cf:	48 8b 45 e8          	mov    -0x18(%rbp),%rax
    43d3:	48 01 c8             	add    %rcx,%rax
    43d6:	48 8b 00             	mov    (%rax),%rax
    43d9:	8b 4d f8             	mov    -0x8(%rbp),%ecx
    43dc:	48 63 c9             	movslq %ecx,%rcx
    43df:	48 c1 e1 02          	shl    $0x2,%rcx
    43e3:	48 01 c8             	add    %rcx,%rax
    43e6:	8b 00                	mov    (%rax),%eax
    43e8:	89 42 08             	mov    %eax,0x8(%rdx)
    43eb:	48 8b 05 00 00 00 00 	mov    0x0(%rip),%rax        # 43f2 <restore_region_occ+0xa3>
    43f2:	8b 55 fc             	mov    -0x4(%rbp),%edx
    43f5:	48 63 d2             	movslq %edx,%rdx
    43f8:	48 c1 e2 03          	shl    $0x3,%rdx
    43fc:	48 01 d0             	add    %rdx,%rax
    43ff:	48 8b 00             	mov    (%rax),%rax
    4402:	8b 55 f8             	mov    -0x8(%rbp),%edx
    4405:	48 63 d2             	movslq %edx,%rdx
    4408:	48 c1 e2 04          	shl    $0x4,%rdx
    440c:	48 01 c2             	add    %rax,%rdx
    440f:	8b 45 fc             	mov    -0x4(%rbp),%eax
    4412:	48 98                	cltq   
    4414:	48 8d 0c c5 00 00 00 	lea    0x0(,%rax,8),%rcx
    441b:	00 
    441c:	48 8b 45 e0          	mov    -0x20(%rbp),%rax
    4420:	48 01 c8             	add    %rcx,%rax
    4423:	48 8b 00             	mov    (%rax),%rax
    4426:	8b 4d f8             	mov    -0x8(%rbp),%ecx
    4429:	48 63 c9             	movslq %ecx,%rcx
    442c:	48 c1 e1 02          	shl    $0x2,%rcx
    4430:	48 01 c8             	add    %rcx,%rax
    4433:	8b 00                	mov    (%rax),%eax
    4435:	89 42 08             	mov    %eax,0x8(%rdx)
    4438:	83 45 f8 01          	addl   $0x1,-0x8(%rbp)
    443c:	8b 45 f8             	mov    -0x8(%rbp),%eax
    443f:	3b 45 dc             	cmp    -0x24(%rbp),%eax
    4442:	0f 8c 44 ff ff ff    	jl     438c <restore_region_occ+0x3d>
    4448:	83 45 fc 01          	addl   $0x1,-0x4(%rbp)
    444c:	8b 45 fc             	mov    -0x4(%rbp),%eax
    444f:	3b 45 dc             	cmp    -0x24(%rbp),%eax
    4452:	0f 8c 16 ff ff ff    	jl     436e <restore_region_occ+0x1f>
    4458:	48 8b 05 00 00 00 00 	mov    0x0(%rip),%rax        # 445f <restore_region_occ+0x110>
    445f:	48 83 c0 01          	add    $0x1,%rax
    4463:	48 89 05 00 00 00 00 	mov    %rax,0x0(%rip)        # 446a <restore_region_occ+0x11b>
    446a:	c9                   	leaveq 
    446b:	c3                   	retq   

000000000000446c <find_affected_nets>:
    446c:	55                   	push   %rbp
    446d:	48 89 e5             	mov    %rsp,%rbp
    4470:	48 83 ec 30          	sub    $0x30,%rsp
    4474:	48 89 7d e8          	mov    %rdi,-0x18(%rbp)
    4478:	48 89 75 e0          	mov    %rsi,-0x20(%rbp)
    447c:	89 55 dc             	mov    %edx,-0x24(%rbp)
    447f:	89 4d d8             	mov    %ecx,-0x28(%rbp)
    4482:	44 89 45 d4          	mov    %r8d,-0x2c(%rbp)
    4486:	c7 45 f8 00 00 00 00 	movl   $0x0,-0x8(%rbp)
    448d:	c7 45 fc 00 00 00 00 	movl   $0x0,-0x4(%rbp)
    4494:	e9 2c 01 00 00       	jmpq   45c5 <find_affected_nets+0x159>
    4499:	48 8b 05 00 00 00 00 	mov    0x0(%rip),%rax        # 44a0 <find_affected_nets+0x34>
    44a0:	48 83 c0 01          	add    $0x1,%rax
    44a4:	48 89 05 00 00 00 00 	mov    %rax,0x0(%rip)        # 44ab <find_affected_nets+0x3f>
    44ab:	48 8b 0d 00 00 00 00 	mov    0x0(%rip),%rcx        # 44b2 <find_affected_nets+0x46>
    44b2:	8b 45 dc             	mov    -0x24(%rbp),%eax
    44b5:	48 63 d0             	movslq %eax,%rdx
    44b8:	48 89 d0             	mov    %rdx,%rax
    44bb:	48 c1 e0 02          	shl    $0x2,%rax
    44bf:	48 01 d0             	add    %rdx,%rax
    44c2:	48 c1 e0 03          	shl    $0x3,%rax
    44c6:	48 01 c8             	add    %rcx,%rax
    44c9:	48 8b 40 10          	mov    0x10(%rax),%rax
    44cd:	8b 55 fc             	mov    -0x4(%rbp),%edx
    44d0:	48 63 d2             	movslq %edx,%rdx
    44d3:	48 c1 e2 02          	shl    $0x2,%rdx
    44d7:	48 01 d0             	add    %rdx,%rax
    44da:	8b 00                	mov    (%rax),%eax
    44dc:	89 45 f0             	mov    %eax,-0x10(%rbp)
    44df:	83 7d f0 ff          	cmpl   $0xffffffff,-0x10(%rbp)
    44e3:	0f 84 d7 00 00 00    	je     45c0 <find_affected_nets+0x154>
    44e9:	48 8b 0d 00 00 00 00 	mov    0x0(%rip),%rcx        # 44f0 <find_affected_nets+0x84>
    44f0:	8b 45 f0             	mov    -0x10(%rbp),%eax
    44f3:	48 63 d0             	movslq %eax,%rdx
    44f6:	48 89 d0             	mov    %rdx,%rax
    44f9:	48 c1 e0 02          	shl    $0x2,%rax
    44fd:	48 01 d0             	add    %rdx,%rax
    4500:	48 c1 e0 03          	shl    $0x3,%rax
    4504:	48 01 c8             	add    %rcx,%rax
    4507:	8b 40 20             	mov    0x20(%rax),%eax
    450a:	85 c0                	test   %eax,%eax
    450c:	74 17                	je     4525 <find_affected_nets+0xb9>
    450e:	48 8b 05 00 00 00 00 	mov    0x0(%rip),%rax        # 4515 <find_affected_nets+0xa9>
    4515:	48 83 c0 01          	add    $0x1,%rax
    4519:	48 89 05 00 00 00 00 	mov    %rax,0x0(%rip)        # 4520 <find_affected_nets+0xb4>
    4520:	e9 9c 00 00 00       	jmpq   45c1 <find_affected_nets+0x155>
    4525:	48 8b 05 00 00 00 00 	mov    0x0(%rip),%rax        # 452c <find_affected_nets+0xc0>
    452c:	8b 55 f0             	mov    -0x10(%rbp),%edx
    452f:	48 63 d2             	movslq %edx,%rdx
    4532:	48 c1 e2 02          	shl    $0x2,%rdx
    4536:	48 01 d0             	add    %rdx,%rax
    4539:	f3 0f 10 00          	movss  (%rax),%xmm0
    453d:	0f 57 c9             	xorps  %xmm1,%xmm1
    4540:	0f 2e c1             	ucomiss %xmm1,%xmm0
    4543:	76 14                	jbe    4559 <find_affected_nets+0xed>
    4545:	48 8b 05 00 00 00 00 	mov    0x0(%rip),%rax        # 454c <find_affected_nets+0xe0>
    454c:	48 83 c0 01          	add    $0x1,%rax
    4550:	48 89 05 00 00 00 00 	mov    %rax,0x0(%rip)        # 4557 <find_affected_nets+0xeb>
    4557:	eb 68                	jmp    45c1 <find_affected_nets+0x155>
    4559:	8b 45 f8             	mov    -0x8(%rbp),%eax
    455c:	48 98                	cltq   
    455e:	48 8d 14 85 00 00 00 	lea    0x0(,%rax,4),%rdx
    4565:	00 
    4566:	48 8b 45 e8          	mov    -0x18(%rbp),%rax
    456a:	48 01 c2             	add    %rax,%rdx
    456d:	8b 45 f0             	mov    -0x10(%rbp),%eax
    4570:	89 02                	mov    %eax,(%rdx)
    4572:	8b 45 f8             	mov    -0x8(%rbp),%eax
    4575:	48 98                	cltq   
    4577:	48 8d 14 85 00 00 00 	lea    0x0(,%rax,4),%rdx
    457e:	00 
    457f:	48 8b 45 e0          	mov    -0x20(%rbp),%rax
    4583:	48 01 d0             	add    %rdx,%rax
    4586:	c7 00 00 00 00 00    	movl   $0x0,(%rax)
    458c:	83 45 f8 01          	addl   $0x1,-0x8(%rbp)
    4590:	48 8b 05 00 00 00 00 	mov    0x0(%rip),%rax        # 4597 <find_affected_nets+0x12b>
    4597:	8b 55 f0             	mov    -0x10(%rbp),%edx
    459a:	48 63 d2             	movslq %edx,%rdx
    459d:	48 c1 e2 02          	shl    $0x2,%rdx
    45a1:	48 01 c2             	add    %rax,%rdx
    45a4:	8b 05 00 00 00 00    	mov    0x0(%rip),%eax        # 45aa <find_affected_nets+0x13e>
    45aa:	89 02                	mov    %eax,(%rdx)
    45ac:	48 8b 05 00 00 00 00 	mov    0x0(%rip),%rax        # 45b3 <find_affected_nets+0x147>
    45b3:	48 83 c0 01          	add    $0x1,%rax
    45b7:	48 89 05 00 00 00 00 	mov    %rax,0x0(%rip)        # 45be <find_affected_nets+0x152>
    45be:	eb 01                	jmp    45c1 <find_affected_nets+0x155>
    45c0:	90                   	nop
    45c1:	83 45 fc 01          	addl   $0x1,-0x4(%rbp)
    45c5:	8b 45 fc             	mov    -0x4(%rbp),%eax
    45c8:	3b 45 d4             	cmp    -0x2c(%rbp),%eax
    45cb:	0f 8c c8 fe ff ff    	jl     4499 <find_affected_nets+0x2d>
    45d1:	83 7d d8 ff          	cmpl   $0xffffffff,-0x28(%rbp)
    45d5:	0f 84 4f 02 00 00    	je     482a <find_affected_nets+0x3be>
    45db:	c7 45 fc 00 00 00 00 	movl   $0x0,-0x4(%rbp)
    45e2:	48 8b 05 00 00 00 00 	mov    0x0(%rip),%rax        # 45e9 <find_affected_nets+0x17d>
    45e9:	48 83 c0 01          	add    $0x1,%rax
    45ed:	48 89 05 00 00 00 00 	mov    %rax,0x0(%rip)        # 45f4 <find_affected_nets+0x188>
    45f4:	e9 25 02 00 00       	jmpq   481e <find_affected_nets+0x3b2>
    45f9:	48 8b 05 00 00 00 00 	mov    0x0(%rip),%rax        # 4600 <find_affected_nets+0x194>
    4600:	48 83 c0 01          	add    $0x1,%rax
    4604:	48 89 05 00 00 00 00 	mov    %rax,0x0(%rip)        # 460b <find_affected_nets+0x19f>
    460b:	48 8b 0d 00 00 00 00 	mov    0x0(%rip),%rcx        # 4612 <find_affected_nets+0x1a6>
    4612:	8b 45 d8             	mov    -0x28(%rbp),%eax
    4615:	48 63 d0             	movslq %eax,%rdx
    4618:	48 89 d0             	mov    %rdx,%rax
    461b:	48 c1 e0 02          	shl    $0x2,%rax
    461f:	48 01 d0             	add    %rdx,%rax
    4622:	48 c1 e0 03          	shl    $0x3,%rax
    4626:	48 01 c8             	add    %rcx,%rax
    4629:	48 8b 40 10          	mov    0x10(%rax),%rax
    462d:	8b 55 fc             	mov    -0x4(%rbp),%edx
    4630:	48 63 d2             	movslq %edx,%rdx
    4633:	48 c1 e2 02          	shl    $0x2,%rdx
    4637:	48 01 d0             	add    %rdx,%rax
    463a:	8b 00                	mov    (%rax),%eax
    463c:	89 45 f0             	mov    %eax,-0x10(%rbp)
    463f:	83 7d f0 ff          	cmpl   $0xffffffff,-0x10(%rbp)
    4643:	0f 84 be 01 00 00    	je     4807 <find_affected_nets+0x39b>
    4649:	48 8b 0d 00 00 00 00 	mov    0x0(%rip),%rcx        # 4650 <find_affected_nets+0x1e4>
    4650:	8b 45 f0             	mov    -0x10(%rbp),%eax
    4653:	48 63 d0             	movslq %eax,%rdx
    4656:	48 89 d0             	mov    %rdx,%rax
    4659:	48 c1 e0 02          	shl    $0x2,%rax
    465d:	48 01 d0             	add    %rdx,%rax
    4660:	48 c1 e0 03          	shl    $0x3,%rax
    4664:	48 01 c8             	add    %rcx,%rax
    4667:	8b 40 20             	mov    0x20(%rax),%eax
    466a:	85 c0                	test   %eax,%eax
    466c:	74 17                	je     4685 <find_affected_nets+0x219>
    466e:	48 8b 05 00 00 00 00 	mov    0x0(%rip),%rax        # 4675 <find_affected_nets+0x209>
    4675:	48 83 c0 01          	add    $0x1,%rax
    4679:	48 89 05 00 00 00 00 	mov    %rax,0x0(%rip)        # 4680 <find_affected_nets+0x214>
    4680:	e9 83 01 00 00       	jmpq   4808 <find_affected_nets+0x39c>
    4685:	48 8b 05 00 00 00 00 	mov    0x0(%rip),%rax        # 468c <find_affected_nets+0x220>
    468c:	8b 55 f0             	mov    -0x10(%rbp),%edx
    468f:	48 63 d2             	movslq %edx,%rdx
    4692:	48 c1 e2 02          	shl    $0x2,%rdx
    4696:	48 01 d0             	add    %rdx,%rax
    4699:	f3 0f 10 00          	movss  (%rax),%xmm0
    469d:	0f 57 c9             	xorps  %xmm1,%xmm1
    46a0:	0f 2e c1             	ucomiss %xmm1,%xmm0
    46a3:	0f 86 f7 00 00 00    	jbe    47a0 <find_affected_nets+0x334>
    46a9:	c7 45 f4 00 00 00 00 	movl   $0x0,-0xc(%rbp)
    46b0:	48 8b 05 00 00 00 00 	mov    0x0(%rip),%rax        # 46b7 <find_affected_nets+0x24b>
    46b7:	48 83 c0 01          	add    $0x1,%rax
    46bb:	48 89 05 00 00 00 00 	mov    %rax,0x0(%rip)        # 46c2 <find_affected_nets+0x256>
    46c2:	e9 8b 00 00 00       	jmpq   4752 <find_affected_nets+0x2e6>
    46c7:	48 8b 05 00 00 00 00 	mov    0x0(%rip),%rax        # 46ce <find_affected_nets+0x262>
    46ce:	48 83 c0 01          	add    $0x1,%rax
    46d2:	48 89 05 00 00 00 00 	mov    %rax,0x0(%rip)        # 46d9 <find_affected_nets+0x26d>
    46d9:	8b 45 f4             	mov    -0xc(%rbp),%eax
    46dc:	48 98                	cltq   
    46de:	48 8d 14 85 00 00 00 	lea    0x0(,%rax,4),%rdx
    46e5:	00 
    46e6:	48 8b 45 e8          	mov    -0x18(%rbp),%rax
    46ea:	48 01 d0             	add    %rdx,%rax
    46ed:	8b 00                	mov    (%rax),%eax
    46ef:	3b 45 f0             	cmp    -0x10(%rbp),%eax
    46f2:	75 48                	jne    473c <find_affected_nets+0x2d0>
    46f4:	8b 45 f4             	mov    -0xc(%rbp),%eax
    46f7:	48 98                	cltq   
    46f9:	48 8d 14 85 00 00 00 	lea    0x0(,%rax,4),%rdx
    4700:	00 
    4701:	48 8b 45 e0          	mov    -0x20(%rbp),%rax
    4705:	48 01 d0             	add    %rdx,%rax
    4708:	8b 00                	mov    (%rax),%eax
    470a:	85 c0                	test   %eax,%eax
    470c:	75 52                	jne    4760 <find_affected_nets+0x2f4>
    470e:	8b 45 f4             	mov    -0xc(%rbp),%eax
    4711:	48 98                	cltq   
    4713:	48 8d 14 85 00 00 00 	lea    0x0(,%rax,4),%rdx
    471a:	00 
    471b:	48 8b 45 e0          	mov    -0x20(%rbp),%rax
    471f:	48 01 d0             	add    %rdx,%rax
    4722:	c7 00 02 00 00 00    	movl   $0x2,(%rax)
    4728:	48 8b 05 00 00 00 00 	mov    0x0(%rip),%rax        # 472f <find_affected_nets+0x2c3>
    472f:	48 83 c0 01          	add    $0x1,%rax
    4733:	48 89 05 00 00 00 00 	mov    %rax,0x0(%rip)        # 473a <find_affected_nets+0x2ce>
    473a:	eb 24                	jmp    4760 <find_affected_nets+0x2f4>
    473c:	83 45 f4 01          	addl   $0x1,-0xc(%rbp)
    4740:	48 8b 05 00 00 00 00 	mov    0x0(%rip),%rax        # 4747 <find_affected_nets+0x2db>
    4747:	48 83 c0 01          	add    $0x1,%rax
    474b:	48 89 05 00 00 00 00 	mov    %rax,0x0(%rip)        # 4752 <find_affected_nets+0x2e6>
    4752:	8b 45 f4             	mov    -0xc(%rbp),%eax
    4755:	3b 45 f8             	cmp    -0x8(%rbp),%eax
    4758:	0f 8c 69 ff ff ff    	jl     46c7 <find_affected_nets+0x25b>
    475e:	eb 01                	jmp    4761 <find_affected_nets+0x2f5>
    4760:	90                   	nop
    4761:	8b 45 f4             	mov    -0xc(%rbp),%eax
    4764:	3b 45 f8             	cmp    -0x8(%rbp),%eax
    4767:	0f 8e 9b 00 00 00    	jle    4808 <find_affected_nets+0x39c>
    476d:	8b 55 f8             	mov    -0x8(%rbp),%edx
    4770:	8b 45 f4             	mov    -0xc(%rbp),%eax
    4773:	89 c6                	mov    %eax,%esi
    4775:	bf 00 00 00 00       	mov    $0x0,%edi
    477a:	b8 00 00 00 00       	mov    $0x0,%eax
    477f:	e8 00 00 00 00       	callq  4784 <find_affected_nets+0x318>
    4784:	48 8b 05 00 00 00 00 	mov    0x0(%rip),%rax        # 478b <find_affected_nets+0x31f>
    478b:	48 83 c0 01          	add    $0x1,%rax
    478f:	48 89 05 00 00 00 00 	mov    %rax,0x0(%rip)        # 4796 <find_affected_nets+0x32a>
    4796:	bf 01 00 00 00       	mov    $0x1,%edi
    479b:	e8 00 00 00 00       	callq  47a0 <find_affected_nets+0x334>
    47a0:	8b 45 f8             	mov    -0x8(%rbp),%eax
    47a3:	48 98                	cltq   
    47a5:	48 8d 14 85 00 00 00 	lea    0x0(,%rax,4),%rdx
    47ac:	00 
    47ad:	48 8b 45 e8          	mov    -0x18(%rbp),%rax
    47b1:	48 01 c2             	add    %rax,%rdx
    47b4:	8b 45 f0             	mov    -0x10(%rbp),%eax
    47b7:	89 02                	mov    %eax,(%rdx)
    47b9:	8b 45 f8             	mov    -0x8(%rbp),%eax
    47bc:	48 98                	cltq   
    47be:	48 8d 14 85 00 00 00 	lea    0x0(,%rax,4),%rdx
    47c5:	00 
    47c6:	48 8b 45 e0          	mov    -0x20(%rbp),%rax
    47ca:	48 01 d0             	add    %rdx,%rax
    47cd:	c7 00 01 00 00 00    	movl   $0x1,(%rax)
    47d3:	83 45 f8 01          	addl   $0x1,-0x8(%rbp)
    47d7:	48 8b 05 00 00 00 00 	mov    0x0(%rip),%rax        # 47de <find_affected_nets+0x372>
    47de:	8b 55 f0             	mov    -0x10(%rbp),%edx
    47e1:	48 63 d2             	movslq %edx,%rdx
    47e4:	48 c1 e2 02          	shl    $0x2,%rdx
    47e8:	48 01 c2             	add    %rax,%rdx
    47eb:	8b 05 00 00 00 00    	mov    0x0(%rip),%eax        # 47f1 <find_affected_nets+0x385>
    47f1:	89 02                	mov    %eax,(%rdx)
    47f3:	48 8b 05 00 00 00 00 	mov    0x0(%rip),%rax        # 47fa <find_affected_nets+0x38e>
    47fa:	48 83 c0 01          	add    $0x1,%rax
    47fe:	48 89 05 00 00 00 00 	mov    %rax,0x0(%rip)        # 4805 <find_affected_nets+0x399>
    4805:	eb 01                	jmp    4808 <find_affected_nets+0x39c>
    4807:	90                   	nop
    4808:	83 45 fc 01          	addl   $0x1,-0x4(%rbp)
    480c:	48 8b 05 00 00 00 00 	mov    0x0(%rip),%rax        # 4813 <find_affected_nets+0x3a7>
    4813:	48 83 c0 01          	add    $0x1,%rax
    4817:	48 89 05 00 00 00 00 	mov    %rax,0x0(%rip)        # 481e <find_affected_nets+0x3b2>
    481e:	8b 45 fc             	mov    -0x4(%rbp),%eax
    4821:	3b 45 d4             	cmp    -0x2c(%rbp),%eax
    4824:	0f 8c cf fd ff ff    	jl     45f9 <find_affected_nets+0x18d>
    482a:	8b 45 f8             	mov    -0x8(%rbp),%eax
    482d:	48 8b 15 00 00 00 00 	mov    0x0(%rip),%rdx        # 4834 <find_affected_nets+0x3c8>
    4834:	48 83 c2 01          	add    $0x1,%rdx
    4838:	48 89 15 00 00 00 00 	mov    %rdx,0x0(%rip)        # 483f <find_affected_nets+0x3d3>
    483f:	c9                   	leaveq 
    4840:	c3                   	retq   

0000000000004841 <find_to>:
    4841:	55                   	push   %rbp
    4842:	48 89 e5             	mov    %rsp,%rbp
    4845:	53                   	push   %rbx
    4846:	48 83 ec 78          	sub    $0x78,%rsp
    484a:	89 7d ac             	mov    %edi,-0x54(%rbp)
    484d:	89 75 a8             	mov    %esi,-0x58(%rbp)
    4850:	48 89 55 a0          	mov    %rdx,-0x60(%rbp)
    4854:	f3 0f 11 45 9c       	movss  %xmm0,-0x64(%rbp)
    4859:	48 89 4d 90          	mov    %rcx,-0x70(%rbp)
    485d:	4c 89 45 88          	mov    %r8,-0x78(%rbp)
    4861:	4c 89 4d 80          	mov    %r9,-0x80(%rbp)
    4865:	8b 05 00 00 00 00    	mov    0x0(%rip),%eax        # 486b <find_to+0x2a>
    486b:	f3 0f 2a c0          	cvtsi2ss %eax,%xmm0
    486f:	0f 2e 45 9c          	ucomiss -0x64(%rbp),%xmm0
    4873:	76 0b                	jbe    4880 <find_to+0x3f>
    4875:	f3 0f 10 45 9c       	movss  -0x64(%rbp),%xmm0
    487a:	f3 0f 2c c0          	cvttss2si %xmm0,%eax
    487e:	eb 20                	jmp    48a0 <find_to+0x5f>
    4880:	8b 05 00 00 00 00    	mov    0x0(%rip),%eax        # 4886 <find_to+0x45>
    4886:	f3 0f 2a c0          	cvtsi2ss %eax,%xmm0
    488a:	f3 0f 2c c0          	cvttss2si %xmm0,%eax
    488e:	48 8b 15 00 00 00 00 	mov    0x0(%rip),%rdx        # 4895 <find_to+0x54>
    4895:	48 83 c2 01          	add    $0x1,%rdx
    4899:	48 89 15 00 00 00 00 	mov    %rdx,0x0(%rip)        # 48a0 <find_to+0x5f>
    48a0:	89 45 e0             	mov    %eax,-0x20(%rbp)
    48a3:	8b 05 00 00 00 00    	mov    0x0(%rip),%eax        # 48a9 <find_to+0x68>
    48a9:	f3 0f 2a c0          	cvtsi2ss %eax,%xmm0
    48ad:	0f 2e 45 9c          	ucomiss -0x64(%rbp),%xmm0
    48b1:	76 1d                	jbe    48d0 <find_to+0x8f>
    48b3:	f3 0f 10 45 9c       	movss  -0x64(%rbp),%xmm0
    48b8:	f3 0f 2c c0          	cvttss2si %xmm0,%eax
    48bc:	48 8b 15 00 00 00 00 	mov    0x0(%rip),%rdx        # 48c3 <find_to+0x82>
    48c3:	48 83 c2 01          	add    $0x1,%rdx
    48c7:	48 89 15 00 00 00 00 	mov    %rdx,0x0(%rip)        # 48ce <find_to+0x8d>
    48ce:	eb 20                	jmp    48f0 <find_to+0xaf>
    48d0:	8b 05 00 00 00 00    	mov    0x0(%rip),%eax        # 48d6 <find_to+0x95>
    48d6:	f3 0f 2a c0          	cvtsi2ss %eax,%xmm0
    48da:	f3 0f 2c c0          	cvttss2si %xmm0,%eax
    48de:	48 8b 15 00 00 00 00 	mov    0x0(%rip),%rdx        # 48e5 <find_to+0xa4>
    48e5:	48 83 c2 01          	add    $0x1,%rdx
    48e9:	48 89 15 00 00 00 00 	mov    %rdx,0x0(%rip)        # 48f0 <find_to+0xaf>
    48f0:	89 45 dc             	mov    %eax,-0x24(%rbp)
    48f3:	8b 45 e0             	mov    -0x20(%rbp),%eax
    48f6:	8b 55 ac             	mov    -0x54(%rbp),%edx
    48f9:	89 d1                	mov    %edx,%ecx
    48fb:	29 c1                	sub    %eax,%ecx
    48fd:	89 c8                	mov    %ecx,%eax
    48ff:	ba 01 00 00 00       	mov    $0x1,%edx
    4904:	85 c0                	test   %eax,%eax
    4906:	0f 4e c2             	cmovle %edx,%eax
    4909:	89 45 d8             	mov    %eax,-0x28(%rbp)
    490c:	8b 45 e0             	mov    -0x20(%rbp),%eax
    490f:	8b 55 ac             	mov    -0x54(%rbp),%edx
    4912:	01 c2                	add    %eax,%edx
    4914:	8b 05 00 00 00 00    	mov    0x0(%rip),%eax        # 491a <find_to+0xd9>
    491a:	39 c2                	cmp    %eax,%edx
    491c:	0f 4e c2             	cmovle %edx,%eax
    491f:	89 45 d4             	mov    %eax,-0x2c(%rbp)
    4922:	8b 45 dc             	mov    -0x24(%rbp),%eax
    4925:	8b 55 a8             	mov    -0x58(%rbp),%edx
    4928:	89 d1                	mov    %edx,%ecx
    492a:	29 c1                	sub    %eax,%ecx
    492c:	89 c8                	mov    %ecx,%eax
    492e:	ba 01 00 00 00       	mov    $0x1,%edx
    4933:	85 c0                	test   %eax,%eax
    4935:	0f 4e c2             	cmovle %edx,%eax
    4938:	89 45 d0             	mov    %eax,-0x30(%rbp)
    493b:	8b 45 dc             	mov    -0x24(%rbp),%eax
    493e:	8b 55 a8             	mov    -0x58(%rbp),%edx
    4941:	01 c2                	add    %eax,%edx
    4943:	8b 05 00 00 00 00    	mov    0x0(%rip),%eax        # 4949 <find_to+0x108>
    4949:	39 c2                	cmp    %eax,%edx
    494b:	0f 4e c2             	cmovle %edx,%eax
    494e:	89 45 cc             	mov    %eax,-0x34(%rbp)
    4951:	c7 45 ec 00 00 00 00 	movl   $0x0,-0x14(%rbp)
    4958:	c7 45 e4 00 00 00 00 	movl   $0x0,-0x1c(%rbp)
    495f:	48 8b 05 00 00 00 00 	mov    0x0(%rip),%rax        # 4966 <find_to+0x125>
    4966:	48 39 45 a0          	cmp    %rax,-0x60(%rbp)
    496a:	0f 84 45 01 00 00    	je     4ab5 <find_to+0x274>
    4970:	8b 45 d8             	mov    -0x28(%rbp),%eax
    4973:	89 45 e8             	mov    %eax,-0x18(%rbp)
    4976:	eb 6d                	jmp    49e5 <find_to+0x1a4>
    4978:	48 8b 05 00 00 00 00 	mov    0x0(%rip),%rax        # 497f <find_to+0x13e>
    497f:	48 83 c0 01          	add    $0x1,%rax
    4983:	48 89 05 00 00 00 00 	mov    %rax,0x0(%rip)        # 498a <find_to+0x149>
    498a:	48 8b 05 00 00 00 00 	mov    0x0(%rip),%rax        # 4991 <find_to+0x150>
    4991:	8b 55 e8             	mov    -0x18(%rbp),%edx
    4994:	48 63 d2             	movslq %edx,%rdx
    4997:	48 c1 e2 03          	shl    $0x3,%rdx
    499b:	48 01 d0             	add    %rdx,%rax
    499e:	48 8b 00             	mov    (%rax),%rax
    49a1:	48 83 c0 18          	add    $0x18,%rax
    49a5:	48 8b 00             	mov    (%rax),%rax
    49a8:	48 3b 45 a0          	cmp    -0x60(%rbp),%rax
    49ac:	75 33                	jne    49e1 <find_to+0x1a0>
    49ae:	83 45 ec 01          	addl   $0x1,-0x14(%rbp)
    49b2:	8b 45 e4             	mov    -0x1c(%rbp),%eax
    49b5:	48 98                	cltq   
    49b7:	48 8d 14 85 00 00 00 	lea    0x0(,%rax,4),%rdx
    49be:	00 
    49bf:	48 8b 45 90          	mov    -0x70(%rbp),%rax
    49c3:	48 01 c2             	add    %rax,%rdx
    49c6:	8b 45 e8             	mov    -0x18(%rbp),%eax
    49c9:	89 02                	mov    %eax,(%rdx)
    49cb:	83 45 e4 01          	addl   $0x1,-0x1c(%rbp)
    49cf:	48 8b 05 00 00 00 00 	mov    0x0(%rip),%rax        # 49d6 <find_to+0x195>
    49d6:	48 83 c0 01          	add    $0x1,%rax
    49da:	48 89 05 00 00 00 00 	mov    %rax,0x0(%rip)        # 49e1 <find_to+0x1a0>
    49e1:	83 45 e8 01          	addl   $0x1,-0x18(%rbp)
    49e5:	8b 45 e8             	mov    -0x18(%rbp),%eax
    49e8:	3b 45 d4             	cmp    -0x2c(%rbp),%eax
    49eb:	7e 8b                	jle    4978 <find_to+0x137>
    49ed:	83 7d ec 00          	cmpl   $0x0,-0x14(%rbp)
    49f1:	75 2b                	jne    4a1e <find_to+0x1dd>
    49f3:	48 8b 05 00 00 00 00 	mov    0x0(%rip),%rax        # 49fa <find_to+0x1b9>
    49fa:	48 83 c0 01          	add    $0x1,%rax
    49fe:	48 89 05 00 00 00 00 	mov    %rax,0x0(%rip)        # 4a05 <find_to+0x1c4>
    4a05:	b9 00 00 00 00       	mov    $0x0,%ecx
    4a0a:	ba b2 06 00 00       	mov    $0x6b2,%edx
    4a0f:	be 00 00 00 00       	mov    $0x0,%esi
    4a14:	bf 00 00 00 00       	mov    $0x0,%edi
    4a19:	e8 00 00 00 00       	callq  4a1e <find_to+0x1dd>
    4a1e:	48 8b 05 00 00 00 00 	mov    0x0(%rip),%rax        # 4a25 <find_to+0x1e4>
    4a25:	48 83 c0 01          	add    $0x1,%rax
    4a29:	48 89 05 00 00 00 00 	mov    %rax,0x0(%rip)        # 4a30 <find_to+0x1ef>
    4a30:	83 7d ec 01          	cmpl   $0x1,-0x14(%rbp)
    4a34:	75 7f                	jne    4ab5 <find_to+0x274>
    4a36:	48 8b 05 00 00 00 00 	mov    0x0(%rip),%rax        # 4a3d <find_to+0x1fc>
    4a3d:	48 83 c0 01          	add    $0x1,%rax
    4a41:	48 89 05 00 00 00 00 	mov    %rax,0x0(%rip)        # 4a48 <find_to+0x207>
    4a48:	8b 45 d0             	mov    -0x30(%rbp),%eax
    4a4b:	8b 55 cc             	mov    -0x34(%rbp),%edx
    4a4e:	89 d1                	mov    %edx,%ecx
    4a50:	29 c1                	sub    %eax,%ecx
    4a52:	48 8b 45 a0          	mov    -0x60(%rbp),%rax
    4a56:	8b 40 10             	mov    0x10(%rax),%eax
    4a59:	89 45 98             	mov    %eax,-0x68(%rbp)
    4a5c:	89 c8                	mov    %ecx,%eax
    4a5e:	89 c2                	mov    %eax,%edx
    4a60:	c1 fa 1f             	sar    $0x1f,%edx
    4a63:	f7 7d 98             	idivl  -0x68(%rbp)
    4a66:	83 e8 01             	sub    $0x1,%eax
    4a69:	85 c0                	test   %eax,%eax
    4a6b:	7e 2c                	jle    4a99 <find_to+0x258>
    4a6d:	48 8b 05 00 00 00 00 	mov    0x0(%rip),%rax        # 4a74 <find_to+0x233>
    4a74:	48 83 c0 01          	add    $0x1,%rax
    4a78:	48 89 05 00 00 00 00 	mov    %rax,0x0(%rip)        # 4a7f <find_to+0x23e>
    4a7f:	48 8b 45 a0          	mov    -0x60(%rbp),%rax
    4a83:	8b 50 10             	mov    0x10(%rax),%edx
    4a86:	8b 05 00 00 00 00    	mov    0x0(%rip),%eax        # 4a8c <find_to+0x24b>
    4a8c:	89 c1                	mov    %eax,%ecx
    4a8e:	c1 e9 1f             	shr    $0x1f,%ecx
    4a91:	01 c8                	add    %ecx,%eax
    4a93:	d1 f8                	sar    %eax
    4a95:	39 c2                	cmp    %eax,%edx
    4a97:	7e 1c                	jle    4ab5 <find_to+0x274>
    4a99:	b8 00 00 00 00       	mov    $0x0,%eax
    4a9e:	48 8b 15 00 00 00 00 	mov    0x0(%rip),%rdx        # 4aa5 <find_to+0x264>
    4aa5:	48 83 c2 01          	add    $0x1,%rdx
    4aa9:	48 89 15 00 00 00 00 	mov    %rdx,0x0(%rip)        # 4ab0 <find_to+0x26f>
    4ab0:	e9 a5 09 00 00       	jmpq   545a <find_to+0xc19>
    4ab5:	83 7d e0 00          	cmpl   $0x0,-0x20(%rbp)
    4ab9:	7e 1d                	jle    4ad8 <find_to+0x297>
    4abb:	48 8b 05 00 00 00 00 	mov    0x0(%rip),%rax        # 4ac2 <find_to+0x281>
    4ac2:	48 83 c0 01          	add    $0x1,%rax
    4ac6:	48 89 05 00 00 00 00 	mov    %rax,0x0(%rip)        # 4acd <find_to+0x28c>
    4acd:	8b 05 00 00 00 00    	mov    0x0(%rip),%eax        # 4ad3 <find_to+0x292>
    4ad3:	39 45 e0             	cmp    %eax,-0x20(%rbp)
    4ad6:	7e 30                	jle    4b08 <find_to+0x2c7>
    4ad8:	8b 45 e0             	mov    -0x20(%rbp),%eax
    4adb:	89 c6                	mov    %eax,%esi
    4add:	bf 00 00 00 00       	mov    $0x0,%edi
    4ae2:	b8 00 00 00 00       	mov    $0x0,%eax
    4ae7:	e8 00 00 00 00       	callq  4aec <find_to+0x2ab>
    4aec:	48 8b 05 00 00 00 00 	mov    0x0(%rip),%rax        # 4af3 <find_to+0x2b2>
    4af3:	48 83 c0 01          	add    $0x1,%rax
    4af7:	48 89 05 00 00 00 00 	mov    %rax,0x0(%rip)        # 4afe <find_to+0x2bd>
    4afe:	bf 01 00 00 00       	mov    $0x1,%edi
    4b03:	e8 00 00 00 00       	callq  4b08 <find_to+0x2c7>
    4b08:	48 8b 05 00 00 00 00 	mov    0x0(%rip),%rax        # 4b0f <find_to+0x2ce>
    4b0f:	48 39 45 a0          	cmp    %rax,-0x60(%rbp)
    4b13:	0f 85 39 06 00 00    	jne    5152 <find_to+0x911>
    4b19:	8b 05 00 00 00 00    	mov    0x0(%rip),%eax        # 4b1f <find_to+0x2de>
    4b1f:	39 45 e0             	cmp    %eax,-0x20(%rbp)
    4b22:	0f 8c d8 01 00 00    	jl     4d00 <find_to+0x4bf>
    4b28:	48 8b 05 00 00 00 00 	mov    0x0(%rip),%rax        # 4b2f <find_to+0x2ee>
    4b2f:	48 83 c0 01          	add    $0x1,%rax
